---
triple:          'arm64-apple-darwin'
binary-path:     day7
relocations:
  - { offsetInCU: 0x66, offset: 0x66, size: 0x8, addend: 0x0, symName: __ZNSt3__16ranges5__cpo9iter_moveE, symObjAddr: 0x7555, symBinAddr: 0x10000BB05, symSize: 0x0 }
  - { offsetInCU: 0xEA64, offset: 0xEA64, size: 0x8, addend: 0x0, symName: __ZNSt3__17advanceB7v160006IPyllvEEvRT_T0_, symObjAddr: 0x3534, symBinAddr: 0x1000077FC, symSize: 0x50 }
  - { offsetInCU: 0xEACF, offset: 0xEACF, size: 0x8, addend: 0x0, symName: __ZNSt3__17advanceB7v160006IPymmvEEvRT_T0_, symObjAddr: 0x3CC8, symBinAddr: 0x100007F90, symSize: 0x50 }
  - { offsetInCU: 0x11A5A, offset: 0x11A5A, size: 0x8, addend: 0x0, symName: __ZNSt3__17getlineB7v160006IcNS_11char_traitsIcEENS_9allocatorIcEEEERNS_13basic_istreamIT_T0_EES9_RNS_12basic_stringIS6_S7_T1_EE, symObjAddr: 0x1760, symBinAddr: 0x100005A28, symSize: 0x5C }
  - { offsetInCU: 0x11ABD, offset: 0x11ABD, size: 0x8, addend: 0x0, symName: __ZNSt3__1miB7v160006IPKyS2_EEDTmicldtfp_4baseEcldtfp0_4baseEERKNS_11__wrap_iterIT_EERKNS4_IT0_EE, symObjAddr: 0x19D0, symBinAddr: 0x100005C98, symSize: 0x48 }
  - { offsetInCU: 0x11B09, offset: 0x11B09, size: 0x8, addend: 0x0, symName: __ZNSt3__14moveB7v160006IPyS1_EET0_T_S3_S2_, symObjAddr: 0x1AA4, symBinAddr: 0x100005D6C, symSize: 0x40 }
  - { offsetInCU: 0x11B63, offset: 0x11B63, size: 0x8, addend: 0x0, symName: __ZNSt3__112__to_addressB7v160006IyEEPT_S2_, symObjAddr: 0x1DA4, symBinAddr: 0x10000606C, symSize: 0x14 }
  - { offsetInCU: 0x11B98, offset: 0x11B98, size: 0x8, addend: 0x0, symName: __ZNSt3__110destroy_atB7v160006IyLi0EEEvPT_, symObjAddr: 0x1DB8, symBinAddr: 0x100006080, symSize: 0x24 }
  - { offsetInCU: 0x11BCF, offset: 0x11BCF, size: 0x8, addend: 0x0, symName: __ZNSt3__112__destroy_atB7v160006IyLi0EEEvPT_, symObjAddr: 0x1DDC, symBinAddr: 0x1000060A4, symSize: 0x10 }
  - { offsetInCU: 0x11C06, offset: 0x11C06, size: 0x8, addend: 0x0, symName: __ZNSt3__16__moveB7v160006INS_17_ClassicAlgPolicyEPyS2_S2_EENS_4pairIT0_T2_EES4_T1_S5_, symObjAddr: 0x1F0C, symBinAddr: 0x1000061D4, symSize: 0x44 }
  - { offsetInCU: 0x11C72, offset: 0x11C72, size: 0x8, addend: 0x0, symName: __ZNSt3__123__dispatch_copy_or_moveB7v160006INS_17_ClassicAlgPolicyENS_11__move_loopIS1_EENS_14__move_trivialEPyS5_S5_EENS_4pairIT2_T4_EES7_T3_S8_, symObjAddr: 0x1F50, symBinAddr: 0x100006218, symSize: 0x44 }
  - { offsetInCU: 0x11CF0, offset: 0x11CF0, size: 0x8, addend: 0x0, symName: __ZNSt3__121__unwrap_and_dispatchB7v160006INS_10__overloadINS_11__move_loopINS_17_ClassicAlgPolicyEEENS_14__move_trivialEEEPyS7_S7_Li0EEENS_4pairIT0_T2_EES9_T1_SA_, symObjAddr: 0x1F94, symBinAddr: 0x10000625C, symSize: 0xB4 }
  - { offsetInCU: 0x11D7E, offset: 0x11D7E, size: 0x8, addend: 0x0, symName: __ZNSt3__114__unwrap_rangeB7v160006IPyS1_EEDaT_T0_, symObjAddr: 0x2048, symBinAddr: 0x100006310, symSize: 0x3C }
  - { offsetInCU: 0x11F42, offset: 0x11F42, size: 0x8, addend: 0x0, symName: __ZNSt3__113__unwrap_iterB7v160006IPyNS_18__unwrap_iter_implIS1_Lb1EEELi0EEEDTclsrT0_8__unwrapclsr3stdE7declvalIT_EEEES5_, symObjAddr: 0x20CC, symBinAddr: 0x100006394, symSize: 0x24 }
  - { offsetInCU: 0x11F86, offset: 0x11F86, size: 0x8, addend: 0x0, symName: __ZNSt3__19make_pairB7v160006IPyS1_EENS_4pairINS_18__unwrap_ref_decayIT_E4typeENS3_IT0_E4typeEEEOS4_OS7_, symObjAddr: 0x20F0, symBinAddr: 0x1000063B8, symSize: 0x38 }
  - { offsetInCU: 0x11FD5, offset: 0x11FD5, size: 0x8, addend: 0x0, symName: __ZNSt3__114__rewrap_rangeB7v160006IPyS1_S1_EET0_S2_T1_, symObjAddr: 0x2128, symBinAddr: 0x1000063F0, symSize: 0x2C }
  - { offsetInCU: 0x1202A, offset: 0x1202A, size: 0x8, addend: 0x0, symName: __ZNSt3__113__rewrap_iterB7v160006IPyS1_NS_18__unwrap_iter_implIS1_Lb1EEEEET_S4_T0_, symObjAddr: 0x2154, symBinAddr: 0x10000641C, symSize: 0x3C }
  - { offsetInCU: 0x120CF, offset: 0x120CF, size: 0x8, addend: 0x0, symName: __ZNSt3__119__copy_trivial_implB7v160006IyyEENS_4pairIPT_PT0_EES3_S3_S5_, symObjAddr: 0x2258, symBinAddr: 0x100006520, symSize: 0x84 }
  - { offsetInCU: 0x12137, offset: 0x12137, size: 0x8, addend: 0x0, symName: __ZNSt3__19make_pairB7v160006IRPyS1_EENS_4pairINS_18__unwrap_ref_decayIT_E4typeENS4_IT0_E4typeEEEOS5_OS8_, symObjAddr: 0x22DC, symBinAddr: 0x1000065A4, symSize: 0x38 }
  - { offsetInCU: 0x121D9, offset: 0x121D9, size: 0x8, addend: 0x0, symName: __ZNSt3__122__make_exception_guardB7v160006INS_6vectorIyNS_9allocatorIyEEE16__destroy_vectorEEENS_28__exception_guard_exceptionsIT_EES7_, symObjAddr: 0x26C8, symBinAddr: 0x100006990, symSize: 0x40 }
  - { offsetInCU: 0x1220E, offset: 0x1220E, size: 0x8, addend: 0x0, symName: __ZNSt3__119__debug_db_insert_cB7v160006INS_6vectorIyNS_9allocatorIyEEEEEEvPT_, symObjAddr: 0x273C, symBinAddr: 0x100006A04, symSize: 0x10 }
  - { offsetInCU: 0x1223F, offset: 0x1223F, size: 0x8, addend: 0x0, symName: __ZNSt3__119__allocate_at_leastB7v160006INS_9allocatorIyEEEENS_19__allocation_resultINS_16allocator_traitsIT_E7pointerEEERS5_m, symObjAddr: 0x2A70, symBinAddr: 0x100006D38, symSize: 0x40 }
  - { offsetInCU: 0x12282, offset: 0x12282, size: 0x8, addend: 0x0, symName: __ZNSt3__13minB7v160006ImEERKT_S3_S3_, symObjAddr: 0x2B84, symBinAddr: 0x100006E4C, symSize: 0x2C }
  - { offsetInCU: 0x124AF, offset: 0x124AF, size: 0x8, addend: 0x0, symName: __ZNSt3__13minB7v160006ImNS_6__lessImmEEEERKT_S5_S5_T0_, symObjAddr: 0x2BEC, symBinAddr: 0x100006EB4, symSize: 0x54 }
  - { offsetInCU: 0x12730, offset: 0x12730, size: 0x8, addend: 0x0, symName: __ZNSt3__120__throw_length_errorB7v160006EPKc, symObjAddr: 0x2C98, symBinAddr: 0x100006F60, symSize: 0x64 }
  - { offsetInCU: 0x12758, offset: 0x12758, size: 0x8, addend: 0x0, symName: __ZNSt3__117__libcpp_allocateB7v160006Emm, symObjAddr: 0x2E08, symBinAddr: 0x1000070D0, symSize: 0x60 }
  - { offsetInCU: 0x127B2, offset: 0x127B2, size: 0x8, addend: 0x0, symName: __ZNSt3__124__is_overaligned_for_newB7v160006Em, symObjAddr: 0x2E68, symBinAddr: 0x100007130, symSize: 0x20 }
  - { offsetInCU: 0x127E0, offset: 0x127E0, size: 0x8, addend: 0x0, symName: __ZNSt3__121__libcpp_operator_newB7v160006IJmSt11align_val_tEEEPvDpT_, symObjAddr: 0x2E88, symBinAddr: 0x100007150, symSize: 0x2C }
  - { offsetInCU: 0x1282D, offset: 0x1282D, size: 0x8, addend: 0x0, symName: __ZNSt3__121__libcpp_operator_newB7v160006IJmEEEPvDpT_, symObjAddr: 0x2EB4, symBinAddr: 0x10000717C, symSize: 0x24 }
  - { offsetInCU: 0x12866, offset: 0x12866, size: 0x8, addend: 0x0, symName: __ZNSt3__130__uninitialized_allocator_copyB7v160006INS_9allocatorIyEEPyS3_S3_EET2_RT_T0_T1_S4_, symObjAddr: 0x2F4C, symBinAddr: 0x100007214, symSize: 0xF4 }
  - { offsetInCU: 0x12904, offset: 0x12904, size: 0x8, addend: 0x0, symName: __ZNSt3__122__make_exception_guardB7v160006INS_29_AllocatorDestroyRangeReverseINS_9allocatorIyEEPyEEEENS_28__exception_guard_exceptionsIT_EES7_, symObjAddr: 0x30B0, symBinAddr: 0x100007378, symSize: 0x4C }
  - { offsetInCU: 0x1295F, offset: 0x1295F, size: 0x8, addend: 0x0, symName: __ZNSt3__112construct_atB7v160006IyJRyEPyEEPT_S4_DpOT0_, symObjAddr: 0x3254, symBinAddr: 0x10000751C, symSize: 0x2C }
  - { offsetInCU: 0x129CF, offset: 0x129CF, size: 0x8, addend: 0x0, symName: __ZNSt3__119__allocator_destroyB7v160006INS_9allocatorIyEENS_16reverse_iteratorIPyEES5_EEvRT_T0_T1_, symObjAddr: 0x3338, symBinAddr: 0x100007600, symSize: 0x70 }
  - { offsetInCU: 0x12A32, offset: 0x12A32, size: 0x8, addend: 0x0, symName: __ZNSt3__1neB7v160006IPyS1_EEbRKNS_16reverse_iteratorIT_EERKNS2_IT0_EE, symObjAddr: 0x33DC, symBinAddr: 0x1000076A4, symSize: 0x48 }
  - { offsetInCU: 0x12A7E, offset: 0x12A7E, size: 0x8, addend: 0x0, symName: __ZNSt3__112__to_addressB7v160006INS_16reverse_iteratorIPyEEvEENS_5decayIDTclsr19__to_address_helperIT_EE6__callclsr3stdE7declvalIRKS5_EEEEE4typeES7_, symObjAddr: 0x3424, symBinAddr: 0x1000076EC, symSize: 0x24 }
  - { offsetInCU: 0x12ADD, offset: 0x12ADD, size: 0x8, addend: 0x0, symName: __ZNSt3__14prevB7v160006IPyEENS_9enable_ifIXsr25__is_cpp17_input_iteratorIT_EE5valueES3_E4typeES3_NS_15iterator_traitsIS3_E15difference_typeE, symObjAddr: 0x34E4, symBinAddr: 0x1000077AC, symSize: 0x50 }
  - { offsetInCU: 0x12B20, offset: 0x12B20, size: 0x8, addend: 0x0, symName: __ZNSt3__121__convert_to_integralB7v160006El, symObjAddr: 0x3584, symBinAddr: 0x10000784C, symSize: 0x14 }
  - { offsetInCU: 0x12B4C, offset: 0x12B4C, size: 0x8, addend: 0x0, symName: __ZNSt3__19__advanceB7v160006IPyEEvRT_NS_15iterator_traitsIS2_E15difference_typeENS_26random_access_iterator_tagE, symObjAddr: 0x3598, symBinAddr: 0x100007860, symSize: 0x28 }
  - { offsetInCU: 0x12B95, offset: 0x12B95, size: 0x8, addend: 0x0, symName: __ZNSt3__118__debug_db_erase_cB7v160006INS_6vectorIyNS_9allocatorIyEEEEEEvPT_, symObjAddr: 0x37AC, symBinAddr: 0x100007A74, symSize: 0x10 }
  - { offsetInCU: 0x12BC6, offset: 0x12BC6, size: 0x8, addend: 0x0, symName: __ZNSt3__119__libcpp_deallocateB7v160006EPvmm, symObjAddr: 0x3858, symBinAddr: 0x100007B20, symSize: 0x60 }
  - { offsetInCU: 0x12C2B, offset: 0x12C2B, size: 0x8, addend: 0x0, symName: __ZNSt3__127__do_deallocate_handle_sizeB7v160006IJSt11align_val_tEEEvPvmDpT_, symObjAddr: 0x38B8, symBinAddr: 0x100007B80, symSize: 0x30 }
  - { offsetInCU: 0x12C7E, offset: 0x12C7E, size: 0x8, addend: 0x0, symName: __ZNSt3__127__do_deallocate_handle_sizeB7v160006IJEEEvPvmDpT_, symObjAddr: 0x38E8, symBinAddr: 0x100007BB0, symSize: 0x28 }
  - { offsetInCU: 0x12CBC, offset: 0x12CBC, size: 0x8, addend: 0x0, symName: __ZNSt3__124__libcpp_operator_deleteB7v160006IJPvSt11align_val_tEEEvDpT_, symObjAddr: 0x3910, symBinAddr: 0x100007BD8, symSize: 0x2C }
  - { offsetInCU: 0x12D05, offset: 0x12D05, size: 0x8, addend: 0x0, symName: __ZNSt3__124__libcpp_operator_deleteB7v160006IJPvEEEvDpT_, symObjAddr: 0x393C, symBinAddr: 0x100007C04, symSize: 0x24 }
  - { offsetInCU: 0x12D3A, offset: 0x12D3A, size: 0x8, addend: 0x0, symName: __ZNSt3__18distanceB7v160006IPyEENS_15iterator_traitsIT_E15difference_typeES3_S3_, symObjAddr: 0x3C9C, symBinAddr: 0x100007F64, symSize: 0x2C }
  - { offsetInCU: 0x12D7D, offset: 0x12D7D, size: 0x8, addend: 0x0, symName: __ZNSt3__14copyB7v160006IPyS1_EET0_T_S3_S2_, symObjAddr: 0x3D18, symBinAddr: 0x100007FE0, symSize: 0x40 }
  - { offsetInCU: 0x12DD7, offset: 0x12DD7, size: 0x8, addend: 0x0, symName: __ZNSt3__125__debug_db_invalidate_allB7v160006INS_6vectorIyNS_9allocatorIyEEEEEEvPT_, symObjAddr: 0x3E98, symBinAddr: 0x100008160, symSize: 0x10 }
  - { offsetInCU: 0x12E08, offset: 0x12E08, size: 0x8, addend: 0x0, symName: __ZNSt3__110__distanceB7v160006IPyEENS_15iterator_traitsIT_E15difference_typeES3_S3_NS_26random_access_iterator_tagE, symObjAddr: 0x3EA8, symBinAddr: 0x100008170, symSize: 0x28 }
  - { offsetInCU: 0x12E55, offset: 0x12E55, size: 0x8, addend: 0x0, symName: __ZNSt3__121__convert_to_integralB7v160006Em, symObjAddr: 0x3ED0, symBinAddr: 0x100008198, symSize: 0x14 }
  - { offsetInCU: 0x12E81, offset: 0x12E81, size: 0x8, addend: 0x0, symName: __ZNSt3__16__copyB7v160006INS_17_ClassicAlgPolicyEPyS2_S2_EENS_4pairIT0_T2_EES4_T1_S5_, symObjAddr: 0x3EE4, symBinAddr: 0x1000081AC, symSize: 0x44 }
  - { offsetInCU: 0x12EED, offset: 0x12EED, size: 0x8, addend: 0x0, symName: __ZNSt3__123__dispatch_copy_or_moveB7v160006INS_17_ClassicAlgPolicyENS_11__copy_loopIS1_EENS_14__copy_trivialEPyS5_S5_EENS_4pairIT2_T4_EES7_T3_S8_, symObjAddr: 0x3F28, symBinAddr: 0x1000081F0, symSize: 0x44 }
  - { offsetInCU: 0x12F6B, offset: 0x12F6B, size: 0x8, addend: 0x0, symName: __ZNSt3__121__unwrap_and_dispatchB7v160006INS_10__overloadINS_11__copy_loopINS_17_ClassicAlgPolicyEEENS_14__copy_trivialEEEPyS7_S7_Li0EEENS_4pairIT0_T2_EES9_T1_SA_, symObjAddr: 0x3F6C, symBinAddr: 0x100008234, symSize: 0xB4 }
  - { offsetInCU: 0x1303F, offset: 0x1303F, size: 0x8, addend: 0x0, symName: __ZNSt3__13maxB7v160006ImEERKT_S3_S3_, symObjAddr: 0x4068, symBinAddr: 0x100008330, symSize: 0x2C }
  - { offsetInCU: 0x13082, offset: 0x13082, size: 0x8, addend: 0x0, symName: __ZNSt3__13maxB7v160006ImNS_6__lessImmEEEERKT_S5_S5_T0_, symObjAddr: 0x4094, symBinAddr: 0x10000835C, symSize: 0x54 }
  - { offsetInCU: 0x130DC, offset: 0x130DC, size: 0x8, addend: 0x0, symName: __ZNSt3__119__debug_db_insert_cB7v160006INS_12basic_stringIcNS_11char_traitsIcEENS_9allocatorIcEEEEEEvPT_, symObjAddr: 0x41B8, symBinAddr: 0x100008480, symSize: 0x10 }
  - { offsetInCU: 0x1310D, offset: 0x1310D, size: 0x8, addend: 0x0, symName: __ZNSt3__118__constexpr_strlenB7v160006EPKc, symObjAddr: 0x4284, symBinAddr: 0x10000854C, symSize: 0x24 }
  - { offsetInCU: 0x13139, offset: 0x13139, size: 0x8, addend: 0x0, symName: __ZNSt3__120__throw_out_of_rangeB7v160006EPKc, symObjAddr: 0x42C4, symBinAddr: 0x10000858C, symSize: 0x64 }
  - { offsetInCU: 0x13163, offset: 0x13163, size: 0x8, addend: 0x0, symName: __ZNSt3__1miB7v160006IPKyPyEEDTmicldtfp_4baseEcldtfp0_4baseEERKNS_11__wrap_iterIT_EERKNS5_IT0_EE, symObjAddr: 0x43A8, symBinAddr: 0x100008670, symSize: 0x48 }
  - { offsetInCU: 0x131E2, offset: 0x131E2, size: 0x8, addend: 0x0, symName: __ZNSt3__112construct_atB7v160006IyJRKyEPyEEPT_S5_DpOT0_, symObjAddr: 0x4A14, symBinAddr: 0x100008CDC, symSize: 0x2C }
  - { offsetInCU: 0x13252, offset: 0x13252, size: 0x8, addend: 0x0, symName: __ZNSt3__113move_backwardB7v160006IPyS1_EET0_T_S3_S2_, symObjAddr: 0x4A70, symBinAddr: 0x100008D38, symSize: 0x40 }
  - { offsetInCU: 0x132AC, offset: 0x132AC, size: 0x8, addend: 0x0, symName: __ZNSt3__112construct_atB7v160006IyJyEPyEEPT_S3_DpOT0_, symObjAddr: 0x4AB0, symBinAddr: 0x100008D78, symSize: 0x2C }
  - { offsetInCU: 0x1331C, offset: 0x1331C, size: 0x8, addend: 0x0, symName: __ZNSt3__115__move_backwardB7v160006INS_17_ClassicAlgPolicyEPyS2_S2_EENS_4pairIT0_T2_EES4_T1_S5_, symObjAddr: 0x4ADC, symBinAddr: 0x100008DA4, symSize: 0x44 }
  - { offsetInCU: 0x13388, offset: 0x13388, size: 0x8, addend: 0x0, symName: __ZNSt3__123__dispatch_copy_or_moveB7v160006INS_17_ClassicAlgPolicyENS_20__move_backward_loopIS1_EENS_23__move_backward_trivialEPyS5_S5_EENS_4pairIT2_T4_EES7_T3_S8_, symObjAddr: 0x4B20, symBinAddr: 0x100008DE8, symSize: 0x44 }
  - { offsetInCU: 0x13406, offset: 0x13406, size: 0x8, addend: 0x0, symName: __ZNSt3__121__unwrap_and_dispatchB7v160006INS_10__overloadINS_20__move_backward_loopINS_17_ClassicAlgPolicyEEENS_23__move_backward_trivialEEEPyS7_S7_Li0EEENS_4pairIT0_T2_EES9_T1_SA_, symObjAddr: 0x4B64, symBinAddr: 0x100008E2C, symSize: 0xB4 }
  - { offsetInCU: 0x134DA, offset: 0x134DA, size: 0x8, addend: 0x0, symName: __ZNSt3__128__copy_backward_trivial_implB7v160006IyyEENS_4pairIPT_PT0_EES3_S3_S5_, symObjAddr: 0x4C60, symBinAddr: 0x100008F28, symSize: 0x94 }
  - { offsetInCU: 0x13542, offset: 0x13542, size: 0x8, addend: 0x0, symName: __ZNSt3__19make_pairB7v160006IRPyS2_EENS_4pairINS_18__unwrap_ref_decayIT_E4typeENS4_IT0_E4typeEEEOS5_OS8_, symObjAddr: 0x4CF4, symBinAddr: 0x100008FBC, symSize: 0x38 }
  - { offsetInCU: 0x13591, offset: 0x13591, size: 0x8, addend: 0x0, symName: __ZNSt3__14swapB7v160006IPyEENS_9enable_ifIXaasr21is_move_constructibleIT_EE5valuesr18is_move_assignableIS3_EE5valueEvE4typeERS3_S6_, symObjAddr: 0x50F8, symBinAddr: 0x1000093C0, symSize: 0x3C }
  - { offsetInCU: 0x135E2, offset: 0x135E2, size: 0x8, addend: 0x0, symName: __ZNSt3__18distanceB7v160006INS_13move_iteratorIPyEEEENS_15iterator_traitsIT_E15difference_typeES5_S5_, symObjAddr: 0x5134, symBinAddr: 0x1000093FC, symSize: 0x3C }
  - { offsetInCU: 0x13625, offset: 0x13625, size: 0x8, addend: 0x0, symName: __ZNSt3__110__distanceB7v160006INS_13move_iteratorIPyEEEENS_15iterator_traitsIT_E15difference_typeES5_S5_NS_26random_access_iterator_tagE, symObjAddr: 0x5224, symBinAddr: 0x1000094EC, symSize: 0x30 }
  - { offsetInCU: 0x13672, offset: 0x13672, size: 0x8, addend: 0x0, symName: __ZNSt3__1miB7v160006IPyS1_EEDTmicldtfp_4baseEcldtfp0_4baseEERKNS_13move_iteratorIT_EERKNS3_IT0_EE, symObjAddr: 0x5254, symBinAddr: 0x10000951C, symSize: 0x4C }
  - { offsetInCU: 0x136C1, offset: 0x136C1, size: 0x8, addend: 0x0, symName: __ZNSt3__142__uninitialized_allocator_move_if_noexceptB7v160006INS_9allocatorIyEENS_16reverse_iteratorIPyEES5_yvEET1_RT_T0_S9_S6_, symObjAddr: 0x5354, symBinAddr: 0x10000961C, symSize: 0x78 }
  - { offsetInCU: 0x1373E, offset: 0x1373E, size: 0x8, addend: 0x0, symName: __ZNSt3__142__uninitialized_allocator_move_if_noexceptB7v160006INS_9allocatorIyEEPyS3_yvEET1_RT_T0_S7_S4_, symObjAddr: 0x53CC, symBinAddr: 0x100009694, symSize: 0x38 }
  - { offsetInCU: 0x137BA, offset: 0x137BA, size: 0x8, addend: 0x0, symName: __ZNSt3__14moveB7v160006INS_16reverse_iteratorIPyEES3_EET0_T_S5_S4_, symObjAddr: 0x5404, symBinAddr: 0x1000096CC, symSize: 0x78 }
  - { offsetInCU: 0x13814, offset: 0x13814, size: 0x8, addend: 0x0, symName: __ZNSt3__16__moveB7v160006INS_17_ClassicAlgPolicyENS_16reverse_iteratorIPyEES4_S4_EENS_4pairIT0_T2_EES6_T1_S7_, symObjAddr: 0x547C, symBinAddr: 0x100009744, symSize: 0x64 }
  - { offsetInCU: 0x13880, offset: 0x13880, size: 0x8, addend: 0x0, symName: __ZNSt3__123__dispatch_copy_or_moveB7v160006INS_17_ClassicAlgPolicyENS_11__move_loopIS1_EENS_14__move_trivialENS_16reverse_iteratorIPyEES7_S7_EENS_4pairIT2_T4_EES9_T3_SA_, symObjAddr: 0x54E0, symBinAddr: 0x1000097A8, symSize: 0x64 }
  - { offsetInCU: 0x138FE, offset: 0x138FE, size: 0x8, addend: 0x0, symName: __ZNSt3__121__unwrap_and_dispatchB7v160006INS_10__overloadINS_11__move_loopINS_17_ClassicAlgPolicyEEENS_14__move_trivialEEENS_16reverse_iteratorIPyEES9_S9_Li0EEENS_4pairIT0_T2_EESB_T1_SC_, symObjAddr: 0x5544, symBinAddr: 0x10000980C, symSize: 0x12C }
  - { offsetInCU: 0x1398E, offset: 0x1398E, size: 0x8, addend: 0x0, symName: __ZNSt3__114__unwrap_rangeB7v160006INS_16reverse_iteratorIPyEES3_EEDaT_T0_, symObjAddr: 0x5670, symBinAddr: 0x100009938, symSize: 0x4C }
  - { offsetInCU: 0x13B09, offset: 0x13B09, size: 0x8, addend: 0x0, symName: __ZNSt3__113__unwrap_iterB7v160006INS_16reverse_iteratorIPyEENS_18__unwrap_iter_implIS3_Lb0EEELi0EEEDTclsrT0_8__unwrapclsr3stdE7declvalIT_EEEES7_, symObjAddr: 0x575C, symBinAddr: 0x100009A24, symSize: 0x44 }
  - { offsetInCU: 0x13B4D, offset: 0x13B4D, size: 0x8, addend: 0x0, symName: __ZNSt3__19make_pairB7v160006INS_16reverse_iteratorIPyEES3_EENS_4pairINS_18__unwrap_ref_decayIT_E4typeENS5_IT0_E4typeEEEOS6_OS9_, symObjAddr: 0x57A0, symBinAddr: 0x100009A68, symSize: 0x38 }
  - { offsetInCU: 0x13B9C, offset: 0x13B9C, size: 0x8, addend: 0x0, symName: __ZNSt3__114__rewrap_rangeB7v160006INS_16reverse_iteratorIPyEES3_S3_EET0_S4_T1_, symObjAddr: 0x57D8, symBinAddr: 0x100009AA0, symSize: 0x5C }
  - { offsetInCU: 0x13BF1, offset: 0x13BF1, size: 0x8, addend: 0x0, symName: __ZNSt3__113__rewrap_iterB7v160006INS_16reverse_iteratorIPyEES3_NS_18__unwrap_iter_implIS3_Lb0EEEEET_S6_T0_, symObjAddr: 0x5834, symBinAddr: 0x100009AFC, symSize: 0x74 }
  - { offsetInCU: 0x13D48, offset: 0x13D48, size: 0x8, addend: 0x0, symName: __ZNSt3__17getlineB7v160006IcNS_11char_traitsIcEENS_9allocatorIcEEEERNS_13basic_istreamIT_T0_EES9_RNS_12basic_stringIS6_S7_T1_EES6_, symObjAddr: 0x69B8, symBinAddr: 0x10000AC80, symSize: 0x238 }
  - { offsetInCU: 0x13E06, offset: 0x13E06, size: 0x8, addend: 0x0, symName: __ZNSt3__125__debug_db_invalidate_allB7v160006INS_12basic_stringIcNS_11char_traitsIcEENS_9allocatorIcEEEEEEvPT_, symObjAddr: 0x6F50, symBinAddr: 0x10000B218, symSize: 0x10 }
  - { offsetInCU: 0x13E37, offset: 0x13E37, size: 0x8, addend: 0x0, symName: __ZNSt3__19use_facetB7v160006INS_5ctypeIcEEEERKT_RKNS_6localeE, symObjAddr: 0x7104, symBinAddr: 0x10000B3CC, symSize: 0x2C }
  - { offsetInCU: 0x14988, offset: 0x14988, size: 0x8, addend: 0x0, symName: __ZSt28__throw_bad_array_new_lengthB7v160006v, symObjAddr: 0x2DD4, symBinAddr: 0x10000709C, symSize: 0x34 }
  - { offsetInCU: 0x15621, offset: 0x15621, size: 0x8, addend: 0x0, symName: __ZNSt3__16vectorIyNS_9allocatorIyEEE26__swap_out_circular_bufferERNS_14__split_bufferIyRS2_EEPy, symObjAddr: 0x4864, symBinAddr: 0x100008B2C, symSize: 0x154 }
  - { offsetInCU: 0x15682, offset: 0x15682, size: 0x8, addend: 0x0, symName: __ZNSt3__16vectorIyNS_9allocatorIyEEE26__swap_out_circular_bufferERNS_14__split_bufferIyRS2_EE, symObjAddr: 0x6334, symBinAddr: 0x10000A5FC, symSize: 0x118 }
  - { offsetInCU: 0x178FA, offset: 0x178FA, size: 0x8, addend: 0x0, symName: __Z15can_plus_mul_ityNSt3__16vectorIyNS_9allocatorIyEEEEb, symObjAddr: 0x0, symBinAddr: 0x1000042C8, symSize: 0x2F0 }
  - { offsetInCU: 0x17958, offset: 0x17958, size: 0x8, addend: 0x0, symName: __ZNKSt3__16vectorIyNS_9allocatorIyEEE5emptyB7v160006Ev, symObjAddr: 0x2F0, symBinAddr: 0x1000045B8, symSize: 0x28 }
  - { offsetInCU: 0x1797E, offset: 0x1797E, size: 0x8, addend: 0x0, symName: __ZNSt3__16vectorIyNS_9allocatorIyEEE4backB7v160006Ev, symObjAddr: 0x318, symBinAddr: 0x1000045E0, symSize: 0x1C }
  - { offsetInCU: 0x179A4, offset: 0x179A4, size: 0x8, addend: 0x0, symName: __ZNSt3__16vectorIyNS_9allocatorIyEEE5eraseB7v160006ENS_11__wrap_iterIPKyEE, symObjAddr: 0x334, symBinAddr: 0x1000045FC, symSize: 0xA4 }
  - { offsetInCU: 0x179F9, offset: 0x179F9, size: 0x8, addend: 0x0, symName: __ZNSt3__16vectorIyNS_9allocatorIyEEE3endB7v160006Ev, symObjAddr: 0x3D8, symBinAddr: 0x1000046A0, symSize: 0x30 }
  - { offsetInCU: 0x17A21, offset: 0x17A21, size: 0x8, addend: 0x0, symName: __ZNKSt3__111__wrap_iterIPyEmiB7v160006El, symObjAddr: 0x408, symBinAddr: 0x1000046D0, symSize: 0x3C }
  - { offsetInCU: 0x17A61, offset: 0x17A61, size: 0x8, addend: 0x0, symName: __ZNSt3__111__wrap_iterIPKyEC1B7v160006IPyEERKNS0_IT_EEPNS_9enable_ifIXsr14is_convertibleIS6_S2_EE5valueEvE4typeE, symObjAddr: 0x444, symBinAddr: 0x10000470C, symSize: 0x3C }
  - { offsetInCU: 0x17AAC, offset: 0x17AAC, size: 0x8, addend: 0x0, symName: __ZNSt3__16vectorIyNS_9allocatorIyEEEC1ERKS3_, symObjAddr: 0x480, symBinAddr: 0x100004748, symSize: 0x34 }
  - { offsetInCU: 0x17AE7, offset: 0x17AE7, size: 0x8, addend: 0x0, symName: __ZNSt3__16vectorIyNS_9allocatorIyEEED1B7v160006Ev, symObjAddr: 0x4B4, symBinAddr: 0x10000477C, symSize: 0x2C }
  - { offsetInCU: 0x17B10, offset: 0x17B10, size: 0x8, addend: 0x0, symName: __Z22can_plus_mul_append_ityNSt3__16vectorIyNS_9allocatorIyEEEE, symObjAddr: 0x4E0, symBinAddr: 0x1000047A8, symSize: 0x640 }
  - { offsetInCU: 0x17BBA, offset: 0x17BBA, size: 0x8, addend: 0x0, symName: __ZNKSt3__16vectorIyNS_9allocatorIyEEE4sizeB7v160006Ev, symObjAddr: 0xB20, symBinAddr: 0x100004DE8, symSize: 0x28 }
  - { offsetInCU: 0x17BE0, offset: 0x17BE0, size: 0x8, addend: 0x0, symName: __ZNSt3__16vectorIyNS_9allocatorIyEEE5frontB7v160006Ev, symObjAddr: 0xB48, symBinAddr: 0x100004E10, symSize: 0x18 }
  - { offsetInCU: 0x17C06, offset: 0x17C06, size: 0x8, addend: 0x0, symName: __ZNSt3__16vectorIyNS_9allocatorIyEEEC1B7v160006Ev, symObjAddr: 0xB60, symBinAddr: 0x100004E28, symSize: 0x2C }
  - { offsetInCU: 0x17C30, offset: 0x17C30, size: 0x8, addend: 0x0, symName: __ZNSt3__16vectorIyNS_9allocatorIyEEEaSB7v160006ERKS3_, symObjAddr: 0xB8C, symBinAddr: 0x100004E54, symSize: 0x68 }
  - { offsetInCU: 0x17C6D, offset: 0x17C6D, size: 0x8, addend: 0x0, symName: __ZNSt3__112basic_stringIcNS_11char_traitsIcEENS_9allocatorIcEEEC1B7v160006IDnEEPKc, symObjAddr: 0xBF4, symBinAddr: 0x100004EBC, symSize: 0x34 }
  - { offsetInCU: 0x17E3B, offset: 0x17E3B, size: 0x8, addend: 0x0, symName: __ZNSt3__118basic_stringstreamIcNS_11char_traitsIcEENS_9allocatorIcEEEC1B7v160006ERKNS_12basic_stringIcS2_S4_EEj, symObjAddr: 0xC28, symBinAddr: 0x100004EF0, symSize: 0x110 }
  - { offsetInCU: 0x17E83, offset: 0x17E83, size: 0x8, addend: 0x0, symName: __ZNSt3__16vectorIyNS_9allocatorIyEEE2atEm, symObjAddr: 0xD38, symBinAddr: 0x100005000, symSize: 0x60 }
  - { offsetInCU: 0x17EBA, offset: 0x17EBA, size: 0x8, addend: 0x0, symName: __ZNSt3__16vectorIyNS_9allocatorIyEEE5beginB7v160006Ev, symObjAddr: 0xD98, symBinAddr: 0x100005060, symSize: 0x30 }
  - { offsetInCU: 0x17EE2, offset: 0x17EE2, size: 0x8, addend: 0x0, symName: __ZNSt3__16vectorIyNS_9allocatorIyEEE6insertENS_11__wrap_iterIPKyEERS5_, symObjAddr: 0xDC8, symBinAddr: 0x100005090, symSize: 0x1FC }
  - { offsetInCU: 0x17F79, offset: 0x17F79, size: 0x8, addend: 0x0, symName: __ZNSt3__16vectorIyNS_9allocatorIyEEE6insertENS_11__wrap_iterIPKyEEOy, symObjAddr: 0xFC4, symBinAddr: 0x10000528C, symSize: 0x1AC }
  - { offsetInCU: 0x17FF9, offset: 0x17FF9, size: 0x8, addend: 0x0, symName: __ZNSt3__118basic_stringstreamIcNS_11char_traitsIcEENS_9allocatorIcEEED1Ev, symObjAddr: 0x1170, symBinAddr: 0x100005438, symSize: 0x40 }
  - { offsetInCU: 0x18026, offset: 0x18026, size: 0x8, addend: 0x0, symName: _main, symObjAddr: 0x11B0, symBinAddr: 0x100005478, symSize: 0x418 }
  - { offsetInCU: 0x181B2, offset: 0x181B2, size: 0x8, addend: 0x0, symName: __ZNSt3__114basic_ifstreamIcNS_11char_traitsIcEEEC1EPKcj, symObjAddr: 0x15C8, symBinAddr: 0x100005890, symSize: 0x16C }
  - { offsetInCU: 0x181FC, offset: 0x181FC, size: 0x8, addend: 0x0, symName: __ZNSt3__112basic_stringIcNS_11char_traitsIcEENS_9allocatorIcEEEC1B7v160006Ev, symObjAddr: 0x1734, symBinAddr: 0x1000059FC, symSize: 0x2C }
  - { offsetInCU: 0x18226, offset: 0x18226, size: 0x8, addend: 0x0, symName: __ZNKSt3__19basic_iosIcNS_11char_traitsIcEEEcvbB7v160006Ev, symObjAddr: 0x17BC, symBinAddr: 0x100005A84, symSize: 0x2C }
  - { offsetInCU: 0x1824C, offset: 0x1824C, size: 0x8, addend: 0x0, symName: __ZNKSt3__112basic_stringIcNS_11char_traitsIcEENS_9allocatorIcEEE13find_first_ofB7v160006Ecm, symObjAddr: 0x17E8, symBinAddr: 0x100005AB0, symSize: 0x34 }
  - { offsetInCU: 0x18292, offset: 0x18292, size: 0x8, addend: 0x0, symName: __ZNKSt3__112basic_stringIcNS_11char_traitsIcEENS_9allocatorIcEEE6substrB7v160006Emm, symObjAddr: 0x181C, symBinAddr: 0x100005AE4, symSize: 0x68 }
  - { offsetInCU: 0x182D6, offset: 0x182D6, size: 0x8, addend: 0x0, symName: __ZNKSt3__112basic_stringIcNS_11char_traitsIcEENS_9allocatorIcEEE4sizeB7v160006Ev, symObjAddr: 0x1884, symBinAddr: 0x100005B4C, symSize: 0x54 }
  - { offsetInCU: 0x182FC, offset: 0x182FC, size: 0x8, addend: 0x0, symName: __ZNSt3__16vectorIyNS_9allocatorIyEEE9push_backB7v160006ERKy, symObjAddr: 0x18D8, symBinAddr: 0x100005BA0, symSize: 0x6C }
  - { offsetInCU: 0x18333, offset: 0x18333, size: 0x8, addend: 0x0, symName: __ZNSt3__16vectorIyNS_9allocatorIyEEE5clearB7v160006Ev, symObjAddr: 0x1944, symBinAddr: 0x100005C0C, symSize: 0x4C }
  - { offsetInCU: 0x1836E, offset: 0x1836E, size: 0x8, addend: 0x0, symName: __ZNSt3__114basic_ifstreamIcNS_11char_traitsIcEEED1Ev, symObjAddr: 0x1990, symBinAddr: 0x100005C58, symSize: 0x40 }
  - { offsetInCU: 0x1839B, offset: 0x1839B, size: 0x8, addend: 0x0, symName: __ZNKSt3__16vectorIyNS_9allocatorIyEEE6cbeginB7v160006Ev, symObjAddr: 0x1A18, symBinAddr: 0x100005CE0, symSize: 0x2C }
  - { offsetInCU: 0x183C1, offset: 0x183C1, size: 0x8, addend: 0x0, symName: __ZNSt3__16vectorIyNS_9allocatorIyEEE17__destruct_at_endB7v160006EPy, symObjAddr: 0x1A44, symBinAddr: 0x100005D0C, symSize: 0x60 }
  - { offsetInCU: 0x18405, offset: 0x18405, size: 0x8, addend: 0x0, symName: __ZNSt3__16vectorIyNS_9allocatorIyEEE27__invalidate_iterators_pastB7v160006EPy, symObjAddr: 0x1AE4, symBinAddr: 0x100005DAC, symSize: 0x14 }
  - { offsetInCU: 0x1843C, offset: 0x1843C, size: 0x8, addend: 0x0, symName: __ZNSt3__16vectorIyNS_9allocatorIyEEE11__make_iterB7v160006EPy, symObjAddr: 0x1AF8, symBinAddr: 0x100005DC0, symSize: 0x34 }
  - { offsetInCU: 0x18471, offset: 0x18471, size: 0x8, addend: 0x0, symName: __ZNKSt3__111__wrap_iterIPKyE4baseB7v160006Ev, symObjAddr: 0x1B2C, symBinAddr: 0x100005DF4, symSize: 0x18 }
  - { offsetInCU: 0x18497, offset: 0x18497, size: 0x8, addend: 0x0, symName: __ZNKSt3__16vectorIyNS_9allocatorIyEEE5beginB7v160006Ev, symObjAddr: 0x1B44, symBinAddr: 0x100005E0C, symSize: 0x30 }
  - { offsetInCU: 0x184BF, offset: 0x184BF, size: 0x8, addend: 0x0, symName: __ZNKSt3__16vectorIyNS_9allocatorIyEEE11__make_iterB7v160006EPKy, symObjAddr: 0x1B74, symBinAddr: 0x100005E3C, symSize: 0x34 }
  - { offsetInCU: 0x184F4, offset: 0x184F4, size: 0x8, addend: 0x0, symName: __ZNSt3__111__wrap_iterIPKyEC1B7v160006EPKvS2_, symObjAddr: 0x1BA8, symBinAddr: 0x100005E70, symSize: 0x3C }
  - { offsetInCU: 0x1853A, offset: 0x1853A, size: 0x8, addend: 0x0, symName: __ZNSt3__111__wrap_iterIPKyEC2B7v160006EPKvS2_, symObjAddr: 0x1BE4, symBinAddr: 0x100005EAC, symSize: 0x24 }
  - { offsetInCU: 0x18580, offset: 0x18580, size: 0x8, addend: 0x0, symName: __ZNSt3__16vectorIyNS_9allocatorIyEEE22__base_destruct_at_endB7v160006EPy, symObjAddr: 0x1C14, symBinAddr: 0x100005EDC, symSize: 0x8C }
  - { offsetInCU: 0x185C4, offset: 0x185C4, size: 0x8, addend: 0x0, symName: __ZNKSt3__16vectorIyNS_9allocatorIyEEE17__annotate_shrinkB7v160006Em, symObjAddr: 0x1CA0, symBinAddr: 0x100005F68, symSize: 0xB4 }
  - { offsetInCU: 0x185F9, offset: 0x185F9, size: 0x8, addend: 0x0, symName: __ZNSt3__116allocator_traitsINS_9allocatorIyEEE7destroyB7v160006IyvvEEvRS2_PT_, symObjAddr: 0x1D54, symBinAddr: 0x10000601C, symSize: 0x28 }
  - { offsetInCU: 0x18633, offset: 0x18633, size: 0x8, addend: 0x0, symName: __ZNSt3__16vectorIyNS_9allocatorIyEEE7__allocB7v160006Ev, symObjAddr: 0x1D7C, symBinAddr: 0x100006044, symSize: 0x28 }
  - { offsetInCU: 0x18659, offset: 0x18659, size: 0x8, addend: 0x0, symName: __ZNSt3__117__compressed_pairIPyNS_9allocatorIyEEE6secondB7v160006Ev, symObjAddr: 0x1DEC, symBinAddr: 0x1000060B4, symSize: 0x24 }
  - { offsetInCU: 0x1867F, offset: 0x1867F, size: 0x8, addend: 0x0, symName: __ZNSt3__122__compressed_pair_elemINS_9allocatorIyEELi1ELb1EE5__getB7v160006Ev, symObjAddr: 0x1E10, symBinAddr: 0x1000060D8, symSize: 0x14 }
  - { offsetInCU: 0x186A5, offset: 0x186A5, size: 0x8, addend: 0x0, symName: __ZNKSt3__16vectorIyNS_9allocatorIyEEE31__annotate_contiguous_containerB7v160006EPKvS5_S5_S5_, symObjAddr: 0x1E24, symBinAddr: 0x1000060EC, symSize: 0x20 }
  - { offsetInCU: 0x186F7, offset: 0x186F7, size: 0x8, addend: 0x0, symName: __ZNKSt3__16vectorIyNS_9allocatorIyEEE4dataB7v160006Ev, symObjAddr: 0x1E44, symBinAddr: 0x10000610C, symSize: 0x28 }
  - { offsetInCU: 0x1871D, offset: 0x1871D, size: 0x8, addend: 0x0, symName: __ZNKSt3__16vectorIyNS_9allocatorIyEEE8capacityB7v160006Ev, symObjAddr: 0x1E6C, symBinAddr: 0x100006134, symSize: 0x40 }
  - { offsetInCU: 0x18743, offset: 0x18743, size: 0x8, addend: 0x0, symName: __ZNKSt3__16vectorIyNS_9allocatorIyEEE9__end_capB7v160006Ev, symObjAddr: 0x1EAC, symBinAddr: 0x100006174, symSize: 0x28 }
  - { offsetInCU: 0x18769, offset: 0x18769, size: 0x8, addend: 0x0, symName: __ZNKSt3__117__compressed_pairIPyNS_9allocatorIyEEE5firstB7v160006Ev, symObjAddr: 0x1ED4, symBinAddr: 0x10000619C, symSize: 0x24 }
  - { offsetInCU: 0x1878F, offset: 0x1878F, size: 0x8, addend: 0x0, symName: __ZNKSt3__122__compressed_pair_elemIPyLi0ELb0EE5__getB7v160006Ev, symObjAddr: 0x1EF8, symBinAddr: 0x1000061C0, symSize: 0x14 }
  - { offsetInCU: 0x187DD, offset: 0x187DD, size: 0x8, addend: 0x0, symName: __ZNKSt3__114__move_trivialclB7v160006IyyLi0EEENS_4pairIPT_PT0_EES4_S4_S6_, symObjAddr: 0x2084, symBinAddr: 0x10000634C, symSize: 0x48 }
  - { offsetInCU: 0x18845, offset: 0x18845, size: 0x8, addend: 0x0, symName: __ZNSt3__119__unwrap_range_implIPyS1_E8__unwrapB7v160006ES1_S1_, symObjAddr: 0x2190, symBinAddr: 0x100006458, symSize: 0x58 }
  - { offsetInCU: 0x1887C, offset: 0x1887C, size: 0x8, addend: 0x0, symName: __ZNSt3__14pairIPyS1_EC1B7v160006IS1_S1_LPv0EEEOT_OT0_, symObjAddr: 0x21E8, symBinAddr: 0x1000064B0, symSize: 0x3C }
  - { offsetInCU: 0x188DA, offset: 0x188DA, size: 0x8, addend: 0x0, symName: __ZNSt3__14pairIPyS1_EC2B7v160006IS1_S1_LPv0EEEOT_OT0_, symObjAddr: 0x2224, symBinAddr: 0x1000064EC, symSize: 0x34 }
  - { offsetInCU: 0x18938, offset: 0x18938, size: 0x8, addend: 0x0, symName: __ZNSt3__14pairIPyS1_EC1B7v160006IRS1_S1_LPv0EEEOT_OT0_, symObjAddr: 0x2314, symBinAddr: 0x1000065DC, symSize: 0x3C }
  - { offsetInCU: 0x18996, offset: 0x18996, size: 0x8, addend: 0x0, symName: __ZNSt3__14pairIPyS1_EC2B7v160006IRS1_S1_LPv0EEEOT_OT0_, symObjAddr: 0x2350, symBinAddr: 0x100006618, symSize: 0x34 }
  - { offsetInCU: 0x189F4, offset: 0x189F4, size: 0x8, addend: 0x0, symName: __ZNSt3__118__unwrap_iter_implIPyLb1EE8__unwrapB7v160006ES1_, symObjAddr: 0x2384, symBinAddr: 0x10000664C, symSize: 0x24 }
  - { offsetInCU: 0x18A17, offset: 0x18A17, size: 0x8, addend: 0x0, symName: __ZNSt3__119__unwrap_range_implIPyS1_E8__rewrapB7v160006ES1_S1_, symObjAddr: 0x23A8, symBinAddr: 0x100006670, symSize: 0x2C }
  - { offsetInCU: 0x18A48, offset: 0x18A48, size: 0x8, addend: 0x0, symName: __ZNSt3__118__unwrap_iter_implIPyLb1EE8__rewrapB7v160006ES1_S1_, symObjAddr: 0x23D4, symBinAddr: 0x10000669C, symSize: 0x50 }
  - { offsetInCU: 0x18A79, offset: 0x18A79, size: 0x8, addend: 0x0, symName: __ZNSt3__111__wrap_iterIPyEC1B7v160006EPKvS1_, symObjAddr: 0x2424, symBinAddr: 0x1000066EC, symSize: 0x3C }
  - { offsetInCU: 0x18ABF, offset: 0x18ABF, size: 0x8, addend: 0x0, symName: __ZNSt3__111__wrap_iterIPyEC2B7v160006EPKvS1_, symObjAddr: 0x2460, symBinAddr: 0x100006728, symSize: 0x24 }
  - { offsetInCU: 0x18B05, offset: 0x18B05, size: 0x8, addend: 0x0, symName: __ZNKSt3__111__wrap_iterIPyEplB7v160006El, symObjAddr: 0x2484, symBinAddr: 0x10000674C, symSize: 0x3C }
  - { offsetInCU: 0x18B47, offset: 0x18B47, size: 0x8, addend: 0x0, symName: __ZNSt3__111__wrap_iterIPyEpLB7v160006El, symObjAddr: 0x24C0, symBinAddr: 0x100006788, symSize: 0x28 }
  - { offsetInCU: 0x18B7B, offset: 0x18B7B, size: 0x8, addend: 0x0, symName: __ZNSt3__111__wrap_iterIPKyEC2B7v160006IPyEERKNS0_IT_EEPNS_9enable_ifIXsr14is_convertibleIS6_S2_EE5valueEvE4typeE, symObjAddr: 0x24E8, symBinAddr: 0x1000067B0, symSize: 0x40 }
  - { offsetInCU: 0x18BC6, offset: 0x18BC6, size: 0x8, addend: 0x0, symName: __ZNKSt3__111__wrap_iterIPyE4baseB7v160006Ev, symObjAddr: 0x2528, symBinAddr: 0x1000067F0, symSize: 0x18 }
  - { offsetInCU: 0x18BEC, offset: 0x18BEC, size: 0x8, addend: 0x0, symName: __ZNSt3__16vectorIyNS_9allocatorIyEEEC2ERKS3_, symObjAddr: 0x2540, symBinAddr: 0x100006808, symSize: 0x114 }
  - { offsetInCU: 0x18C56, offset: 0x18C56, size: 0x8, addend: 0x0, symName: __ZNSt3__116allocator_traitsINS_9allocatorIyEEE37select_on_container_copy_constructionB7v160006IS2_vvEES2_RKS2_, symObjAddr: 0x2654, symBinAddr: 0x10000691C, symSize: 0x10 }
  - { offsetInCU: 0x18C85, offset: 0x18C85, size: 0x8, addend: 0x0, symName: __ZNKSt3__16vectorIyNS_9allocatorIyEEE7__allocB7v160006Ev, symObjAddr: 0x2664, symBinAddr: 0x10000692C, symSize: 0x28 }
  - { offsetInCU: 0x18CB7, offset: 0x18CB7, size: 0x8, addend: 0x0, symName: __ZNSt3__117__compressed_pairIPyNS_9allocatorIyEEEC1B7v160006IDnS3_EEOT_OT0_, symObjAddr: 0x268C, symBinAddr: 0x100006954, symSize: 0x3C }
  - { offsetInCU: 0x18D0F, offset: 0x18D0F, size: 0x8, addend: 0x0, symName: __ZNSt3__16vectorIyNS_9allocatorIyEEE16__destroy_vectorC1ERS3_, symObjAddr: 0x2708, symBinAddr: 0x1000069D0, symSize: 0x34 }
  - { offsetInCU: 0x18D48, offset: 0x18D48, size: 0x8, addend: 0x0, symName: __ZNSt3__16vectorIyNS_9allocatorIyEEE11__vallocateB7v160006Em, symObjAddr: 0x274C, symBinAddr: 0x100006A14, symSize: 0xAC }
  - { offsetInCU: 0x18D8C, offset: 0x18D8C, size: 0x8, addend: 0x0, symName: __ZNSt3__16vectorIyNS_9allocatorIyEEE18__construct_at_endIPyLi0EEEvT_S6_m, symObjAddr: 0x27F8, symBinAddr: 0x100006AC0, symSize: 0x8C }
  - { offsetInCU: 0x18DFF, offset: 0x18DFF, size: 0x8, addend: 0x0, symName: __ZNSt3__128__exception_guard_exceptionsINS_6vectorIyNS_9allocatorIyEEE16__destroy_vectorEE10__completeB7v160006Ev, symObjAddr: 0x2884, symBinAddr: 0x100006B4C, symSize: 0x1C }
  - { offsetInCU: 0x18E25, offset: 0x18E25, size: 0x8, addend: 0x0, symName: __ZNSt3__128__exception_guard_exceptionsINS_6vectorIyNS_9allocatorIyEEE16__destroy_vectorEED1B7v160006Ev, symObjAddr: 0x28A0, symBinAddr: 0x100006B68, symSize: 0x2C }
  - { offsetInCU: 0x18E4F, offset: 0x18E4F, size: 0x8, addend: 0x0, symName: __ZNKSt3__117__compressed_pairIPyNS_9allocatorIyEEE6secondB7v160006Ev, symObjAddr: 0x28CC, symBinAddr: 0x100006B94, symSize: 0x24 }
  - { offsetInCU: 0x18E75, offset: 0x18E75, size: 0x8, addend: 0x0, symName: __ZNKSt3__122__compressed_pair_elemINS_9allocatorIyEELi1ELb1EE5__getB7v160006Ev, symObjAddr: 0x28F0, symBinAddr: 0x100006BB8, symSize: 0x14 }
  - { offsetInCU: 0x18E9B, offset: 0x18E9B, size: 0x8, addend: 0x0, symName: __ZNSt3__117__compressed_pairIPyNS_9allocatorIyEEEC2B7v160006IDnS3_EEOT_OT0_, symObjAddr: 0x2904, symBinAddr: 0x100006BCC, symSize: 0x44 }
  - { offsetInCU: 0x18EF3, offset: 0x18EF3, size: 0x8, addend: 0x0, symName: __ZNSt3__122__compressed_pair_elemIPyLi0ELb0EEC2B7v160006IDnvEEOT_, symObjAddr: 0x2948, symBinAddr: 0x100006C10, symSize: 0x1C }
  - { offsetInCU: 0x18F35, offset: 0x18F35, size: 0x8, addend: 0x0, symName: __ZNSt3__122__compressed_pair_elemINS_9allocatorIyEELi1ELb1EEC2B7v160006IS2_vEEOT_, symObjAddr: 0x2964, symBinAddr: 0x100006C2C, symSize: 0x18 }
  - { offsetInCU: 0x18F77, offset: 0x18F77, size: 0x8, addend: 0x0, symName: __ZNSt3__128__exception_guard_exceptionsINS_6vectorIyNS_9allocatorIyEEE16__destroy_vectorEEC1B7v160006ES5_, symObjAddr: 0x297C, symBinAddr: 0x100006C44, symSize: 0x34 }
  - { offsetInCU: 0x18FAF, offset: 0x18FAF, size: 0x8, addend: 0x0, symName: __ZNSt3__128__exception_guard_exceptionsINS_6vectorIyNS_9allocatorIyEEE16__destroy_vectorEEC2B7v160006ES5_, symObjAddr: 0x29B0, symBinAddr: 0x100006C78, symSize: 0x24 }
  - { offsetInCU: 0x18FE7, offset: 0x18FE7, size: 0x8, addend: 0x0, symName: __ZNSt3__16vectorIyNS_9allocatorIyEEE16__destroy_vectorC2ERS3_, symObjAddr: 0x29D4, symBinAddr: 0x100006C9C, symSize: 0x20 }
  - { offsetInCU: 0x19020, offset: 0x19020, size: 0x8, addend: 0x0, symName: __ZNKSt3__16vectorIyNS_9allocatorIyEEE8max_sizeEv, symObjAddr: 0x29F4, symBinAddr: 0x100006CBC, symSize: 0x60 }
  - { offsetInCU: 0x19048, offset: 0x19048, size: 0x8, addend: 0x0, symName: __ZNKSt3__16vectorIyNS_9allocatorIyEEE20__throw_length_errorB7v160006Ev, symObjAddr: 0x2A54, symBinAddr: 0x100006D1C, symSize: 0x1C }
  - { offsetInCU: 0x1906E, offset: 0x1906E, size: 0x8, addend: 0x0, symName: __ZNSt3__16vectorIyNS_9allocatorIyEEE9__end_capB7v160006Ev, symObjAddr: 0x2AB0, symBinAddr: 0x100006D78, symSize: 0x28 }
  - { offsetInCU: 0x19094, offset: 0x19094, size: 0x8, addend: 0x0, symName: __ZNKSt3__16vectorIyNS_9allocatorIyEEE14__annotate_newB7v160006Em, symObjAddr: 0x2AD8, symBinAddr: 0x100006DA0, symSize: 0xAC }
  - { offsetInCU: 0x190C9, offset: 0x190C9, size: 0x8, addend: 0x0, symName: __ZNSt3__116allocator_traitsINS_9allocatorIyEEE8max_sizeB7v160006IS2_vvEEmRKS2_, symObjAddr: 0x2BB0, symBinAddr: 0x100006E78, symSize: 0x28 }
  - { offsetInCU: 0x190F4, offset: 0x190F4, size: 0x8, addend: 0x0, symName: __ZNSt3__114numeric_limitsIlE3maxB7v160006Ev, symObjAddr: 0x2BD8, symBinAddr: 0x100006EA0, symSize: 0x14 }
  - { offsetInCU: 0x1911E, offset: 0x1911E, size: 0x8, addend: 0x0, symName: __ZNKSt3__16__lessImmEclB7v160006ERKmS3_, symObjAddr: 0x2C40, symBinAddr: 0x100006F08, symSize: 0x34 }
  - { offsetInCU: 0x19160, offset: 0x19160, size: 0x8, addend: 0x0, symName: __ZNSt3__114numeric_limitsImE3maxB7v160006Ev, symObjAddr: 0x2C74, symBinAddr: 0x100006F3C, symSize: 0x14 }
  - { offsetInCU: 0x19174, offset: 0x19174, size: 0x8, addend: 0x0, symName: __ZNSt3__123__libcpp_numeric_limitsImLb1EE3maxB7v160006Ev, symObjAddr: 0x2C88, symBinAddr: 0x100006F50, symSize: 0x8 }
  - { offsetInCU: 0x19188, offset: 0x19188, size: 0x8, addend: 0x0, symName: __ZNSt3__123__libcpp_numeric_limitsIlLb1EE3maxB7v160006Ev, symObjAddr: 0x2C90, symBinAddr: 0x100006F58, symSize: 0x8 }
  - { offsetInCU: 0x1919C, offset: 0x1919C, size: 0x8, addend: 0x0, symName: __ZNSt12length_errorC1B7v160006EPKc, symObjAddr: 0x2CFC, symBinAddr: 0x100006FC4, symSize: 0x34 }
  - { offsetInCU: 0x191D4, offset: 0x191D4, size: 0x8, addend: 0x0, symName: __ZNSt12length_errorC2B7v160006EPKc, symObjAddr: 0x2D30, symBinAddr: 0x100006FF8, symSize: 0x4C }
  - { offsetInCU: 0x1920C, offset: 0x1920C, size: 0x8, addend: 0x0, symName: __ZNSt3__19allocatorIyE8allocateB7v160006Em, symObjAddr: 0x2D7C, symBinAddr: 0x100007044, symSize: 0x58 }
  - { offsetInCU: 0x19240, offset: 0x19240, size: 0x8, addend: 0x0, symName: __ZNSt3__117__compressed_pairIPyNS_9allocatorIyEEE5firstB7v160006Ev, symObjAddr: 0x2ED8, symBinAddr: 0x1000071A0, symSize: 0x24 }
  - { offsetInCU: 0x19266, offset: 0x19266, size: 0x8, addend: 0x0, symName: __ZNSt3__122__compressed_pair_elemIPyLi0ELb0EE5__getB7v160006Ev, symObjAddr: 0x2EFC, symBinAddr: 0x1000071C4, symSize: 0x14 }
  - { offsetInCU: 0x192A8, offset: 0x192A8, size: 0x8, addend: 0x0, symName: __ZNSt3__16vectorIyNS_9allocatorIyEEE21_ConstructTransactionC1B7v160006ERS3_m, symObjAddr: 0x2F10, symBinAddr: 0x1000071D8, symSize: 0x3C }
  - { offsetInCU: 0x192F0, offset: 0x192F0, size: 0x8, addend: 0x0, symName: __ZNSt3__16vectorIyNS_9allocatorIyEEE21_ConstructTransactionD1B7v160006Ev, symObjAddr: 0x3040, symBinAddr: 0x100007308, symSize: 0x2C }
  - { offsetInCU: 0x1931A, offset: 0x1931A, size: 0x8, addend: 0x0, symName: __ZNSt3__16vectorIyNS_9allocatorIyEEE21_ConstructTransactionC2B7v160006ERS3_m, symObjAddr: 0x306C, symBinAddr: 0x100007334, symSize: 0x44 }
  - { offsetInCU: 0x19362, offset: 0x19362, size: 0x8, addend: 0x0, symName: __ZNSt3__129_AllocatorDestroyRangeReverseINS_9allocatorIyEEPyEC1B7v160006ERS2_RS3_S6_, symObjAddr: 0x30FC, symBinAddr: 0x1000073C4, symSize: 0x44 }
  - { offsetInCU: 0x193B9, offset: 0x193B9, size: 0x8, addend: 0x0, symName: __ZNSt3__116allocator_traitsINS_9allocatorIyEEE9constructB7v160006IyJRyEvvEEvRS2_PT_DpOT0_, symObjAddr: 0x3140, symBinAddr: 0x100007408, symSize: 0x30 }
  - { offsetInCU: 0x1940D, offset: 0x1940D, size: 0x8, addend: 0x0, symName: __ZNSt3__128__exception_guard_exceptionsINS_29_AllocatorDestroyRangeReverseINS_9allocatorIyEEPyEEE10__completeB7v160006Ev, symObjAddr: 0x3170, symBinAddr: 0x100007438, symSize: 0x1C }
  - { offsetInCU: 0x19433, offset: 0x19433, size: 0x8, addend: 0x0, symName: __ZNSt3__128__exception_guard_exceptionsINS_29_AllocatorDestroyRangeReverseINS_9allocatorIyEEPyEEED1B7v160006Ev, symObjAddr: 0x318C, symBinAddr: 0x100007454, symSize: 0x2C }
  - { offsetInCU: 0x1945D, offset: 0x1945D, size: 0x8, addend: 0x0, symName: __ZNSt3__128__exception_guard_exceptionsINS_29_AllocatorDestroyRangeReverseINS_9allocatorIyEEPyEEEC1B7v160006ES5_, symObjAddr: 0x31B8, symBinAddr: 0x100007480, symSize: 0x34 }
  - { offsetInCU: 0x19496, offset: 0x19496, size: 0x8, addend: 0x0, symName: __ZNSt3__128__exception_guard_exceptionsINS_29_AllocatorDestroyRangeReverseINS_9allocatorIyEEPyEEEC2B7v160006ES5_, symObjAddr: 0x31EC, symBinAddr: 0x1000074B4, symSize: 0x30 }
  - { offsetInCU: 0x194CF, offset: 0x194CF, size: 0x8, addend: 0x0, symName: __ZNSt3__129_AllocatorDestroyRangeReverseINS_9allocatorIyEEPyEC2B7v160006ERS2_RS3_S6_, symObjAddr: 0x321C, symBinAddr: 0x1000074E4, symSize: 0x38 }
  - { offsetInCU: 0x19526, offset: 0x19526, size: 0x8, addend: 0x0, symName: __ZNSt3__128__exception_guard_exceptionsINS_29_AllocatorDestroyRangeReverseINS_9allocatorIyEEPyEEED2B7v160006Ev, symObjAddr: 0x3280, symBinAddr: 0x100007548, symSize: 0x50 }
  - { offsetInCU: 0x19550, offset: 0x19550, size: 0x8, addend: 0x0, symName: __ZNKSt3__129_AllocatorDestroyRangeReverseINS_9allocatorIyEEPyEclB7v160006Ev, symObjAddr: 0x32D0, symBinAddr: 0x100007598, symSize: 0x68 }
  - { offsetInCU: 0x19576, offset: 0x19576, size: 0x8, addend: 0x0, symName: __ZNSt3__116reverse_iteratorIPyEC1B7v160006ES1_, symObjAddr: 0x33A8, symBinAddr: 0x100007670, symSize: 0x34 }
  - { offsetInCU: 0x195AE, offset: 0x195AE, size: 0x8, addend: 0x0, symName: __ZNSt3__116reverse_iteratorIPyEppB7v160006Ev, symObjAddr: 0x3448, symBinAddr: 0x100007710, symSize: 0x20 }
  - { offsetInCU: 0x195D4, offset: 0x195D4, size: 0x8, addend: 0x0, symName: __ZNKSt3__116reverse_iteratorIPyE4baseB7v160006Ev, symObjAddr: 0x3468, symBinAddr: 0x100007730, symSize: 0x18 }
  - { offsetInCU: 0x19600, offset: 0x19600, size: 0x8, addend: 0x0, symName: __ZNSt3__119__to_address_helperINS_16reverse_iteratorIPyEEvE6__callB7v160006ERKS3_, symObjAddr: 0x3480, symBinAddr: 0x100007748, symSize: 0x38 }
  - { offsetInCU: 0x19623, offset: 0x19623, size: 0x8, addend: 0x0, symName: __ZNKSt3__116reverse_iteratorIPyEptB7v160006Ev, symObjAddr: 0x34B8, symBinAddr: 0x100007780, symSize: 0x2C }
  - { offsetInCU: 0x19649, offset: 0x19649, size: 0x8, addend: 0x0, symName: __ZNSt3__116reverse_iteratorIPyEC2B7v160006ES1_, symObjAddr: 0x35C0, symBinAddr: 0x100007888, symSize: 0x28 }
  - { offsetInCU: 0x19681, offset: 0x19681, size: 0x8, addend: 0x0, symName: __ZNSt3__16vectorIyNS_9allocatorIyEEE21_ConstructTransactionD2B7v160006Ev, symObjAddr: 0x35E8, symBinAddr: 0x1000078B0, symSize: 0x20 }
  - { offsetInCU: 0x196AB, offset: 0x196AB, size: 0x8, addend: 0x0, symName: __ZNSt3__128__exception_guard_exceptionsINS_6vectorIyNS_9allocatorIyEEE16__destroy_vectorEED2B7v160006Ev, symObjAddr: 0x3608, symBinAddr: 0x1000078D0, symSize: 0x50 }
  - { offsetInCU: 0x196D5, offset: 0x196D5, size: 0x8, addend: 0x0, symName: __ZNSt3__16vectorIyNS_9allocatorIyEEE16__destroy_vectorclB7v160006Ev, symObjAddr: 0x3658, symBinAddr: 0x100007920, symSize: 0x9C }
  - { offsetInCU: 0x196FB, offset: 0x196FB, size: 0x8, addend: 0x0, symName: __ZNKSt3__16vectorIyNS_9allocatorIyEEE17__annotate_deleteB7v160006Ev, symObjAddr: 0x36F4, symBinAddr: 0x1000079BC, symSize: 0xB8 }
  - { offsetInCU: 0x19721, offset: 0x19721, size: 0x8, addend: 0x0, symName: __ZNSt3__16vectorIyNS_9allocatorIyEEE7__clearB7v160006Ev, symObjAddr: 0x37BC, symBinAddr: 0x100007A84, symSize: 0x28 }
  - { offsetInCU: 0x19747, offset: 0x19747, size: 0x8, addend: 0x0, symName: __ZNSt3__116allocator_traitsINS_9allocatorIyEEE10deallocateB7v160006ERS2_Pym, symObjAddr: 0x37E4, symBinAddr: 0x100007AAC, symSize: 0x34 }
  - { offsetInCU: 0x19789, offset: 0x19789, size: 0x8, addend: 0x0, symName: __ZNSt3__19allocatorIyE10deallocateB7v160006EPym, symObjAddr: 0x3818, symBinAddr: 0x100007AE0, symSize: 0x40 }
  - { offsetInCU: 0x197CB, offset: 0x197CB, size: 0x8, addend: 0x0, symName: __ZNSt3__16vectorIyNS_9allocatorIyEEED2B7v160006Ev, symObjAddr: 0x3960, symBinAddr: 0x100007C28, symSize: 0x44 }
  - { offsetInCU: 0x197F5, offset: 0x197F5, size: 0x8, addend: 0x0, symName: __ZNSt3__16vectorIyNS_9allocatorIyEEEC2B7v160006Ev, symObjAddr: 0x39A4, symBinAddr: 0x100007C6C, symSize: 0x54 }
  - { offsetInCU: 0x19825, offset: 0x19825, size: 0x8, addend: 0x0, symName: __ZNSt3__117__compressed_pairIPyNS_9allocatorIyEEEC1B7v160006IDnNS_18__default_init_tagEEEOT_OT0_, symObjAddr: 0x39F8, symBinAddr: 0x100007CC0, symSize: 0x3C }
  - { offsetInCU: 0x1987D, offset: 0x1987D, size: 0x8, addend: 0x0, symName: __ZNSt3__117__compressed_pairIPyNS_9allocatorIyEEEC2B7v160006IDnNS_18__default_init_tagEEEOT_OT0_, symObjAddr: 0x3A34, symBinAddr: 0x100007CFC, symSize: 0x40 }
  - { offsetInCU: 0x198D5, offset: 0x198D5, size: 0x8, addend: 0x0, symName: __ZNSt3__122__compressed_pair_elemINS_9allocatorIyEELi1ELb1EEC2B7v160006ENS_18__default_init_tagE, symObjAddr: 0x3A74, symBinAddr: 0x100007D3C, symSize: 0x2C }
  - { offsetInCU: 0x19909, offset: 0x19909, size: 0x8, addend: 0x0, symName: __ZNSt3__19allocatorIyEC2B7v160006Ev, symObjAddr: 0x3AA0, symBinAddr: 0x100007D68, symSize: 0x2C }
  - { offsetInCU: 0x19933, offset: 0x19933, size: 0x8, addend: 0x0, symName: __ZNSt3__116__non_trivial_ifILb1ENS_9allocatorIyEEEC2B7v160006Ev, symObjAddr: 0x3ACC, symBinAddr: 0x100007D94, symSize: 0x14 }
  - { offsetInCU: 0x1995D, offset: 0x1995D, size: 0x8, addend: 0x0, symName: __ZNSt3__16vectorIyNS_9allocatorIyEEE19__copy_assign_allocB7v160006ERKS3_, symObjAddr: 0x3AE0, symBinAddr: 0x100007DA8, symSize: 0x2C }
  - { offsetInCU: 0x19992, offset: 0x19992, size: 0x8, addend: 0x0, symName: __ZNSt3__16vectorIyNS_9allocatorIyEEE6assignIPyLi0EEEvT_S6_, symObjAddr: 0x3B0C, symBinAddr: 0x100007DD4, symSize: 0x17C }
  - { offsetInCU: 0x19A31, offset: 0x19A31, size: 0x8, addend: 0x0, symName: __ZNSt3__16vectorIyNS_9allocatorIyEEE19__copy_assign_allocB7v160006ERKS3_NS_17integral_constantIbLb0EEE, symObjAddr: 0x3C88, symBinAddr: 0x100007F50, symSize: 0x14 }
  - { offsetInCU: 0x19A6D, offset: 0x19A6D, size: 0x8, addend: 0x0, symName: __ZNSt3__16vectorIyNS_9allocatorIyEEE13__vdeallocateEv, symObjAddr: 0x3D58, symBinAddr: 0x100008020, symSize: 0x8C }
  - { offsetInCU: 0x19A95, offset: 0x19A95, size: 0x8, addend: 0x0, symName: __ZNKSt3__16vectorIyNS_9allocatorIyEEE11__recommendB7v160006Em, symObjAddr: 0x3DE4, symBinAddr: 0x1000080AC, symSize: 0xB4 }
  - { offsetInCU: 0x19AF5, offset: 0x19AF5, size: 0x8, addend: 0x0, symName: __ZNKSt3__114__copy_trivialclB7v160006IyyLi0EEENS_4pairIPT_PT0_EES4_S4_S6_, symObjAddr: 0x4020, symBinAddr: 0x1000082E8, symSize: 0x48 }
  - { offsetInCU: 0x19B5D, offset: 0x19B5D, size: 0x8, addend: 0x0, symName: __ZNSt3__112basic_stringIcNS_11char_traitsIcEENS_9allocatorIcEEEC2B7v160006IDnEEPKc, symObjAddr: 0x40E8, symBinAddr: 0x1000083B0, symSize: 0x60 }
  - { offsetInCU: 0x19B9B, offset: 0x19B9B, size: 0x8, addend: 0x0, symName: __ZNSt3__117__compressed_pairINS_12basic_stringIcNS_11char_traitsIcEENS_9allocatorIcEEE5__repES5_EC1B7v160006INS_18__default_init_tagESA_EEOT_OT0_, symObjAddr: 0x4148, symBinAddr: 0x100008410, symSize: 0x3C }
  - { offsetInCU: 0x19BF3, offset: 0x19BF3, size: 0x8, addend: 0x0, symName: __ZNSt3__111char_traitsIcE6lengthEPKc, symObjAddr: 0x4184, symBinAddr: 0x10000844C, symSize: 0x34 }
  - { offsetInCU: 0x19C16, offset: 0x19C16, size: 0x8, addend: 0x0, symName: __ZNSt3__117__compressed_pairINS_12basic_stringIcNS_11char_traitsIcEENS_9allocatorIcEEE5__repES5_EC2B7v160006INS_18__default_init_tagESA_EEOT_OT0_, symObjAddr: 0x41C8, symBinAddr: 0x100008490, symSize: 0x3C }
  - { offsetInCU: 0x19C6E, offset: 0x19C6E, size: 0x8, addend: 0x0, symName: __ZNSt3__122__compressed_pair_elemINS_12basic_stringIcNS_11char_traitsIcEENS_9allocatorIcEEE5__repELi0ELb0EEC2B7v160006ENS_18__default_init_tagE, symObjAddr: 0x4204, symBinAddr: 0x1000084CC, symSize: 0x14 }
  - { offsetInCU: 0x19CA2, offset: 0x19CA2, size: 0x8, addend: 0x0, symName: __ZNSt3__122__compressed_pair_elemINS_9allocatorIcEELi1ELb1EEC2B7v160006ENS_18__default_init_tagE, symObjAddr: 0x4218, symBinAddr: 0x1000084E0, symSize: 0x2C }
  - { offsetInCU: 0x19CD6, offset: 0x19CD6, size: 0x8, addend: 0x0, symName: __ZNSt3__19allocatorIcEC2B7v160006Ev, symObjAddr: 0x4244, symBinAddr: 0x10000850C, symSize: 0x2C }
  - { offsetInCU: 0x19D00, offset: 0x19D00, size: 0x8, addend: 0x0, symName: __ZNSt3__116__non_trivial_ifILb1ENS_9allocatorIcEEEC2B7v160006Ev, symObjAddr: 0x4270, symBinAddr: 0x100008538, symSize: 0x14 }
  - { offsetInCU: 0x19D2A, offset: 0x19D2A, size: 0x8, addend: 0x0, symName: __ZNKSt3__16vectorIyNS_9allocatorIyEEE20__throw_out_of_rangeB7v160006Ev, symObjAddr: 0x42A8, symBinAddr: 0x100008570, symSize: 0x1C }
  - { offsetInCU: 0x19D50, offset: 0x19D50, size: 0x8, addend: 0x0, symName: __ZNSt12out_of_rangeC1B7v160006EPKc, symObjAddr: 0x4328, symBinAddr: 0x1000085F0, symSize: 0x34 }
  - { offsetInCU: 0x19D88, offset: 0x19D88, size: 0x8, addend: 0x0, symName: __ZNSt12out_of_rangeC2B7v160006EPKc, symObjAddr: 0x435C, symBinAddr: 0x100008624, symSize: 0x4C }
  - { offsetInCU: 0x19DC0, offset: 0x19DC0, size: 0x8, addend: 0x0, symName: __ZNSt3__16vectorIyNS_9allocatorIyEEE22__construct_one_at_endB7v160006IJRKyEEEvDpOT_, symObjAddr: 0x43F0, symBinAddr: 0x1000086B8, symSize: 0x90 }
  - { offsetInCU: 0x19E0F, offset: 0x19E0F, size: 0x8, addend: 0x0, symName: __ZNSt3__16vectorIyNS_9allocatorIyEEE12__move_rangeEPyS4_S4_, symObjAddr: 0x4480, symBinAddr: 0x100008748, symSize: 0x12C }
  - { offsetInCU: 0x19ECB, offset: 0x19ECB, size: 0x8, addend: 0x0, symName: __ZNSt3__114pointer_traitsIPKyE10pointer_toB7v160006ERS1_, symObjAddr: 0x45AC, symBinAddr: 0x100008874, symSize: 0x14 }
  - { offsetInCU: 0x19EEE, offset: 0x19EEE, size: 0x8, addend: 0x0, symName: __ZNSt3__114__split_bufferIyRNS_9allocatorIyEEEC1EmmS3_, symObjAddr: 0x45C0, symBinAddr: 0x100008888, symSize: 0x44 }
  - { offsetInCU: 0x19F44, offset: 0x19F44, size: 0x8, addend: 0x0, symName: __ZNSt3__114__split_bufferIyRNS_9allocatorIyEEE9push_backB7v160006ERKy, symObjAddr: 0x4604, symBinAddr: 0x1000088CC, symSize: 0x260 }
  - { offsetInCU: 0x19FBC, offset: 0x19FBC, size: 0x8, addend: 0x0, symName: __ZNSt3__114__split_bufferIyRNS_9allocatorIyEEED1Ev, symObjAddr: 0x49B8, symBinAddr: 0x100008C80, symSize: 0x2C }
  - { offsetInCU: 0x19FE8, offset: 0x19FE8, size: 0x8, addend: 0x0, symName: __ZNSt3__116allocator_traitsINS_9allocatorIyEEE9constructB7v160006IyJRKyEvvEEvRS2_PT_DpOT0_, symObjAddr: 0x49E4, symBinAddr: 0x100008CAC, symSize: 0x30 }
  - { offsetInCU: 0x1A042, offset: 0x1A042, size: 0x8, addend: 0x0, symName: __ZNSt3__116allocator_traitsINS_9allocatorIyEEE9constructB7v160006IyJyEvvEEvRS2_PT_DpOT0_, symObjAddr: 0x4A40, symBinAddr: 0x100008D08, symSize: 0x30 }
  - { offsetInCU: 0x1A0A1, offset: 0x1A0A1, size: 0x8, addend: 0x0, symName: __ZNKSt3__123__move_backward_trivialclB7v160006IyyLi0EEENS_4pairIPT_PT0_EES4_S4_S6_, symObjAddr: 0x4C18, symBinAddr: 0x100008EE0, symSize: 0x48 }
  - { offsetInCU: 0x1A109, offset: 0x1A109, size: 0x8, addend: 0x0, symName: __ZNSt3__14pairIPyS1_EC1B7v160006IRS1_S4_LPv0EEEOT_OT0_, symObjAddr: 0x4D2C, symBinAddr: 0x100008FF4, symSize: 0x3C }
  - { offsetInCU: 0x1A167, offset: 0x1A167, size: 0x8, addend: 0x0, symName: __ZNSt3__14pairIPyS1_EC2B7v160006IRS1_S4_LPv0EEEOT_OT0_, symObjAddr: 0x4D68, symBinAddr: 0x100009030, symSize: 0x34 }
  - { offsetInCU: 0x1A1C5, offset: 0x1A1C5, size: 0x8, addend: 0x0, symName: __ZNSt3__114__split_bufferIyRNS_9allocatorIyEEEC2EmmS3_, symObjAddr: 0x4D9C, symBinAddr: 0x100009064, symSize: 0xD4 }
  - { offsetInCU: 0x1A238, offset: 0x1A238, size: 0x8, addend: 0x0, symName: __ZNSt3__117__compressed_pairIPyRNS_9allocatorIyEEEC1B7v160006IDnS4_EEOT_OT0_, symObjAddr: 0x4E70, symBinAddr: 0x100009138, symSize: 0x3C }
  - { offsetInCU: 0x1A290, offset: 0x1A290, size: 0x8, addend: 0x0, symName: __ZNSt3__114__split_bufferIyRNS_9allocatorIyEEE7__allocB7v160006Ev, symObjAddr: 0x4EAC, symBinAddr: 0x100009174, symSize: 0x28 }
  - { offsetInCU: 0x1A2B6, offset: 0x1A2B6, size: 0x8, addend: 0x0, symName: __ZNSt3__114__split_bufferIyRNS_9allocatorIyEEE9__end_capB7v160006Ev, symObjAddr: 0x4ED4, symBinAddr: 0x10000919C, symSize: 0x28 }
  - { offsetInCU: 0x1A2DC, offset: 0x1A2DC, size: 0x8, addend: 0x0, symName: __ZNSt3__117__compressed_pairIPyRNS_9allocatorIyEEEC2B7v160006IDnS4_EEOT_OT0_, symObjAddr: 0x4EFC, symBinAddr: 0x1000091C4, symSize: 0x48 }
  - { offsetInCU: 0x1A334, offset: 0x1A334, size: 0x8, addend: 0x0, symName: __ZNSt3__122__compressed_pair_elemIRNS_9allocatorIyEELi1ELb0EEC2B7v160006IS3_vEEOT_, symObjAddr: 0x4F44, symBinAddr: 0x10000920C, symSize: 0x20 }
  - { offsetInCU: 0x1A376, offset: 0x1A376, size: 0x8, addend: 0x0, symName: __ZNSt3__117__compressed_pairIPyRNS_9allocatorIyEEE6secondB7v160006Ev, symObjAddr: 0x4F64, symBinAddr: 0x10000922C, symSize: 0x28 }
  - { offsetInCU: 0x1A39C, offset: 0x1A39C, size: 0x8, addend: 0x0, symName: __ZNSt3__122__compressed_pair_elemIRNS_9allocatorIyEELi1ELb0EE5__getB7v160006Ev, symObjAddr: 0x4F8C, symBinAddr: 0x100009254, symSize: 0x18 }
  - { offsetInCU: 0x1A3C2, offset: 0x1A3C2, size: 0x8, addend: 0x0, symName: __ZNSt3__117__compressed_pairIPyRNS_9allocatorIyEEE5firstB7v160006Ev, symObjAddr: 0x4FA4, symBinAddr: 0x10000926C, symSize: 0x24 }
  - { offsetInCU: 0x1A3E8, offset: 0x1A3E8, size: 0x8, addend: 0x0, symName: __ZNSt3__114__split_bufferIyRNS_9allocatorIyEEE18__construct_at_endINS_13move_iteratorIPyEEEENS_9enable_ifIXsr27__is_cpp17_forward_iteratorIT_EE5valueEvE4typeESA_SA_, symObjAddr: 0x4FC8, symBinAddr: 0x100009290, symSize: 0xFC }
  - { offsetInCU: 0x1A444, offset: 0x1A444, size: 0x8, addend: 0x0, symName: __ZNSt3__113move_iteratorIPyEC1B7v160006ES1_, symObjAddr: 0x50C4, symBinAddr: 0x10000938C, symSize: 0x34 }
  - { offsetInCU: 0x1A488, offset: 0x1A488, size: 0x8, addend: 0x0, symName: __ZNSt3__114__split_bufferIyRNS_9allocatorIyEEE21_ConstructTransactionC1B7v160006EPPym, symObjAddr: 0x5170, symBinAddr: 0x100009438, symSize: 0x3C }
  - { offsetInCU: 0x1A4CE, offset: 0x1A4CE, size: 0x8, addend: 0x0, symName: __ZNKSt3__113move_iteratorIPyEdeB7v160006Ev, symObjAddr: 0x51AC, symBinAddr: 0x100009474, symSize: 0x2C }
  - { offsetInCU: 0x1A4F4, offset: 0x1A4F4, size: 0x8, addend: 0x0, symName: __ZNSt3__113move_iteratorIPyEppB7v160006Ev, symObjAddr: 0x51D8, symBinAddr: 0x1000094A0, symSize: 0x20 }
  - { offsetInCU: 0x1A51A, offset: 0x1A51A, size: 0x8, addend: 0x0, symName: __ZNSt3__114__split_bufferIyRNS_9allocatorIyEEE21_ConstructTransactionD1B7v160006Ev, symObjAddr: 0x51F8, symBinAddr: 0x1000094C0, symSize: 0x2C }
  - { offsetInCU: 0x1A544, offset: 0x1A544, size: 0x8, addend: 0x0, symName: __ZNKRSt3__113move_iteratorIPyE4baseB7v160006Ev, symObjAddr: 0x52A0, symBinAddr: 0x100009568, symSize: 0x14 }
  - { offsetInCU: 0x1A56A, offset: 0x1A56A, size: 0x8, addend: 0x0, symName: __ZNSt3__114__split_bufferIyRNS_9allocatorIyEEE21_ConstructTransactionC2B7v160006EPPym, symObjAddr: 0x52B4, symBinAddr: 0x10000957C, symSize: 0x44 }
  - { offsetInCU: 0x1A5B6, offset: 0x1A5B6, size: 0x8, addend: 0x0, symName: __ZNKSt3__16ranges11__iter_move4__fnclB7v160006IRKPyEEDTclsr3stdE4movedeclsr3stdE7forwardIT_Efp_EEEOS7_, symObjAddr: 0x52F8, symBinAddr: 0x1000095C0, symSize: 0x1C }
  - { offsetInCU: 0x1A5F3, offset: 0x1A5F3, size: 0x8, addend: 0x0, symName: __ZNSt3__114__split_bufferIyRNS_9allocatorIyEEE21_ConstructTransactionD2B7v160006Ev, symObjAddr: 0x5314, symBinAddr: 0x1000095DC, symSize: 0x20 }
  - { offsetInCU: 0x1A61D, offset: 0x1A61D, size: 0x8, addend: 0x0, symName: __ZNSt3__113move_iteratorIPyEC2B7v160006ES1_, symObjAddr: 0x5334, symBinAddr: 0x1000095FC, symSize: 0x20 }
  - { offsetInCU: 0x1A67D, offset: 0x1A67D, size: 0x8, addend: 0x0, symName: __ZNKSt3__111__move_loopINS_17_ClassicAlgPolicyEEclB7v160006INS_16reverse_iteratorIPyEES6_S6_EENS_4pairIT_T1_EES8_T0_S9_, symObjAddr: 0x56BC, symBinAddr: 0x100009984, symSize: 0xA0 }
  - { offsetInCU: 0x1A6E8, offset: 0x1A6E8, size: 0x8, addend: 0x0, symName: __ZNSt3__119__unwrap_range_implINS_16reverse_iteratorIPyEES3_E8__unwrapB7v160006ES3_S3_, symObjAddr: 0x58A8, symBinAddr: 0x100009B70, symSize: 0x84 }
  - { offsetInCU: 0x1A71F, offset: 0x1A71F, size: 0x8, addend: 0x0, symName: __ZNSt3__14pairINS_16reverse_iteratorIPyEES3_EC1B7v160006IS3_S3_LPv0EEEOT_OT0_, symObjAddr: 0x592C, symBinAddr: 0x100009BF4, symSize: 0x3C }
  - { offsetInCU: 0x1A77D, offset: 0x1A77D, size: 0x8, addend: 0x0, symName: __ZNSt3__14pairINS_16reverse_iteratorIPyEES3_EC2B7v160006IS3_S3_LPv0EEEOT_OT0_, symObjAddr: 0x5968, symBinAddr: 0x100009C30, symSize: 0x34 }
  - { offsetInCU: 0x1A7DB, offset: 0x1A7DB, size: 0x8, addend: 0x0, symName: __ZNSt3__18_IterOpsINS_17_ClassicAlgPolicyEE11__iter_moveB7v160006IRNS_16reverse_iteratorIPyEEEENS_9enable_ifIXsr12is_referenceIDTdeclsr3stdE7declvalIRT_EEEEE5valueEDTclsr3stdE4movedeclsr3stdE7declvalISA_EEEEE4typeEOS9_, symObjAddr: 0x599C, symBinAddr: 0x100009C64, symSize: 0x28 }
  - { offsetInCU: 0x1A807, offset: 0x1A807, size: 0x8, addend: 0x0, symName: __ZNKSt3__116reverse_iteratorIPyEdeB7v160006Ev, symObjAddr: 0x59C4, symBinAddr: 0x100009C8C, symSize: 0x28 }
  - { offsetInCU: 0x1A83B, offset: 0x1A83B, size: 0x8, addend: 0x0, symName: __ZNSt3__18_IterOpsINS_17_ClassicAlgPolicyEE25__validate_iter_referenceB7v160006IRNS_16reverse_iteratorIPyEEEEvv, symObjAddr: 0x59EC, symBinAddr: 0x100009CB4, symSize: 0x4 }
  - { offsetInCU: 0x1A859, offset: 0x1A859, size: 0x8, addend: 0x0, symName: __ZNSt3__118__unwrap_iter_implINS_16reverse_iteratorIPyEELb0EE8__unwrapB7v160006ES3_, symObjAddr: 0x59F0, symBinAddr: 0x100009CB8, symSize: 0x24 }
  - { offsetInCU: 0x1A87C, offset: 0x1A87C, size: 0x8, addend: 0x0, symName: __ZNSt3__119__unwrap_range_implINS_16reverse_iteratorIPyEES3_E8__rewrapB7v160006ES3_S3_, symObjAddr: 0x5A14, symBinAddr: 0x100009CDC, symSize: 0x5C }
  - { offsetInCU: 0x1A8AD, offset: 0x1A8AD, size: 0x8, addend: 0x0, symName: __ZNSt3__118__unwrap_iter_implINS_16reverse_iteratorIPyEELb0EE8__rewrapB7v160006ES3_S3_, symObjAddr: 0x5A70, symBinAddr: 0x100009D38, symSize: 0x2C }
  - { offsetInCU: 0x1A8DA, offset: 0x1A8DA, size: 0x8, addend: 0x0, symName: __ZNSt3__114__split_bufferIyRNS_9allocatorIyEEED2Ev, symObjAddr: 0x5A9C, symBinAddr: 0x100009D64, symSize: 0x8C }
  - { offsetInCU: 0x1A906, offset: 0x1A906, size: 0x8, addend: 0x0, symName: __ZNSt3__114__split_bufferIyRNS_9allocatorIyEEE5clearB7v160006Ev, symObjAddr: 0x5B28, symBinAddr: 0x100009DF0, symSize: 0x28 }
  - { offsetInCU: 0x1A92C, offset: 0x1A92C, size: 0x8, addend: 0x0, symName: __ZNKSt3__114__split_bufferIyRNS_9allocatorIyEEE8capacityB7v160006Ev, symObjAddr: 0x5B50, symBinAddr: 0x100009E18, symSize: 0x40 }
  - { offsetInCU: 0x1A952, offset: 0x1A952, size: 0x8, addend: 0x0, symName: __ZNSt3__114__split_bufferIyRNS_9allocatorIyEEE17__destruct_at_endB7v160006EPy, symObjAddr: 0x5B90, symBinAddr: 0x100009E58, symSize: 0x2C }
  - { offsetInCU: 0x1A986, offset: 0x1A986, size: 0x8, addend: 0x0, symName: __ZNSt3__114__split_bufferIyRNS_9allocatorIyEEE17__destruct_at_endB7v160006EPyNS_17integral_constantIbLb0EEE, symObjAddr: 0x5BBC, symBinAddr: 0x100009E84, symSize: 0x80 }
  - { offsetInCU: 0x1A9C6, offset: 0x1A9C6, size: 0x8, addend: 0x0, symName: __ZNKSt3__114__split_bufferIyRNS_9allocatorIyEEE9__end_capB7v160006Ev, symObjAddr: 0x5C3C, symBinAddr: 0x100009F04, symSize: 0x28 }
  - { offsetInCU: 0x1A9EC, offset: 0x1A9EC, size: 0x8, addend: 0x0, symName: __ZNKSt3__117__compressed_pairIPyRNS_9allocatorIyEEE5firstB7v160006Ev, symObjAddr: 0x5C64, symBinAddr: 0x100009F2C, symSize: 0x24 }
  - { offsetInCU: 0x1AA12, offset: 0x1AA12, size: 0x8, addend: 0x0, symName: __ZNSt3__16vectorIyNS_9allocatorIyEEE22__construct_one_at_endB7v160006IJyEEEvDpOT_, symObjAddr: 0x5C88, symBinAddr: 0x100009F50, symSize: 0x90 }
  - { offsetInCU: 0x1AA61, offset: 0x1AA61, size: 0x8, addend: 0x0, symName: __ZNSt3__114__split_bufferIyRNS_9allocatorIyEEE9push_backEOy, symObjAddr: 0x5D18, symBinAddr: 0x100009FE0, symSize: 0x260 }
  - { offsetInCU: 0x1AAD9, offset: 0x1AAD9, size: 0x8, addend: 0x0, symName: __ZNSt3__118basic_stringstreamIcNS_11char_traitsIcEENS_9allocatorIcEEED2Ev, symObjAddr: 0x5F78, symBinAddr: 0x10000A240, symSize: 0x6C }
  - { offsetInCU: 0x1AB13, offset: 0x1AB13, size: 0x8, addend: 0x0, symName: __ZThn16_NSt3__118basic_stringstreamIcNS_11char_traitsIcEENS_9allocatorIcEEED1Ev, symObjAddr: 0x5FE4, symBinAddr: 0x10000A2AC, symSize: 0x1C }
  - { offsetInCU: 0x1AB2A, offset: 0x1AB2A, size: 0x8, addend: 0x0, symName: __ZTv0_n24_NSt3__118basic_stringstreamIcNS_11char_traitsIcEENS_9allocatorIcEEED1Ev, symObjAddr: 0x6000, symBinAddr: 0x10000A2C8, symSize: 0x28 }
  - { offsetInCU: 0x1AB47, offset: 0x1AB47, size: 0x8, addend: 0x0, symName: __ZNSt3__115basic_stringbufIcNS_11char_traitsIcEENS_9allocatorIcEEED1Ev, symObjAddr: 0x6028, symBinAddr: 0x10000A2F0, symSize: 0x2C }
  - { offsetInCU: 0x1AB74, offset: 0x1AB74, size: 0x8, addend: 0x0, symName: __ZNSt3__115basic_stringbufIcNS_11char_traitsIcEENS_9allocatorIcEEED2Ev, symObjAddr: 0x6054, symBinAddr: 0x10000A31C, symSize: 0x48 }
  - { offsetInCU: 0x1ABA1, offset: 0x1ABA1, size: 0x8, addend: 0x0, symName: __ZNSt3__112basic_stringIcNS_11char_traitsIcEENS_9allocatorIcEEEC2B7v160006Ev, symObjAddr: 0x609C, symBinAddr: 0x10000A364, symSize: 0x50 }
  - { offsetInCU: 0x1ABCB, offset: 0x1ABCB, size: 0x8, addend: 0x0, symName: __ZNSt3__112basic_stringIcNS_11char_traitsIcEENS_9allocatorIcEEE14__default_initB7v160006Ev, symObjAddr: 0x60EC, symBinAddr: 0x10000A3B4, symSize: 0x40 }
  - { offsetInCU: 0x1ABF1, offset: 0x1ABF1, size: 0x8, addend: 0x0, symName: __ZNSt3__117__compressed_pairINS_12basic_stringIcNS_11char_traitsIcEENS_9allocatorIcEEE5__repES5_E5firstB7v160006Ev, symObjAddr: 0x612C, symBinAddr: 0x10000A3F4, symSize: 0x24 }
  - { offsetInCU: 0x1AC17, offset: 0x1AC17, size: 0x8, addend: 0x0, symName: __ZNSt3__122__compressed_pair_elemINS_12basic_stringIcNS_11char_traitsIcEENS_9allocatorIcEEE5__repELi0ELb0EE5__getB7v160006Ev, symObjAddr: 0x6150, symBinAddr: 0x10000A418, symSize: 0x14 }
  - { offsetInCU: 0x1AC3D, offset: 0x1AC3D, size: 0x8, addend: 0x0, symName: __ZNSt3__19allocatorIcEC1B7v160006Ev, symObjAddr: 0x6164, symBinAddr: 0x10000A42C, symSize: 0x2C }
  - { offsetInCU: 0x1AC67, offset: 0x1AC67, size: 0x8, addend: 0x0, symName: __ZNKSt3__112basic_stringIcNS_11char_traitsIcEENS_9allocatorIcEEE9__is_longB7v160006Ev, symObjAddr: 0x6190, symBinAddr: 0x10000A458, symSize: 0x38 }
  - { offsetInCU: 0x1AC8D, offset: 0x1AC8D, size: 0x8, addend: 0x0, symName: __ZNKSt3__112basic_stringIcNS_11char_traitsIcEENS_9allocatorIcEEE15__get_long_sizeB7v160006Ev, symObjAddr: 0x61C8, symBinAddr: 0x10000A490, symSize: 0x28 }
  - { offsetInCU: 0x1ACB3, offset: 0x1ACB3, size: 0x8, addend: 0x0, symName: __ZNKSt3__112basic_stringIcNS_11char_traitsIcEENS_9allocatorIcEEE16__get_short_sizeB7v160006Ev, symObjAddr: 0x61F0, symBinAddr: 0x10000A4B8, symSize: 0x34 }
  - { offsetInCU: 0x1ACD9, offset: 0x1ACD9, size: 0x8, addend: 0x0, symName: __ZNKSt3__117__compressed_pairINS_12basic_stringIcNS_11char_traitsIcEENS_9allocatorIcEEE5__repES5_E5firstB7v160006Ev, symObjAddr: 0x6224, symBinAddr: 0x10000A4EC, symSize: 0x24 }
  - { offsetInCU: 0x1ACFF, offset: 0x1ACFF, size: 0x8, addend: 0x0, symName: __ZNKSt3__122__compressed_pair_elemINS_12basic_stringIcNS_11char_traitsIcEENS_9allocatorIcEEE5__repELi0ELb0EE5__getB7v160006Ev, symObjAddr: 0x6248, symBinAddr: 0x10000A510, symSize: 0x14 }
  - { offsetInCU: 0x1AD25, offset: 0x1AD25, size: 0x8, addend: 0x0, symName: __ZNSt3__16vectorIyNS_9allocatorIyEEE21__push_back_slow_pathIRKyEEvOT_, symObjAddr: 0x625C, symBinAddr: 0x10000A524, symSize: 0xD8 }
  - { offsetInCU: 0x1AD83, offset: 0x1AD83, size: 0x8, addend: 0x0, symName: __ZNSt3__114basic_ifstreamIcNS_11char_traitsIcEEED2Ev, symObjAddr: 0x644C, symBinAddr: 0x10000A714, symSize: 0x64 }
  - { offsetInCU: 0x1ADBD, offset: 0x1ADBD, size: 0x8, addend: 0x0, symName: __ZTv0_n24_NSt3__114basic_ifstreamIcNS_11char_traitsIcEEED1Ev, symObjAddr: 0x64B0, symBinAddr: 0x10000A778, symSize: 0x28 }
  - { offsetInCU: 0x1ADD4, offset: 0x1ADD4, size: 0x8, addend: 0x0, symName: __ZNSt3__19basic_iosIcNS_11char_traitsIcEEEC2B7v160006Ev, symObjAddr: 0x64D8, symBinAddr: 0x10000A7A0, symSize: 0x44 }
  - { offsetInCU: 0x1ADFE, offset: 0x1ADFE, size: 0x8, addend: 0x0, symName: __ZNSt3__114basic_iostreamIcNS_11char_traitsIcEEEC2B7v160006EPNS_15basic_streambufIcS2_EE, symObjAddr: 0x651C, symBinAddr: 0x10000A7E4, symSize: 0xAC }
  - { offsetInCU: 0x1AE44, offset: 0x1AE44, size: 0x8, addend: 0x0, symName: __ZNSt3__115basic_stringbufIcNS_11char_traitsIcEENS_9allocatorIcEEEC1B7v160006ERKNS_12basic_stringIcS2_S4_EEj, symObjAddr: 0x65C8, symBinAddr: 0x10000A890, symSize: 0x3C }
  - { offsetInCU: 0x1AE8A, offset: 0x1AE8A, size: 0x8, addend: 0x0, symName: __ZNSt3__18ios_baseC2B7v160006Ev, symObjAddr: 0x6604, symBinAddr: 0x10000A8CC, symSize: 0x24 }
  - { offsetInCU: 0x1AEB4, offset: 0x1AEB4, size: 0x8, addend: 0x0, symName: __ZNSt3__113basic_istreamIcNS_11char_traitsIcEEEC2B7v160006EPNS_15basic_streambufIcS2_EE, symObjAddr: 0x6628, symBinAddr: 0x10000A8F0, symSize: 0x64 }
  - { offsetInCU: 0x1AEF9, offset: 0x1AEF9, size: 0x8, addend: 0x0, symName: __ZNSt3__113basic_ostreamIcNS_11char_traitsIcEEEC2B7v160006Ev, symObjAddr: 0x668C, symBinAddr: 0x10000A954, symSize: 0x34 }
  - { offsetInCU: 0x1AF30, offset: 0x1AF30, size: 0x8, addend: 0x0, symName: __ZNSt3__19basic_iosIcNS_11char_traitsIcEEE4initB7v160006EPNS_15basic_streambufIcS2_EE, symObjAddr: 0x66C0, symBinAddr: 0x10000A988, symSize: 0x44 }
  - { offsetInCU: 0x1AF67, offset: 0x1AF67, size: 0x8, addend: 0x0, symName: __ZNSt3__111char_traitsIcE3eofEv, symObjAddr: 0x6704, symBinAddr: 0x10000A9CC, symSize: 0x8 }
  - { offsetInCU: 0x1AF7B, offset: 0x1AF7B, size: 0x8, addend: 0x0, symName: __ZNSt3__115basic_stringbufIcNS_11char_traitsIcEENS_9allocatorIcEEEC2B7v160006ERKNS_12basic_stringIcS2_S4_EEj, symObjAddr: 0x670C, symBinAddr: 0x10000A9D4, symSize: 0xB4 }
  - { offsetInCU: 0x1AFC1, offset: 0x1AFC1, size: 0x8, addend: 0x0, symName: __ZNKSt3__112basic_stringIcNS_11char_traitsIcEENS_9allocatorIcEEE13get_allocatorB7v160006Ev, symObjAddr: 0x67C0, symBinAddr: 0x10000AA88, symSize: 0x24 }
  - { offsetInCU: 0x1AFE7, offset: 0x1AFE7, size: 0x8, addend: 0x0, symName: __ZNSt3__112basic_stringIcNS_11char_traitsIcEENS_9allocatorIcEEEC1B7v160006ERKS4_, symObjAddr: 0x67E4, symBinAddr: 0x10000AAAC, symSize: 0x34 }
  - { offsetInCU: 0x1B020, offset: 0x1B020, size: 0x8, addend: 0x0, symName: __ZNKSt3__112basic_stringIcNS_11char_traitsIcEENS_9allocatorIcEEE7__allocB7v160006Ev, symObjAddr: 0x6818, symBinAddr: 0x10000AAE0, symSize: 0x24 }
  - { offsetInCU: 0x1B046, offset: 0x1B046, size: 0x8, addend: 0x0, symName: __ZNKSt3__117__compressed_pairINS_12basic_stringIcNS_11char_traitsIcEENS_9allocatorIcEEE5__repES5_E6secondB7v160006Ev, symObjAddr: 0x683C, symBinAddr: 0x10000AB04, symSize: 0x24 }
  - { offsetInCU: 0x1B06C, offset: 0x1B06C, size: 0x8, addend: 0x0, symName: __ZNKSt3__122__compressed_pair_elemINS_9allocatorIcEELi1ELb1EE5__getB7v160006Ev, symObjAddr: 0x6860, symBinAddr: 0x10000AB28, symSize: 0x14 }
  - { offsetInCU: 0x1B092, offset: 0x1B092, size: 0x8, addend: 0x0, symName: __ZNSt3__112basic_stringIcNS_11char_traitsIcEENS_9allocatorIcEEEC2B7v160006ERKS4_, symObjAddr: 0x6874, symBinAddr: 0x10000AB3C, symSize: 0x50 }
  - { offsetInCU: 0x1B0CB, offset: 0x1B0CB, size: 0x8, addend: 0x0, symName: __ZNSt3__117__compressed_pairINS_12basic_stringIcNS_11char_traitsIcEENS_9allocatorIcEEE5__repES5_EC1B7v160006INS_18__default_init_tagERKS5_EEOT_OT0_, symObjAddr: 0x68C4, symBinAddr: 0x10000AB8C, symSize: 0x3C }
  - { offsetInCU: 0x1B123, offset: 0x1B123, size: 0x8, addend: 0x0, symName: __ZNSt3__117__compressed_pairINS_12basic_stringIcNS_11char_traitsIcEENS_9allocatorIcEEE5__repES5_EC2B7v160006INS_18__default_init_tagERKS5_EEOT_OT0_, symObjAddr: 0x6900, symBinAddr: 0x10000ABC8, symSize: 0x40 }
  - { offsetInCU: 0x1B17B, offset: 0x1B17B, size: 0x8, addend: 0x0, symName: __ZNSt3__122__compressed_pair_elemINS_9allocatorIcEELi1ELb1EEC2B7v160006IRKS2_vEEOT_, symObjAddr: 0x6940, symBinAddr: 0x10000AC08, symSize: 0x18 }
  - { offsetInCU: 0x1B1BD, offset: 0x1B1BD, size: 0x8, addend: 0x0, symName: __ZNSt3__19basic_iosIcNS_11char_traitsIcEEE8setstateB7v160006Ej, symObjAddr: 0x6958, symBinAddr: 0x10000AC20, symSize: 0x2C }
  - { offsetInCU: 0x1B1F2, offset: 0x1B1F2, size: 0x8, addend: 0x0, symName: __ZNSt3__18ios_base8setstateB7v160006Ej, symObjAddr: 0x6984, symBinAddr: 0x10000AC4C, symSize: 0x34 }
  - { offsetInCU: 0x1B229, offset: 0x1B229, size: 0x8, addend: 0x0, symName: __ZNKSt3__19basic_iosIcNS_11char_traitsIcEEE5widenB7v160006Ec, symObjAddr: 0x6BF0, symBinAddr: 0x10000AEB8, symSize: 0x84 }
  - { offsetInCU: 0x1B283, offset: 0x1B283, size: 0x8, addend: 0x0, symName: __ZNKSt3__113basic_istreamIcNS_11char_traitsIcEEE6sentrycvbB7v160006Ev, symObjAddr: 0x6C74, symBinAddr: 0x10000AF3C, symSize: 0x1C }
  - { offsetInCU: 0x1B2A9, offset: 0x1B2A9, size: 0x8, addend: 0x0, symName: __ZNSt3__112basic_stringIcNS_11char_traitsIcEENS_9allocatorIcEEE5clearB7v160006Ev, symObjAddr: 0x6C90, symBinAddr: 0x10000AF58, symSize: 0x88 }
  - { offsetInCU: 0x1B2D1, offset: 0x1B2D1, size: 0x8, addend: 0x0, symName: __ZNKSt3__19basic_iosIcNS_11char_traitsIcEEE5rdbufB7v160006Ev, symObjAddr: 0x6D18, symBinAddr: 0x10000AFE0, symSize: 0x24 }
  - { offsetInCU: 0x1B2F9, offset: 0x1B2F9, size: 0x8, addend: 0x0, symName: __ZNSt3__115basic_streambufIcNS_11char_traitsIcEEE6sbumpcB7v160006Ev, symObjAddr: 0x6D3C, symBinAddr: 0x10000B004, symSize: 0x78 }
  - { offsetInCU: 0x1B31F, offset: 0x1B31F, size: 0x8, addend: 0x0, symName: __ZNSt3__111char_traitsIcE11eq_int_typeEii, symObjAddr: 0x6DB4, symBinAddr: 0x10000B07C, symSize: 0x28 }
  - { offsetInCU: 0x1B350, offset: 0x1B350, size: 0x8, addend: 0x0, symName: __ZNSt3__111char_traitsIcE12to_char_typeEi, symObjAddr: 0x6DDC, symBinAddr: 0x10000B0A4, symSize: 0x18 }
  - { offsetInCU: 0x1B373, offset: 0x1B373, size: 0x8, addend: 0x0, symName: __ZNSt3__111char_traitsIcE2eqEcc, symObjAddr: 0x6DF4, symBinAddr: 0x10000B0BC, symSize: 0x28 }
  - { offsetInCU: 0x1B3A4, offset: 0x1B3A4, size: 0x8, addend: 0x0, symName: __ZNKSt3__112basic_stringIcNS_11char_traitsIcEENS_9allocatorIcEEE8max_sizeB7v160006Ev, symObjAddr: 0x6E1C, symBinAddr: 0x10000B0E4, symSize: 0xAC }
  - { offsetInCU: 0x1B3F6, offset: 0x1B3F6, size: 0x8, addend: 0x0, symName: __ZNSt3__18ios_base18__setstate_nothrowB7v160006Ej, symObjAddr: 0x6EC8, symBinAddr: 0x10000B190, symSize: 0x64 }
  - { offsetInCU: 0x1B42B, offset: 0x1B42B, size: 0x8, addend: 0x0, symName: __ZNKSt3__19basic_iosIcNS_11char_traitsIcEEE10exceptionsB7v160006Ev, symObjAddr: 0x6F2C, symBinAddr: 0x10000B1F4, symSize: 0x24 }
  - { offsetInCU: 0x1B451, offset: 0x1B451, size: 0x8, addend: 0x0, symName: __ZNSt3__111char_traitsIcE6assignERcRKc, symObjAddr: 0x6F60, symBinAddr: 0x10000B228, symSize: 0x24 }
  - { offsetInCU: 0x1B482, offset: 0x1B482, size: 0x8, addend: 0x0, symName: __ZNSt3__112basic_stringIcNS_11char_traitsIcEENS_9allocatorIcEEE18__get_long_pointerB7v160006Ev, symObjAddr: 0x6F84, symBinAddr: 0x10000B24C, symSize: 0x28 }
  - { offsetInCU: 0x1B4A8, offset: 0x1B4A8, size: 0x8, addend: 0x0, symName: __ZNSt3__112basic_stringIcNS_11char_traitsIcEENS_9allocatorIcEEE15__set_long_sizeB7v160006Em, symObjAddr: 0x6FAC, symBinAddr: 0x10000B274, symSize: 0x38 }
  - { offsetInCU: 0x1B4DD, offset: 0x1B4DD, size: 0x8, addend: 0x0, symName: __ZNSt3__112basic_stringIcNS_11char_traitsIcEENS_9allocatorIcEEE19__get_short_pointerB7v160006Ev, symObjAddr: 0x6FE4, symBinAddr: 0x10000B2AC, symSize: 0x28 }
  - { offsetInCU: 0x1B503, offset: 0x1B503, size: 0x8, addend: 0x0, symName: __ZNSt3__112basic_stringIcNS_11char_traitsIcEENS_9allocatorIcEEE16__set_short_sizeB7v160006Em, symObjAddr: 0x700C, symBinAddr: 0x10000B2D4, symSize: 0x78 }
  - { offsetInCU: 0x1B538, offset: 0x1B538, size: 0x8, addend: 0x0, symName: __ZNSt3__114pointer_traitsIPcE10pointer_toB7v160006ERc, symObjAddr: 0x7084, symBinAddr: 0x10000B34C, symSize: 0x14 }
  - { offsetInCU: 0x1B55B, offset: 0x1B55B, size: 0x8, addend: 0x0, symName: __ZNKSt3__18ios_base5rdbufB7v160006Ev, symObjAddr: 0x7098, symBinAddr: 0x10000B360, symSize: 0x18 }
  - { offsetInCU: 0x1B581, offset: 0x1B581, size: 0x8, addend: 0x0, symName: __ZNSt3__111char_traitsIcE11to_int_typeEc, symObjAddr: 0x70B0, symBinAddr: 0x10000B378, symSize: 0x14 }
  - { offsetInCU: 0x1B5AF, offset: 0x1B5AF, size: 0x8, addend: 0x0, symName: __ZNSt3__116allocator_traitsINS_9allocatorIcEEE8max_sizeB7v160006IS2_vvEEmRKS2_, symObjAddr: 0x70C4, symBinAddr: 0x10000B38C, symSize: 0x28 }
  - { offsetInCU: 0x1B5DA, offset: 0x1B5DA, size: 0x8, addend: 0x0, symName: __ZNKSt3__18ios_base10exceptionsB7v160006Ev, symObjAddr: 0x70EC, symBinAddr: 0x10000B3B4, symSize: 0x18 }
  - { offsetInCU: 0x1B640, offset: 0x1B640, size: 0x8, addend: 0x0, symName: __ZNKSt3__15ctypeIcE5widenB7v160006Ec, symObjAddr: 0x7130, symBinAddr: 0x10000B3F8, symSize: 0x38 }
  - { offsetInCU: 0x1B675, offset: 0x1B675, size: 0x8, addend: 0x0, symName: __ZNKSt3__19basic_iosIcNS_11char_traitsIcEEE4failB7v160006Ev, symObjAddr: 0x7168, symBinAddr: 0x10000B430, symSize: 0x28 }
  - { offsetInCU: 0x1B69B, offset: 0x1B69B, size: 0x8, addend: 0x0, symName: __ZNKSt3__18ios_base4failB7v160006Ev, symObjAddr: 0x7190, symBinAddr: 0x10000B458, symSize: 0x28 }
...
