---
triple:          'arm64-apple-darwin'
binary-path:     day15
relocations:
  - { offsetInCU: 0x1176F, offset: 0x1176F, size: 0x8, addend: 0x0, symName: __ZNSt3__17advanceB7v160006IPNS_4pairIyyEEllvEEvRT_T0_, symObjAddr: 0x57A8, symBinAddr: 0x100006EE4, symSize: 0x50 }
  - { offsetInCU: 0x119EF, offset: 0x119EF, size: 0x8, addend: 0x0, symName: __ZNSt3__17advanceB7v160006INS_16reverse_iteratorIPNS_4pairIyyEEEEllvEEvRT_T0_, symObjAddr: 0x5BFC, symBinAddr: 0x100007338, symSize: 0x50 }
  - { offsetInCU: 0x11A5A, offset: 0x11A5A, size: 0x8, addend: 0x0, symName: __ZNSt3__17advanceB7v160006INS_11__wrap_iterIPNS_4pairIyyEEEEllvEEvRT_T0_, symObjAddr: 0x613C, symBinAddr: 0x100007878, symSize: 0x50 }
  - { offsetInCU: 0x11C23, offset: 0x11C23, size: 0x8, addend: 0x0, symName: __ZNSt3__17advanceB7v160006IPNS_4pairIyyEEmmvEEvRT_T0_, symObjAddr: 0x7C1C, symBinAddr: 0x100009358, symSize: 0x50 }
  - { offsetInCU: 0x11FC0, offset: 0x11FC0, size: 0x8, addend: 0x0, symName: __ZNSt3__17advanceB7v160006IPNS_12basic_stringIcNS_11char_traitsIcEENS_9allocatorIcEEEEllvEEvRT_T0_, symObjAddr: 0x9974, symBinAddr: 0x10000B0B0, symSize: 0x50 }
  - { offsetInCU: 0x12240, offset: 0x12240, size: 0x8, addend: 0x0, symName: __ZNSt3__17advanceB7v160006INS_16reverse_iteratorIPNS_12basic_stringIcNS_11char_traitsIcEENS_9allocatorIcEEEEEEllvEEvRT_T0_, symObjAddr: 0x9DD0, symBinAddr: 0x10000B50C, symSize: 0x50 }
  - { offsetInCU: 0x122AB, offset: 0x122AB, size: 0x8, addend: 0x0, symName: __ZNSt3__16copy_nB7v160006IPKcmPcEENS_9enable_ifIXsr33__is_cpp17_random_access_iteratorIT_EE5valueET1_E4typeES5_T0_S6_, symObjAddr: 0xAF04, symBinAddr: 0x10000C640, symSize: 0x44 }
  - { offsetInCU: 0x139B8, offset: 0x139B8, size: 0x8, addend: 0x0, symName: __ZNSt3__1ltB7v160006IPNS_4pairIyyEEEEbRKNS_11__wrap_iterIT_EES8_, symObjAddr: 0x2348, symBinAddr: 0x100003A84, symSize: 0x48 }
  - { offsetInCU: 0x14EB8, offset: 0x14EB8, size: 0x8, addend: 0x0, symName: __ZNSt3__17getlineB7v160006IcNS_11char_traitsIcEENS_9allocatorIcEEEERNS_13basic_istreamIT_T0_EES9_RNS_12basic_stringIS6_S7_T1_EE, symObjAddr: 0x2EB4, symBinAddr: 0x1000045F0, symSize: 0x5C }
  - { offsetInCU: 0x14F10, offset: 0x14F10, size: 0x8, addend: 0x0, symName: __ZNSt3__1eqB7v160006IcNS_11char_traitsIcEENS_9allocatorIcEEEEbRKNS_12basic_stringIT_T0_T1_EEPKS6_, symObjAddr: 0x3028, symBinAddr: 0x100004764, symSize: 0x5C }
  - { offsetInCU: 0x14F68, offset: 0x14F68, size: 0x8, addend: 0x0, symName: __ZNSt3__1plB7v160006IcNS_11char_traitsIcEENS_9allocatorIcEEEENS_12basic_stringIT_T0_T1_EERKS9_SB_, symObjAddr: 0x30F0, symBinAddr: 0x10000482C, symSize: 0x134 }
  - { offsetInCU: 0x15009, offset: 0x15009, size: 0x8, addend: 0x0, symName: __ZNSt3__1ltB7v160006IPNS_12basic_stringIcNS_11char_traitsIcEENS_9allocatorIcEEEEEEbRKNS_11__wrap_iterIT_EESC_, symObjAddr: 0x3254, symBinAddr: 0x100004990, symSize: 0x48 }
  - { offsetInCU: 0x1504C, offset: 0x1504C, size: 0x8, addend: 0x0, symName: __ZNSt3__1ltB7v160006IPcEEbRKNS_11__wrap_iterIT_EES6_, symObjAddr: 0x339C, symBinAddr: 0x100004AD8, symSize: 0x48 }
  - { offsetInCU: 0x1509A, offset: 0x1509A, size: 0x8, addend: 0x0, symName: __ZNSt3__1miB7v160006IPKcS2_EEDTmicldtfp_4baseEcldtfp0_4baseEERKNS_11__wrap_iterIT_EERKNS4_IT0_EE, symObjAddr: 0x34FC, symBinAddr: 0x100004C38, symSize: 0x40 }
  - { offsetInCU: 0x150E6, offset: 0x150E6, size: 0x8, addend: 0x0, symName: __ZNSt3__14moveB7v160006IPcS1_EET0_T_S3_S2_, symObjAddr: 0x35C8, symBinAddr: 0x100004D04, symSize: 0x40 }
  - { offsetInCU: 0x15140, offset: 0x15140, size: 0x8, addend: 0x0, symName: __ZNSt3__112__to_addressB7v160006IcEEPT_S2_, symObjAddr: 0x38E8, symBinAddr: 0x100005024, symSize: 0x14 }
  - { offsetInCU: 0x15175, offset: 0x15175, size: 0x8, addend: 0x0, symName: __ZNSt3__110destroy_atB7v160006IcLi0EEEvPT_, symObjAddr: 0x38FC, symBinAddr: 0x100005038, symSize: 0x24 }
  - { offsetInCU: 0x151AC, offset: 0x151AC, size: 0x8, addend: 0x0, symName: __ZNSt3__112__destroy_atB7v160006IcLi0EEEvPT_, symObjAddr: 0x3920, symBinAddr: 0x10000505C, symSize: 0x10 }
  - { offsetInCU: 0x151E3, offset: 0x151E3, size: 0x8, addend: 0x0, symName: __ZNSt3__16__moveB7v160006INS_17_ClassicAlgPolicyEPcS2_S2_EENS_4pairIT0_T2_EES4_T1_S5_, symObjAddr: 0x3A48, symBinAddr: 0x100005184, symSize: 0x44 }
  - { offsetInCU: 0x1524F, offset: 0x1524F, size: 0x8, addend: 0x0, symName: __ZNSt3__123__dispatch_copy_or_moveB7v160006INS_17_ClassicAlgPolicyENS_11__move_loopIS1_EENS_14__move_trivialEPcS5_S5_EENS_4pairIT2_T4_EES7_T3_S8_, symObjAddr: 0x3A8C, symBinAddr: 0x1000051C8, symSize: 0x44 }
  - { offsetInCU: 0x152CD, offset: 0x152CD, size: 0x8, addend: 0x0, symName: __ZNSt3__121__unwrap_and_dispatchB7v160006INS_10__overloadINS_11__move_loopINS_17_ClassicAlgPolicyEEENS_14__move_trivialEEEPcS7_S7_Li0EEENS_4pairIT0_T2_EES9_T1_SA_, symObjAddr: 0x3AD0, symBinAddr: 0x10000520C, symSize: 0xB4 }
  - { offsetInCU: 0x1535B, offset: 0x1535B, size: 0x8, addend: 0x0, symName: __ZNSt3__114__unwrap_rangeB7v160006IPcS1_EEDaT_T0_, symObjAddr: 0x3B84, symBinAddr: 0x1000052C0, symSize: 0x3C }
  - { offsetInCU: 0x154F0, offset: 0x154F0, size: 0x8, addend: 0x0, symName: __ZNSt3__113__unwrap_iterB7v160006IPcNS_18__unwrap_iter_implIS1_Lb1EEELi0EEEDTclsrT0_8__unwrapclsr3stdE7declvalIT_EEEES5_, symObjAddr: 0x3C08, symBinAddr: 0x100005344, symSize: 0x24 }
  - { offsetInCU: 0x15534, offset: 0x15534, size: 0x8, addend: 0x0, symName: __ZNSt3__19make_pairB7v160006IPcS1_EENS_4pairINS_18__unwrap_ref_decayIT_E4typeENS3_IT0_E4typeEEEOS4_OS7_, symObjAddr: 0x3C2C, symBinAddr: 0x100005368, symSize: 0x38 }
  - { offsetInCU: 0x15583, offset: 0x15583, size: 0x8, addend: 0x0, symName: __ZNSt3__114__rewrap_rangeB7v160006IPcS1_S1_EET0_S2_T1_, symObjAddr: 0x3C64, symBinAddr: 0x1000053A0, symSize: 0x2C }
  - { offsetInCU: 0x155D8, offset: 0x155D8, size: 0x8, addend: 0x0, symName: __ZNSt3__113__rewrap_iterB7v160006IPcS1_NS_18__unwrap_iter_implIS1_Lb1EEEEET_S4_T0_, symObjAddr: 0x3C90, symBinAddr: 0x1000053CC, symSize: 0x3C }
  - { offsetInCU: 0x1567D, offset: 0x1567D, size: 0x8, addend: 0x0, symName: __ZNSt3__119__copy_trivial_implB7v160006IccEENS_4pairIPT_PT0_EES3_S3_S5_, symObjAddr: 0x3D94, symBinAddr: 0x1000054D0, symSize: 0x7C }
  - { offsetInCU: 0x156E5, offset: 0x156E5, size: 0x8, addend: 0x0, symName: __ZNSt3__19make_pairB7v160006IRPcS1_EENS_4pairINS_18__unwrap_ref_decayIT_E4typeENS4_IT0_E4typeEEEOS5_OS8_, symObjAddr: 0x3E10, symBinAddr: 0x10000554C, symSize: 0x38 }
  - { offsetInCU: 0x15787, offset: 0x15787, size: 0x8, addend: 0x0, symName: __ZNSt3__120__throw_out_of_rangeB7v160006EPKc, symObjAddr: 0x4024, symBinAddr: 0x100005760, symSize: 0x64 }
  - { offsetInCU: 0x157B1, offset: 0x157B1, size: 0x8, addend: 0x0, symName: __ZNSt3__112__to_addressB7v160006IKcEEPT_S3_, symObjAddr: 0x4130, symBinAddr: 0x10000586C, symSize: 0x14 }
  - { offsetInCU: 0x15819, offset: 0x15819, size: 0x8, addend: 0x0, symName: __ZNSt3__119__debug_db_insert_cB7v160006INS_6vectorINS_4pairIyyEENS_9allocatorIS3_EEEEEEvPT_, symObjAddr: 0x4300, symBinAddr: 0x100005A3C, symSize: 0x10 }
  - { offsetInCU: 0x1584A, offset: 0x1584A, size: 0x8, addend: 0x0, symName: __ZNSt3__112__to_addressB7v160006INS_4pairIyyEEEEPT_S4_, symObjAddr: 0x4634, symBinAddr: 0x100005D70, symSize: 0x14 }
  - { offsetInCU: 0x158A4, offset: 0x158A4, size: 0x8, addend: 0x0, symName: __ZNSt3__112construct_atB7v160006INS_4pairIyyEEJS2_EPS2_EEPT_S5_DpOT0_, symObjAddr: 0x46B8, symBinAddr: 0x100005DF4, symSize: 0x2C }
  - { offsetInCU: 0x15914, offset: 0x15914, size: 0x8, addend: 0x0, symName: __ZNSt3__13maxB7v160006ImEERKT_S3_S3_, symObjAddr: 0x4A5C, symBinAddr: 0x100006198, symSize: 0x2C }
  - { offsetInCU: 0x15957, offset: 0x15957, size: 0x8, addend: 0x0, symName: __ZNSt3__13minB7v160006ImEERKT_S3_S3_, symObjAddr: 0x4A88, symBinAddr: 0x1000061C4, symSize: 0x2C }
  - { offsetInCU: 0x15B84, offset: 0x15B84, size: 0x8, addend: 0x0, symName: __ZNSt3__13minB7v160006ImNS_6__lessImmEEEERKT_S5_S5_T0_, symObjAddr: 0x4B18, symBinAddr: 0x100006254, symSize: 0x54 }
  - { offsetInCU: 0x15E05, offset: 0x15E05, size: 0x8, addend: 0x0, symName: __ZNSt3__120__throw_length_errorB7v160006EPKc, symObjAddr: 0x4BFC, symBinAddr: 0x100006338, symSize: 0x64 }
  - { offsetInCU: 0x15E2D, offset: 0x15E2D, size: 0x8, addend: 0x0, symName: __ZNSt3__13maxB7v160006ImNS_6__lessImmEEEERKT_S5_S5_T0_, symObjAddr: 0x4D40, symBinAddr: 0x10000647C, symSize: 0x54 }
  - { offsetInCU: 0x15E87, offset: 0x15E87, size: 0x8, addend: 0x0, symName: __ZNSt3__119__allocate_at_leastB7v160006INS_9allocatorINS_4pairIyyEEEEEENS_19__allocation_resultINS_16allocator_traitsIT_E7pointerEEERS7_m, symObjAddr: 0x4EA4, symBinAddr: 0x1000065E0, symSize: 0x40 }
  - { offsetInCU: 0x15ECA, offset: 0x15ECA, size: 0x8, addend: 0x0, symName: __ZNSt3__117__libcpp_allocateB7v160006Emm, symObjAddr: 0x5028, symBinAddr: 0x100006764, symSize: 0x60 }
  - { offsetInCU: 0x15F24, offset: 0x15F24, size: 0x8, addend: 0x0, symName: __ZNSt3__124__is_overaligned_for_newB7v160006Em, symObjAddr: 0x5088, symBinAddr: 0x1000067C4, symSize: 0x20 }
  - { offsetInCU: 0x15F52, offset: 0x15F52, size: 0x8, addend: 0x0, symName: __ZNSt3__121__libcpp_operator_newB7v160006IJmSt11align_val_tEEEPvDpT_, symObjAddr: 0x50A8, symBinAddr: 0x1000067E4, symSize: 0x2C }
  - { offsetInCU: 0x15F9F, offset: 0x15F9F, size: 0x8, addend: 0x0, symName: __ZNSt3__121__libcpp_operator_newB7v160006IJmEEEPvDpT_, symObjAddr: 0x50D4, symBinAddr: 0x100006810, symSize: 0x24 }
  - { offsetInCU: 0x15FD8, offset: 0x15FD8, size: 0x8, addend: 0x0, symName: __ZNSt3__142__uninitialized_allocator_move_if_noexceptB7v160006INS_9allocatorINS_4pairIyyEEEENS_16reverse_iteratorIPS3_EES7_S7_EET2_RT_T0_T1_S8_, symObjAddr: 0x5214, symBinAddr: 0x100006950, symSize: 0x12C }
  - { offsetInCU: 0x16078, offset: 0x16078, size: 0x8, addend: 0x0, symName: __ZNSt3__14swapB7v160006IPNS_4pairIyyEEEENS_9enable_ifIXaasr21is_move_constructibleIT_EE5valuesr18is_move_assignableIS5_EE5valueEvE4typeERS5_S8_, symObjAddr: 0x538C, symBinAddr: 0x100006AC8, symSize: 0x3C }
  - { offsetInCU: 0x160C9, offset: 0x160C9, size: 0x8, addend: 0x0, symName: __ZNSt3__125__debug_db_invalidate_allB7v160006INS_6vectorINS_4pairIyyEENS_9allocatorIS3_EEEEEEvPT_, symObjAddr: 0x5474, symBinAddr: 0x100006BB0, symSize: 0x10 }
  - { offsetInCU: 0x160FA, offset: 0x160FA, size: 0x8, addend: 0x0, symName: __ZNSt3__122__make_exception_guardB7v160006INS_29_AllocatorDestroyRangeReverseINS_9allocatorINS_4pairIyyEEEENS_16reverse_iteratorIPS4_EEEEEENS_28__exception_guard_exceptionsIT_EESB_, symObjAddr: 0x54CC, symBinAddr: 0x100006C08, symSize: 0x4C }
  - { offsetInCU: 0x16130, offset: 0x16130, size: 0x8, addend: 0x0, symName: __ZNSt3__1neB7v160006IPNS_4pairIyyEES3_EEbRKNS_16reverse_iteratorIT_EERKNS4_IT0_EE, symObjAddr: 0x555C, symBinAddr: 0x100006C98, symSize: 0x48 }
  - { offsetInCU: 0x1617C, offset: 0x1617C, size: 0x8, addend: 0x0, symName: __ZNSt3__112__to_addressB7v160006INS_16reverse_iteratorIPNS_4pairIyyEEEEvEENS_5decayIDTclsr19__to_address_helperIT_EE6__callclsr3stdE7declvalIRKS7_EEEEE4typeES9_, symObjAddr: 0x55A4, symBinAddr: 0x100006CE0, symSize: 0x24 }
  - { offsetInCU: 0x161DB, offset: 0x161DB, size: 0x8, addend: 0x0, symName: __ZNSt3__14prevB7v160006IPNS_4pairIyyEEEENS_9enable_ifIXsr25__is_cpp17_input_iteratorIT_EE5valueES5_E4typeES5_NS_15iterator_traitsIS5_E15difference_typeE, symObjAddr: 0x5758, symBinAddr: 0x100006E94, symSize: 0x50 }
  - { offsetInCU: 0x1621E, offset: 0x1621E, size: 0x8, addend: 0x0, symName: __ZNSt3__121__convert_to_integralB7v160006El, symObjAddr: 0x57F8, symBinAddr: 0x100006F34, symSize: 0x14 }
  - { offsetInCU: 0x1624A, offset: 0x1624A, size: 0x8, addend: 0x0, symName: __ZNSt3__19__advanceB7v160006IPNS_4pairIyyEEEEvRT_NS_15iterator_traitsIS4_E15difference_typeENS_26random_access_iterator_tagE, symObjAddr: 0x580C, symBinAddr: 0x100006F48, symSize: 0x28 }
  - { offsetInCU: 0x16293, offset: 0x16293, size: 0x8, addend: 0x0, symName: __ZNSt3__119__allocator_destroyB7v160006INS_9allocatorINS_4pairIyyEEEENS_16reverse_iteratorINS5_IPS3_EEEES8_EEvRT_T0_T1_, symObjAddr: 0x5938, symBinAddr: 0x100007074, symSize: 0x70 }
  - { offsetInCU: 0x162F8, offset: 0x162F8, size: 0x8, addend: 0x0, symName: __ZNSt3__1neB7v160006INS_16reverse_iteratorIPNS_4pairIyyEEEES5_EEbRKNS1_IT_EERKNS1_IT0_EE, symObjAddr: 0x59E4, symBinAddr: 0x100007120, symSize: 0x60 }
  - { offsetInCU: 0x16344, offset: 0x16344, size: 0x8, addend: 0x0, symName: __ZNSt3__112__to_addressB7v160006INS_16reverse_iteratorINS1_IPNS_4pairIyyEEEEEEvEENS_5decayIDTclsr19__to_address_helperIT_EE6__callclsr3stdE7declvalIRKS8_EEEEE4typeESA_, symObjAddr: 0x5A6C, symBinAddr: 0x1000071A8, symSize: 0x24 }
  - { offsetInCU: 0x1637A, offset: 0x1637A, size: 0x8, addend: 0x0, symName: __ZNSt3__110destroy_atB7v160006INS_4pairIyyEELi0EEEvPT_, symObjAddr: 0x5AE4, symBinAddr: 0x100007220, symSize: 0x24 }
  - { offsetInCU: 0x163B1, offset: 0x163B1, size: 0x8, addend: 0x0, symName: __ZNSt3__112__destroy_atB7v160006INS_4pairIyyEELi0EEEvPT_, symObjAddr: 0x5B08, symBinAddr: 0x100007244, symSize: 0x10 }
  - { offsetInCU: 0x16411, offset: 0x16411, size: 0x8, addend: 0x0, symName: __ZNSt3__14prevB7v160006INS_16reverse_iteratorIPNS_4pairIyyEEEEEENS_9enable_ifIXsr25__is_cpp17_input_iteratorIT_EE5valueES7_E4typeES7_NS_15iterator_traitsIS7_E15difference_typeE, symObjAddr: 0x5B9C, symBinAddr: 0x1000072D8, symSize: 0x60 }
  - { offsetInCU: 0x16454, offset: 0x16454, size: 0x8, addend: 0x0, symName: __ZNSt3__19__advanceB7v160006INS_16reverse_iteratorIPNS_4pairIyyEEEEEEvRT_NS_15iterator_traitsIS6_E15difference_typeENS_26random_access_iterator_tagE, symObjAddr: 0x5C4C, symBinAddr: 0x100007388, symSize: 0x2C }
  - { offsetInCU: 0x1649D, offset: 0x1649D, size: 0x8, addend: 0x0, symName: __ZNSt3__119__libcpp_deallocateB7v160006EPvmm, symObjAddr: 0x5F30, symBinAddr: 0x10000766C, symSize: 0x60 }
  - { offsetInCU: 0x16502, offset: 0x16502, size: 0x8, addend: 0x0, symName: __ZNSt3__127__do_deallocate_handle_sizeB7v160006IJSt11align_val_tEEEvPvmDpT_, symObjAddr: 0x5F90, symBinAddr: 0x1000076CC, symSize: 0x30 }
  - { offsetInCU: 0x16555, offset: 0x16555, size: 0x8, addend: 0x0, symName: __ZNSt3__127__do_deallocate_handle_sizeB7v160006IJEEEvPvmDpT_, symObjAddr: 0x5FC0, symBinAddr: 0x1000076FC, symSize: 0x28 }
  - { offsetInCU: 0x16593, offset: 0x16593, size: 0x8, addend: 0x0, symName: __ZNSt3__124__libcpp_operator_deleteB7v160006IJPvSt11align_val_tEEEvDpT_, symObjAddr: 0x5FE8, symBinAddr: 0x100007724, symSize: 0x2C }
  - { offsetInCU: 0x165DC, offset: 0x165DC, size: 0x8, addend: 0x0, symName: __ZNSt3__124__libcpp_operator_deleteB7v160006IJPvEEEvDpT_, symObjAddr: 0x6014, symBinAddr: 0x100007750, symSize: 0x24 }
  - { offsetInCU: 0x16611, offset: 0x16611, size: 0x8, addend: 0x0, symName: __ZNSt3__1miB7v160006IPKNS_4pairIyyEEPS2_EEDTmicldtfp_4baseEcldtfp0_4baseEERKNS_11__wrap_iterIT_EERKNS7_IT0_EE, symObjAddr: 0x60B8, symBinAddr: 0x1000077F4, symSize: 0x48 }
  - { offsetInCU: 0x1665D, offset: 0x1665D, size: 0x8, addend: 0x0, symName: __ZNSt3__18distanceB7v160006INS_11__wrap_iterIPNS_4pairIyyEEEEEENS_15iterator_traitsIT_E15difference_typeES7_S7_, symObjAddr: 0x6100, symBinAddr: 0x10000783C, symSize: 0x3C }
  - { offsetInCU: 0x166A0, offset: 0x166A0, size: 0x8, addend: 0x0, symName: __ZNSt3__14copyB7v160006INS_11__wrap_iterIPNS_4pairIyyEEEES4_EET0_T_S7_S6_, symObjAddr: 0x6354, symBinAddr: 0x100007A90, symSize: 0x50 }
  - { offsetInCU: 0x166FA, offset: 0x166FA, size: 0x8, addend: 0x0, symName: __ZNSt3__110__distanceB7v160006INS_11__wrap_iterIPNS_4pairIyyEEEEEENS_15iterator_traitsIT_E15difference_typeES7_S7_NS_26random_access_iterator_tagE, symObjAddr: 0x664C, symBinAddr: 0x100007D88, symSize: 0x30 }
  - { offsetInCU: 0x16747, offset: 0x16747, size: 0x8, addend: 0x0, symName: __ZNSt3__1miB7v160006IPNS_4pairIyyEES3_EEDTmicldtfp_4baseEcldtfp0_4baseEERKNS_11__wrap_iterIT_EERKNS5_IT0_EE, symObjAddr: 0x667C, symBinAddr: 0x100007DB8, symSize: 0x48 }
  - { offsetInCU: 0x16793, offset: 0x16793, size: 0x8, addend: 0x0, symName: __ZNSt3__19__advanceB7v160006INS_11__wrap_iterIPNS_4pairIyyEEEEEEvRT_NS_15iterator_traitsIS6_E15difference_typeENS_26random_access_iterator_tagE, symObjAddr: 0x66C4, symBinAddr: 0x100007E00, symSize: 0x2C }
  - { offsetInCU: 0x167DC, offset: 0x167DC, size: 0x8, addend: 0x0, symName: __ZNSt3__130__uninitialized_allocator_copyB7v160006INS_9allocatorINS_4pairIyyEEEENS_11__wrap_iterIPS3_EES7_S6_EET2_RT_T0_T1_S8_, symObjAddr: 0x6718, symBinAddr: 0x100007E54, symSize: 0xF8 }
  - { offsetInCU: 0x1687A, offset: 0x1687A, size: 0x8, addend: 0x0, symName: __ZNSt3__122__make_exception_guardB7v160006INS_29_AllocatorDestroyRangeReverseINS_9allocatorINS_4pairIyyEEEEPS4_EEEENS_28__exception_guard_exceptionsIT_EES9_, symObjAddr: 0x6810, symBinAddr: 0x100007F4C, symSize: 0x4C }
  - { offsetInCU: 0x168B0, offset: 0x168B0, size: 0x8, addend: 0x0, symName: __ZNSt3__1neB7v160006IPNS_4pairIyyEEEEbRKNS_11__wrap_iterIT_EES8_, symObjAddr: 0x68A0, symBinAddr: 0x100007FDC, symSize: 0x34 }
  - { offsetInCU: 0x168F3, offset: 0x168F3, size: 0x8, addend: 0x0, symName: __ZNSt3__1eqB7v160006IPNS_4pairIyyEEEEbRKNS_11__wrap_iterIT_EES8_, symObjAddr: 0x69E8, symBinAddr: 0x100008124, symSize: 0x48 }
  - { offsetInCU: 0x16936, offset: 0x16936, size: 0x8, addend: 0x0, symName: __ZNSt3__112construct_atB7v160006INS_4pairIyyEEJRS2_EPS2_EEPT_S6_DpOT0_, symObjAddr: 0x6A30, symBinAddr: 0x10000816C, symSize: 0x2C }
  - { offsetInCU: 0x169A6, offset: 0x169A6, size: 0x8, addend: 0x0, symName: __ZNSt3__119__allocator_destroyB7v160006INS_9allocatorINS_4pairIyyEEEENS_16reverse_iteratorIPS3_EES7_EEvRT_T0_T1_, symObjAddr: 0x6B14, symBinAddr: 0x100008250, symSize: 0x70 }
  - { offsetInCU: 0x16A09, offset: 0x16A09, size: 0x8, addend: 0x0, symName: __ZNSt3__113move_backwardB7v160006IPNS_4pairIyyEES3_EET0_T_S5_S4_, symObjAddr: 0x6B84, symBinAddr: 0x1000082C0, symSize: 0x40 }
  - { offsetInCU: 0x16A63, offset: 0x16A63, size: 0x8, addend: 0x0, symName: __ZNSt3__115__move_backwardB7v160006INS_17_ClassicAlgPolicyEPNS_4pairIyyEES4_S4_EENS2_IT0_T2_EES5_T1_S6_, symObjAddr: 0x6BC4, symBinAddr: 0x100008300, symSize: 0x44 }
  - { offsetInCU: 0x16ACF, offset: 0x16ACF, size: 0x8, addend: 0x0, symName: __ZNSt3__123__dispatch_copy_or_moveB7v160006INS_17_ClassicAlgPolicyENS_20__move_backward_loopIS1_EENS_23__move_backward_trivialEPNS_4pairIyyEES7_S7_EENS5_IT2_T4_EES8_T3_S9_, symObjAddr: 0x6C08, symBinAddr: 0x100008344, symSize: 0x44 }
  - { offsetInCU: 0x16B4D, offset: 0x16B4D, size: 0x8, addend: 0x0, symName: __ZNSt3__121__unwrap_and_dispatchB7v160006INS_10__overloadINS_20__move_backward_loopINS_17_ClassicAlgPolicyEEENS_23__move_backward_trivialEEEPNS_4pairIyyEES9_S9_Li0EEENS7_IT0_T2_EESA_T1_SB_, symObjAddr: 0x6C4C, symBinAddr: 0x100008388, symSize: 0xB4 }
  - { offsetInCU: 0x16BDB, offset: 0x16BDB, size: 0x8, addend: 0x0, symName: __ZNSt3__114__unwrap_rangeB7v160006IPNS_4pairIyyEES3_EEDaT_T0_, symObjAddr: 0x6D00, symBinAddr: 0x10000843C, symSize: 0x3C }
  - { offsetInCU: 0x16D56, offset: 0x16D56, size: 0x8, addend: 0x0, symName: __ZNSt3__113__unwrap_iterB7v160006IPNS_4pairIyyEENS_18__unwrap_iter_implIS3_Lb1EEELi0EEEDTclsrT0_8__unwrapclsr3stdE7declvalIT_EEEES7_, symObjAddr: 0x6DE0, symBinAddr: 0x10000851C, symSize: 0x24 }
  - { offsetInCU: 0x16D9A, offset: 0x16D9A, size: 0x8, addend: 0x0, symName: __ZNSt3__19make_pairB7v160006IPNS_4pairIyyEES3_EENS1_INS_18__unwrap_ref_decayIT_E4typeENS4_IT0_E4typeEEEOS5_OS8_, symObjAddr: 0x6E04, symBinAddr: 0x100008540, symSize: 0x38 }
  - { offsetInCU: 0x16DE9, offset: 0x16DE9, size: 0x8, addend: 0x0, symName: __ZNSt3__114__rewrap_rangeB7v160006IPNS_4pairIyyEES3_S3_EET0_S4_T1_, symObjAddr: 0x6E3C, symBinAddr: 0x100008578, symSize: 0x2C }
  - { offsetInCU: 0x16E3E, offset: 0x16E3E, size: 0x8, addend: 0x0, symName: __ZNSt3__113__rewrap_iterB7v160006IPNS_4pairIyyEES3_NS_18__unwrap_iter_implIS3_Lb1EEEEET_S6_T0_, symObjAddr: 0x6E68, symBinAddr: 0x1000085A4, symSize: 0x3C }
  - { offsetInCU: 0x16FF6, offset: 0x16FF6, size: 0x8, addend: 0x0, symName: __ZNSt3__16__copyB7v160006INS_17_ClassicAlgPolicyENS_11__wrap_iterIPNS_4pairIyyEEEES6_S5_EENS3_IT0_T2_EES7_T1_S8_, symObjAddr: 0x7080, symBinAddr: 0x1000087BC, symSize: 0x54 }
  - { offsetInCU: 0x17062, offset: 0x17062, size: 0x8, addend: 0x0, symName: __ZNSt3__123__dispatch_copy_or_moveB7v160006INS_17_ClassicAlgPolicyENS_11__copy_loopIS1_EENS_14__copy_trivialENS_11__wrap_iterIPNS_4pairIyyEEEES9_S8_EENS6_IT2_T4_EESA_T3_SB_, symObjAddr: 0x70D4, symBinAddr: 0x100008810, symSize: 0x54 }
  - { offsetInCU: 0x170E0, offset: 0x170E0, size: 0x8, addend: 0x0, symName: __ZNSt3__121__unwrap_and_dispatchB7v160006INS_10__overloadINS_11__copy_loopINS_17_ClassicAlgPolicyEEENS_14__copy_trivialEEENS_11__wrap_iterIPNS_4pairIyyEEEESB_SA_Li0EEENS8_IT0_T2_EESC_T1_SD_, symObjAddr: 0x7128, symBinAddr: 0x100008864, symSize: 0xCC }
  - { offsetInCU: 0x1716E, offset: 0x1716E, size: 0x8, addend: 0x0, symName: __ZNSt3__114__unwrap_rangeB7v160006INS_11__wrap_iterIPNS_4pairIyyEEEES5_EEDaT_T0_, symObjAddr: 0x71F4, symBinAddr: 0x100008930, symSize: 0x4C }
  - { offsetInCU: 0x1720C, offset: 0x1720C, size: 0x8, addend: 0x0, symName: __ZNSt3__19make_pairB7v160006INS_11__wrap_iterIPNS_4pairIyyEEEES4_EENS2_INS_18__unwrap_ref_decayIT_E4typeENS6_IT0_E4typeEEEOS7_OSA_, symObjAddr: 0x72C8, symBinAddr: 0x100008A04, symSize: 0x38 }
  - { offsetInCU: 0x1725B, offset: 0x1725B, size: 0x8, addend: 0x0, symName: __ZNSt3__114__rewrap_rangeB7v160006INS_11__wrap_iterIPNS_4pairIyyEEEES5_S4_EET0_S6_T1_, symObjAddr: 0x7300, symBinAddr: 0x100008A3C, symSize: 0x3C }
  - { offsetInCU: 0x17300, offset: 0x17300, size: 0x8, addend: 0x0, symName: __ZNSt3__113__unwrap_iterB7v160006INS_11__wrap_iterIPNS_4pairIyyEEEENS_18__unwrap_iter_implIS5_Lb1EEELi0EEEDTclsrT0_8__unwrapclsr3stdE7declvalIT_EEEES9_, symObjAddr: 0x73A4, symBinAddr: 0x100008AE0, symSize: 0x2C }
  - { offsetInCU: 0x17397, offset: 0x17397, size: 0x8, addend: 0x0, symName: __ZNSt3__112__to_addressB7v160006INS_11__wrap_iterIPNS_4pairIyyEEEEvEENS_5decayIDTclsr19__to_address_helperIT_EE6__callclsr3stdE7declvalIRKS7_EEEEE4typeES9_, symObjAddr: 0x73F8, symBinAddr: 0x100008B34, symSize: 0x24 }
  - { offsetInCU: 0x1750C, offset: 0x1750C, size: 0x8, addend: 0x0, symName: __ZNSt3__113__rewrap_iterB7v160006INS_11__wrap_iterIPNS_4pairIyyEEEES4_NS_18__unwrap_iter_implIS5_Lb1EEEEET_S8_T0_, symObjAddr: 0x7554, symBinAddr: 0x100008C90, symSize: 0x4C }
  - { offsetInCU: 0x17561, offset: 0x17561, size: 0x8, addend: 0x0, symName: __ZNSt3__142__uninitialized_allocator_move_if_noexceptB7v160006INS_9allocatorINS_4pairIyyEEEEPS3_S5_S5_EET2_RT_T0_T1_S6_, symObjAddr: 0x7704, symBinAddr: 0x100008E40, symSize: 0xF4 }
  - { offsetInCU: 0x175FF, offset: 0x175FF, size: 0x8, addend: 0x0, symName: __ZNSt3__18distanceB7v160006IPNS_4pairIyyEEEENS_15iterator_traitsIT_E15difference_typeES5_S5_, symObjAddr: 0x7BF0, symBinAddr: 0x10000932C, symSize: 0x2C }
  - { offsetInCU: 0x17642, offset: 0x17642, size: 0x8, addend: 0x0, symName: __ZNSt3__14copyB7v160006IPNS_4pairIyyEES3_EET0_T_S5_S4_, symObjAddr: 0x7C6C, symBinAddr: 0x1000093A8, symSize: 0x40 }
  - { offsetInCU: 0x1769C, offset: 0x1769C, size: 0x8, addend: 0x0, symName: __ZNSt3__110__distanceB7v160006IPNS_4pairIyyEEEENS_15iterator_traitsIT_E15difference_typeES5_S5_NS_26random_access_iterator_tagE, symObjAddr: 0x7ED0, symBinAddr: 0x10000960C, symSize: 0x28 }
  - { offsetInCU: 0x176E9, offset: 0x176E9, size: 0x8, addend: 0x0, symName: __ZNSt3__121__convert_to_integralB7v160006Em, symObjAddr: 0x7EF8, symBinAddr: 0x100009634, symSize: 0x14 }
  - { offsetInCU: 0x17715, offset: 0x17715, size: 0x8, addend: 0x0, symName: __ZNSt3__16__copyB7v160006INS_17_ClassicAlgPolicyEPNS_4pairIyyEES4_S4_EENS2_IT0_T2_EES5_T1_S6_, symObjAddr: 0x7F0C, symBinAddr: 0x100009648, symSize: 0x44 }
  - { offsetInCU: 0x17781, offset: 0x17781, size: 0x8, addend: 0x0, symName: __ZNSt3__123__dispatch_copy_or_moveB7v160006INS_17_ClassicAlgPolicyENS_11__copy_loopIS1_EENS_14__copy_trivialEPNS_4pairIyyEES7_S7_EENS5_IT2_T4_EES8_T3_S9_, symObjAddr: 0x7F50, symBinAddr: 0x10000968C, symSize: 0x44 }
  - { offsetInCU: 0x177FF, offset: 0x177FF, size: 0x8, addend: 0x0, symName: __ZNSt3__121__unwrap_and_dispatchB7v160006INS_10__overloadINS_11__copy_loopINS_17_ClassicAlgPolicyEEENS_14__copy_trivialEEEPNS_4pairIyyEES9_S9_Li0EEENS7_IT0_T2_EESA_T1_SB_, symObjAddr: 0x7F94, symBinAddr: 0x1000096D0, symSize: 0xB4 }
  - { offsetInCU: 0x1788D, offset: 0x1788D, size: 0x8, addend: 0x0, symName: __ZNSt3__130__uninitialized_allocator_copyB7v160006INS_9allocatorINS_4pairIyyEEEEPS3_S5_S5_EET2_RT_T0_T1_S6_, symObjAddr: 0x8048, symBinAddr: 0x100009784, symSize: 0xF4 }
  - { offsetInCU: 0x1792B, offset: 0x1792B, size: 0x8, addend: 0x0, symName: __ZNSt3__118__debug_db_erase_cB7v160006INS_6vectorINS_4pairIyyEENS_9allocatorIS3_EEEEEEvPT_, symObjAddr: 0x8284, symBinAddr: 0x1000099C0, symSize: 0x10 }
  - { offsetInCU: 0x1795C, offset: 0x1795C, size: 0x8, addend: 0x0, symName: __ZNSt3__119__debug_db_insert_cB7v160006INS_12basic_stringIcNS_11char_traitsIcEENS_9allocatorIcEEEEEEvPT_, symObjAddr: 0x8324, symBinAddr: 0x100009A60, symSize: 0x10 }
  - { offsetInCU: 0x1798D, offset: 0x1798D, size: 0x8, addend: 0x0, symName: __ZNSt3__118__constexpr_strlenB7v160006EPKc, symObjAddr: 0x84FC, symBinAddr: 0x100009C38, symSize: 0x24 }
  - { offsetInCU: 0x179B9, offset: 0x179B9, size: 0x8, addend: 0x0, symName: __ZNSt3__119__debug_db_insert_cB7v160006INS_6vectorIcNS_9allocatorIcEEEEEEvPT_, symObjAddr: 0x85B4, symBinAddr: 0x100009CF0, symSize: 0x10 }
  - { offsetInCU: 0x179EA, offset: 0x179EA, size: 0x8, addend: 0x0, symName: __ZNSt3__119__debug_db_insert_cB7v160006INS_6vectorINS_12basic_stringIcNS_11char_traitsIcEENS_9allocatorIcEEEENS5_IS7_EEEEEEvPT_, symObjAddr: 0x86B4, symBinAddr: 0x100009DF0, symSize: 0x10 }
  - { offsetInCU: 0x17A1B, offset: 0x17A1B, size: 0x8, addend: 0x0, symName: __ZNSt3__112__to_addressB7v160006INS_12basic_stringIcNS_11char_traitsIcEENS_9allocatorIcEEEEEEPT_S8_, symObjAddr: 0x89E8, symBinAddr: 0x10000A124, symSize: 0x14 }
  - { offsetInCU: 0x17A75, offset: 0x17A75, size: 0x8, addend: 0x0, symName: __ZNSt3__112construct_atB7v160006INS_12basic_stringIcNS_11char_traitsIcEENS_9allocatorIcEEEEJRKS6_EPS6_EEPT_SB_DpOT0_, symObjAddr: 0x8A74, symBinAddr: 0x10000A1B0, symSize: 0x3C }
  - { offsetInCU: 0x17AE5, offset: 0x17AE5, size: 0x8, addend: 0x0, symName: __ZNSt3__119__allocate_at_leastB7v160006INS_9allocatorINS_12basic_stringIcNS_11char_traitsIcEENS1_IcEEEEEEEENS_19__allocation_resultINS_16allocator_traitsIT_E7pointerEEERSA_m, symObjAddr: 0x9004, symBinAddr: 0x10000A740, symSize: 0x40 }
  - { offsetInCU: 0x17B28, offset: 0x17B28, size: 0x8, addend: 0x0, symName: __ZNSt3__142__uninitialized_allocator_move_if_noexceptB7v160006INS_9allocatorINS_12basic_stringIcNS_11char_traitsIcEENS1_IcEEEEEENS_16reverse_iteratorIPS6_EESA_SA_EET2_RT_T0_T1_SB_, symObjAddr: 0x9290, symBinAddr: 0x10000A9CC, symSize: 0x12C }
  - { offsetInCU: 0x17BC8, offset: 0x17BC8, size: 0x8, addend: 0x0, symName: __ZNSt3__14swapB7v160006IPNS_12basic_stringIcNS_11char_traitsIcEENS_9allocatorIcEEEEEENS_9enable_ifIXaasr21is_move_constructibleIT_EE5valuesr18is_move_assignableIS9_EE5valueEvE4typeERS9_SC_, symObjAddr: 0x9408, symBinAddr: 0x10000AB44, symSize: 0x3C }
  - { offsetInCU: 0x17C19, offset: 0x17C19, size: 0x8, addend: 0x0, symName: __ZNSt3__125__debug_db_invalidate_allB7v160006INS_6vectorINS_12basic_stringIcNS_11char_traitsIcEENS_9allocatorIcEEEENS5_IS7_EEEEEEvPT_, symObjAddr: 0x950C, symBinAddr: 0x10000AC48, symSize: 0x10 }
  - { offsetInCU: 0x17C4A, offset: 0x17C4A, size: 0x8, addend: 0x0, symName: __ZNSt3__122__make_exception_guardB7v160006INS_29_AllocatorDestroyRangeReverseINS_9allocatorINS_12basic_stringIcNS_11char_traitsIcEENS2_IcEEEEEENS_16reverse_iteratorIPS7_EEEEEENS_28__exception_guard_exceptionsIT_EESE_, symObjAddr: 0x9564, symBinAddr: 0x10000ACA0, symSize: 0x4C }
  - { offsetInCU: 0x17C80, offset: 0x17C80, size: 0x8, addend: 0x0, symName: __ZNSt3__1neB7v160006IPNS_12basic_stringIcNS_11char_traitsIcEENS_9allocatorIcEEEES7_EEbRKNS_16reverse_iteratorIT_EERKNS8_IT0_EE, symObjAddr: 0x95F4, symBinAddr: 0x10000AD30, symSize: 0x48 }
  - { offsetInCU: 0x17CCC, offset: 0x17CCC, size: 0x8, addend: 0x0, symName: __ZNSt3__112__to_addressB7v160006INS_16reverse_iteratorIPNS_12basic_stringIcNS_11char_traitsIcEENS_9allocatorIcEEEEEEvEENS_5decayIDTclsr19__to_address_helperIT_EE6__callclsr3stdE7declvalIRKSB_EEEEE4typeESD_, symObjAddr: 0x966C, symBinAddr: 0x10000ADA8, symSize: 0x24 }
  - { offsetInCU: 0x17D02, offset: 0x17D02, size: 0x8, addend: 0x0, symName: __ZNSt3__112construct_atB7v160006INS_12basic_stringIcNS_11char_traitsIcEENS_9allocatorIcEEEEJS6_EPS6_EEPT_S9_DpOT0_, symObjAddr: 0x97BC, symBinAddr: 0x10000AEF8, symSize: 0x3C }
  - { offsetInCU: 0x17D72, offset: 0x17D72, size: 0x8, addend: 0x0, symName: __ZNSt3__115__debug_db_swapB7v160006INS_12basic_stringIcNS_11char_traitsIcEENS_9allocatorIcEEEEEEvPT_S8_, symObjAddr: 0x98AC, symBinAddr: 0x10000AFE8, symSize: 0x14 }
  - { offsetInCU: 0x17DDA, offset: 0x17DDA, size: 0x8, addend: 0x0, symName: __ZNSt3__14prevB7v160006IPNS_12basic_stringIcNS_11char_traitsIcEENS_9allocatorIcEEEEEENS_9enable_ifIXsr25__is_cpp17_input_iteratorIT_EE5valueES9_E4typeES9_NS_15iterator_traitsIS9_E15difference_typeE, symObjAddr: 0x9924, symBinAddr: 0x10000B060, symSize: 0x50 }
  - { offsetInCU: 0x17E1D, offset: 0x17E1D, size: 0x8, addend: 0x0, symName: __ZNSt3__19__advanceB7v160006IPNS_12basic_stringIcNS_11char_traitsIcEENS_9allocatorIcEEEEEEvRT_NS_15iterator_traitsIS8_E15difference_typeENS_26random_access_iterator_tagE, symObjAddr: 0x99C4, symBinAddr: 0x10000B100, symSize: 0x30 }
  - { offsetInCU: 0x17E66, offset: 0x17E66, size: 0x8, addend: 0x0, symName: __ZNSt3__119__allocator_destroyB7v160006INS_9allocatorINS_12basic_stringIcNS_11char_traitsIcEENS1_IcEEEEEENS_16reverse_iteratorINS8_IPS6_EEEESB_EEvRT_T0_T1_, symObjAddr: 0x9AF8, symBinAddr: 0x10000B234, symSize: 0x70 }
  - { offsetInCU: 0x17ECB, offset: 0x17ECB, size: 0x8, addend: 0x0, symName: __ZNSt3__1neB7v160006INS_16reverse_iteratorIPNS_12basic_stringIcNS_11char_traitsIcEENS_9allocatorIcEEEEEES9_EEbRKNS1_IT_EERKNS1_IT0_EE, symObjAddr: 0x9BA4, symBinAddr: 0x10000B2E0, symSize: 0x60 }
  - { offsetInCU: 0x17F17, offset: 0x17F17, size: 0x8, addend: 0x0, symName: __ZNSt3__112__to_addressB7v160006INS_16reverse_iteratorINS1_IPNS_12basic_stringIcNS_11char_traitsIcEENS_9allocatorIcEEEEEEEEvEENS_5decayIDTclsr19__to_address_helperIT_EE6__callclsr3stdE7declvalIRKSC_EEEEE4typeESE_, symObjAddr: 0x9C2C, symBinAddr: 0x10000B368, symSize: 0x24 }
  - { offsetInCU: 0x17F4D, offset: 0x17F4D, size: 0x8, addend: 0x0, symName: __ZNSt3__110destroy_atB7v160006INS_12basic_stringIcNS_11char_traitsIcEENS_9allocatorIcEEEELi0EEEvPT_, symObjAddr: 0x9CA4, symBinAddr: 0x10000B3E0, symSize: 0x24 }
  - { offsetInCU: 0x17F84, offset: 0x17F84, size: 0x8, addend: 0x0, symName: __ZNSt3__112__destroy_atB7v160006INS_12basic_stringIcNS_11char_traitsIcEENS_9allocatorIcEEEELi0EEEvPT_, symObjAddr: 0x9CC8, symBinAddr: 0x10000B404, symSize: 0x24 }
  - { offsetInCU: 0x17FE4, offset: 0x17FE4, size: 0x8, addend: 0x0, symName: __ZNSt3__14prevB7v160006INS_16reverse_iteratorIPNS_12basic_stringIcNS_11char_traitsIcEENS_9allocatorIcEEEEEEEENS_9enable_ifIXsr25__is_cpp17_input_iteratorIT_EE5valueESB_E4typeESB_NS_15iterator_traitsISB_E15difference_typeE, symObjAddr: 0x9D70, symBinAddr: 0x10000B4AC, symSize: 0x60 }
  - { offsetInCU: 0x18027, offset: 0x18027, size: 0x8, addend: 0x0, symName: __ZNSt3__19__advanceB7v160006INS_16reverse_iteratorIPNS_12basic_stringIcNS_11char_traitsIcEENS_9allocatorIcEEEEEEEEvRT_NS_15iterator_traitsISA_E15difference_typeENS_26random_access_iterator_tagE, symObjAddr: 0x9E20, symBinAddr: 0x10000B55C, symSize: 0x2C }
  - { offsetInCU: 0x18070, offset: 0x18070, size: 0x8, addend: 0x0, symName: __ZNSt3__1eqB7v160006IcNS_11char_traitsIcEEEEbNS_17basic_string_viewIT_T0_EES6_, symObjAddr: 0xA1B0, symBinAddr: 0x10000B8EC, symSize: 0xB0 }
  - { offsetInCU: 0x180BF, offset: 0x180BF, size: 0x8, addend: 0x0, symName: __ZNSt3__118__constexpr_memcmpB7v160006IcEEiPKT_S3_m, symObjAddr: 0xA4BC, symBinAddr: 0x10000BBF8, symSize: 0x34 }
  - { offsetInCU: 0x18110, offset: 0x18110, size: 0x8, addend: 0x0, symName: __ZNSt3__128__char_traits_length_checkedB7v160006INS_11char_traitsIcEEEEmPKNT_9char_typeE, symObjAddr: 0xA5C0, symBinAddr: 0x10000BCFC, symSize: 0x24 }
  - { offsetInCU: 0x18145, offset: 0x18145, size: 0x8, addend: 0x0, symName: __ZNSt3__14copyB7v160006IPKcPcEET0_T_S5_S4_, symObjAddr: 0xAF48, symBinAddr: 0x10000C684, symSize: 0x40 }
  - { offsetInCU: 0x1819F, offset: 0x1819F, size: 0x8, addend: 0x0, symName: __ZNSt3__16__copyB7v160006INS_17_ClassicAlgPolicyEPKcS3_PcEENS_4pairIT0_T2_EES6_T1_S7_, symObjAddr: 0xAF88, symBinAddr: 0x10000C6C4, symSize: 0x44 }
  - { offsetInCU: 0x1820B, offset: 0x1820B, size: 0x8, addend: 0x0, symName: __ZNSt3__123__dispatch_copy_or_moveB7v160006INS_17_ClassicAlgPolicyENS_11__copy_loopIS1_EENS_14__copy_trivialEPKcS6_PcEENS_4pairIT2_T4_EES9_T3_SA_, symObjAddr: 0xAFCC, symBinAddr: 0x10000C708, symSize: 0x44 }
  - { offsetInCU: 0x18289, offset: 0x18289, size: 0x8, addend: 0x0, symName: __ZNSt3__121__unwrap_and_dispatchB7v160006INS_10__overloadINS_11__copy_loopINS_17_ClassicAlgPolicyEEENS_14__copy_trivialEEEPKcS8_PcLi0EEENS_4pairIT0_T2_EESB_T1_SC_, symObjAddr: 0xB010, symBinAddr: 0x10000C74C, symSize: 0xB4 }
  - { offsetInCU: 0x18317, offset: 0x18317, size: 0x8, addend: 0x0, symName: __ZNSt3__114__unwrap_rangeB7v160006IPKcS2_EEDaT_T0_, symObjAddr: 0xB0C4, symBinAddr: 0x10000C800, symSize: 0x3C }
  - { offsetInCU: 0x184AC, offset: 0x184AC, size: 0x8, addend: 0x0, symName: __ZNSt3__19make_pairB7v160006IPKcPcEENS_4pairINS_18__unwrap_ref_decayIT_E4typeENS5_IT0_E4typeEEEOS6_OS9_, symObjAddr: 0xB148, symBinAddr: 0x10000C884, symSize: 0x38 }
  - { offsetInCU: 0x184FB, offset: 0x184FB, size: 0x8, addend: 0x0, symName: __ZNSt3__114__rewrap_rangeB7v160006IPKcS2_S2_EET0_S3_T1_, symObjAddr: 0xB180, symBinAddr: 0x10000C8BC, symSize: 0x2C }
  - { offsetInCU: 0x1866C, offset: 0x1866C, size: 0x8, addend: 0x0, symName: __ZNSt3__113__unwrap_iterB7v160006IPKcNS_18__unwrap_iter_implIS2_Lb1EEELi0EEEDTclsrT0_8__unwrapclsr3stdE7declvalIT_EEEES6_, symObjAddr: 0xB204, symBinAddr: 0x10000C940, symSize: 0x24 }
  - { offsetInCU: 0x18703, offset: 0x18703, size: 0x8, addend: 0x0, symName: __ZNSt3__119__copy_trivial_implB7v160006IKccEENS_4pairIPT_PT0_EES4_S4_S6_, symObjAddr: 0xB2BC, symBinAddr: 0x10000C9F8, symSize: 0x7C }
  - { offsetInCU: 0x1876B, offset: 0x1876B, size: 0x8, addend: 0x0, symName: __ZNSt3__19make_pairB7v160006IRPKcPcEENS_4pairINS_18__unwrap_ref_decayIT_E4typeENS6_IT0_E4typeEEEOS7_OSA_, symObjAddr: 0xB338, symBinAddr: 0x10000CA74, symSize: 0x38 }
  - { offsetInCU: 0x187BA, offset: 0x187BA, size: 0x8, addend: 0x0, symName: __ZNSt3__113__rewrap_iterB7v160006IPKcS2_NS_18__unwrap_iter_implIS2_Lb1EEEEET_S5_T0_, symObjAddr: 0xB47C, symBinAddr: 0x10000CBB8, symSize: 0x3C }
  - { offsetInCU: 0x1880F, offset: 0x1880F, size: 0x8, addend: 0x0, symName: __ZNSt3__16fill_nB7v160006IPcmcEET_S2_T0_RKT1_, symObjAddr: 0xB500, symBinAddr: 0x10000CC3C, symSize: 0x44 }
  - { offsetInCU: 0x18872, offset: 0x18872, size: 0x8, addend: 0x0, symName: __ZNSt3__18__fill_nB7v160006IPcmcEET_S2_T0_RKT1_, symObjAddr: 0xB544, symBinAddr: 0x10000CC80, symSize: 0x64 }
  - { offsetInCU: 0x188FA, offset: 0x188FA, size: 0x8, addend: 0x0, symName: __ZNSt3__112construct_atB7v160006IcJRKcEPcEEPT_S5_DpOT0_, symObjAddr: 0xB8F8, symBinAddr: 0x10000D034, symSize: 0x2C }
  - { offsetInCU: 0x1896A, offset: 0x1896A, size: 0x8, addend: 0x0, symName: __ZNSt3__119__allocate_at_leastB7v160006INS_9allocatorIcEEEENS_19__allocation_resultINS_16allocator_traitsIT_E7pointerEEERS5_m, symObjAddr: 0xBD58, symBinAddr: 0x10000D494, symSize: 0x40 }
  - { offsetInCU: 0x189AD, offset: 0x189AD, size: 0x8, addend: 0x0, symName: __ZNSt3__142__uninitialized_allocator_move_if_noexceptB7v160006INS_9allocatorIcEENS_16reverse_iteratorIPcEES5_cvEET1_RT_T0_S9_S6_, symObjAddr: 0xBF6C, symBinAddr: 0x10000D6A8, symSize: 0x78 }
  - { offsetInCU: 0x18A2A, offset: 0x18A2A, size: 0x8, addend: 0x0, symName: __ZNSt3__14swapB7v160006IPcEENS_9enable_ifIXaasr21is_move_constructibleIT_EE5valuesr18is_move_assignableIS3_EE5valueEvE4typeERS3_S6_, symObjAddr: 0xC030, symBinAddr: 0x10000D76C, symSize: 0x3C }
  - { offsetInCU: 0x18A7B, offset: 0x18A7B, size: 0x8, addend: 0x0, symName: __ZNSt3__125__debug_db_invalidate_allB7v160006INS_6vectorIcNS_9allocatorIcEEEEEEvPT_, symObjAddr: 0xC118, symBinAddr: 0x10000D854, symSize: 0x10 }
  - { offsetInCU: 0x18AAC, offset: 0x18AAC, size: 0x8, addend: 0x0, symName: __ZNSt3__14moveB7v160006INS_16reverse_iteratorIPcEES3_EET0_T_S5_S4_, symObjAddr: 0xC128, symBinAddr: 0x10000D864, symSize: 0x78 }
  - { offsetInCU: 0x18B06, offset: 0x18B06, size: 0x8, addend: 0x0, symName: __ZNSt3__16__moveB7v160006INS_17_ClassicAlgPolicyENS_16reverse_iteratorIPcEES4_S4_EENS_4pairIT0_T2_EES6_T1_S7_, symObjAddr: 0xC1A0, symBinAddr: 0x10000D8DC, symSize: 0x64 }
  - { offsetInCU: 0x18B72, offset: 0x18B72, size: 0x8, addend: 0x0, symName: __ZNSt3__123__dispatch_copy_or_moveB7v160006INS_17_ClassicAlgPolicyENS_11__move_loopIS1_EENS_14__move_trivialENS_16reverse_iteratorIPcEES7_S7_EENS_4pairIT2_T4_EES9_T3_SA_, symObjAddr: 0xC204, symBinAddr: 0x10000D940, symSize: 0x64 }
  - { offsetInCU: 0x18BF0, offset: 0x18BF0, size: 0x8, addend: 0x0, symName: __ZNSt3__121__unwrap_and_dispatchB7v160006INS_10__overloadINS_11__move_loopINS_17_ClassicAlgPolicyEEENS_14__move_trivialEEENS_16reverse_iteratorIPcEES9_S9_Li0EEENS_4pairIT0_T2_EESB_T1_SC_, symObjAddr: 0xC268, symBinAddr: 0x10000D9A4, symSize: 0x12C }
  - { offsetInCU: 0x18C80, offset: 0x18C80, size: 0x8, addend: 0x0, symName: __ZNSt3__114__unwrap_rangeB7v160006INS_16reverse_iteratorIPcEES3_EEDaT_T0_, symObjAddr: 0xC394, symBinAddr: 0x10000DAD0, symSize: 0x4C }
  - { offsetInCU: 0x18DF2, offset: 0x18DF2, size: 0x8, addend: 0x0, symName: __ZNSt3__113__unwrap_iterB7v160006INS_16reverse_iteratorIPcEENS_18__unwrap_iter_implIS3_Lb0EEELi0EEEDTclsrT0_8__unwrapclsr3stdE7declvalIT_EEEES7_, symObjAddr: 0xC480, symBinAddr: 0x10000DBBC, symSize: 0x44 }
  - { offsetInCU: 0x18E36, offset: 0x18E36, size: 0x8, addend: 0x0, symName: __ZNSt3__19make_pairB7v160006INS_16reverse_iteratorIPcEES3_EENS_4pairINS_18__unwrap_ref_decayIT_E4typeENS5_IT0_E4typeEEEOS6_OS9_, symObjAddr: 0xC4C4, symBinAddr: 0x10000DC00, symSize: 0x38 }
  - { offsetInCU: 0x18E85, offset: 0x18E85, size: 0x8, addend: 0x0, symName: __ZNSt3__114__rewrap_rangeB7v160006INS_16reverse_iteratorIPcEES3_S3_EET0_S4_T1_, symObjAddr: 0xC4FC, symBinAddr: 0x10000DC38, symSize: 0x5C }
  - { offsetInCU: 0x18EDA, offset: 0x18EDA, size: 0x8, addend: 0x0, symName: __ZNSt3__113__rewrap_iterB7v160006INS_16reverse_iteratorIPcEES3_NS_18__unwrap_iter_implIS3_Lb0EEEEET_S6_T0_, symObjAddr: 0xC558, symBinAddr: 0x10000DC94, symSize: 0x74 }
  - { offsetInCU: 0x18F7F, offset: 0x18F7F, size: 0x8, addend: 0x0, symName: __ZNSt3__1neB7v160006IPcS1_EEbRKNS_16reverse_iteratorIT_EERKNS2_IT0_EE, symObjAddr: 0xC6C0, symBinAddr: 0x10000DDFC, symSize: 0x48 }
  - { offsetInCU: 0x19037, offset: 0x19037, size: 0x8, addend: 0x0, symName: __ZNSt3__118__debug_db_erase_cB7v160006INS_6vectorINS_12basic_stringIcNS_11char_traitsIcEENS_9allocatorIcEEEENS5_IS7_EEEEEEvPT_, symObjAddr: 0xCBDC, symBinAddr: 0x10000E318, symSize: 0x10 }
  - { offsetInCU: 0x19068, offset: 0x19068, size: 0x8, addend: 0x0, symName: __ZNSt3__118__debug_db_erase_cB7v160006INS_6vectorIcNS_9allocatorIcEEEEEEvPT_, symObjAddr: 0xCDD4, symBinAddr: 0x10000E510, symSize: 0x10 }
  - { offsetInCU: 0x19099, offset: 0x19099, size: 0x8, addend: 0x0, symName: __ZNSt3__17getlineB7v160006IcNS_11char_traitsIcEENS_9allocatorIcEEEERNS_13basic_istreamIT_T0_EES9_RNS_12basic_stringIS6_S7_T1_EES6_, symObjAddr: 0xD010, symBinAddr: 0x10000E74C, symSize: 0x238 }
  - { offsetInCU: 0x19157, offset: 0x19157, size: 0x8, addend: 0x0, symName: __ZNSt3__125__debug_db_invalidate_allB7v160006INS_12basic_stringIcNS_11char_traitsIcEENS_9allocatorIcEEEEEEvPT_, symObjAddr: 0xD4FC, symBinAddr: 0x10000EC38, symSize: 0x10 }
  - { offsetInCU: 0x19188, offset: 0x19188, size: 0x8, addend: 0x0, symName: __ZNSt3__19use_facetB7v160006INS_5ctypeIcEEEERKT_RKNS_6localeE, symObjAddr: 0xD574, symBinAddr: 0x10000ECB0, symSize: 0x2C }
  - { offsetInCU: 0x19D96, offset: 0x19D96, size: 0x8, addend: 0x0, symName: __ZSt28__throw_bad_array_new_lengthB7v160006v, symObjAddr: 0x4FF4, symBinAddr: 0x100006730, symSize: 0x34 }
  - { offsetInCU: 0x1ABD1, offset: 0x1ABD1, size: 0x8, addend: 0x0, symName: __ZNSt3__16vectorINS_4pairIyyEENS_9allocatorIS2_EEE26__swap_out_circular_bufferERNS_14__split_bufferIS2_RS4_EE, symObjAddr: 0x485C, symBinAddr: 0x100005F98, symSize: 0x118 }
  - { offsetInCU: 0x1AC94, offset: 0x1AC94, size: 0x8, addend: 0x0, symName: __ZNSt3__16vectorINS_4pairIyyEENS_9allocatorIS2_EEE26__swap_out_circular_bufferERNS_14__split_bufferIS2_RS4_EEPS2_, symObjAddr: 0x6494, symBinAddr: 0x100007BD0, symSize: 0x154 }
  - { offsetInCU: 0x1ACFA, offset: 0x1ACFA, size: 0x8, addend: 0x0, symName: __ZNSt3__16vectorINS_12basic_stringIcNS_11char_traitsIcEENS_9allocatorIcEEEENS4_IS6_EEE26__swap_out_circular_bufferERNS_14__split_bufferIS6_RS7_EE, symObjAddr: 0x8C00, symBinAddr: 0x10000A33C, symSize: 0x118 }
  - { offsetInCU: 0x1AD92, offset: 0x1AD92, size: 0x8, addend: 0x0, symName: __ZNSt3__16vectorIcNS_9allocatorIcEEE26__swap_out_circular_bufferERNS_14__split_bufferIcRS2_EE, symObjAddr: 0xBA3C, symBinAddr: 0x10000D178, symSize: 0x118 }
  - { offsetInCU: 0x1D00B, offset: 0x1D00B, size: 0x8, addend: 0x0, symName: __Z9do_a_moveRNSt3__16vectorIcNS_9allocatorIcEEEERNS0_INS_12basic_stringIcNS_11char_traitsIcEES2_EENS1_IS8_EEEEyyyy, symObjAddr: 0x0, symBinAddr: 0x10000173C, symSize: 0x6CC }
  - { offsetInCU: 0x1D119, offset: 0x1D119, size: 0x8, addend: 0x0, symName: __ZNKSt3__16vectorIcNS_9allocatorIcEEE5emptyB7v160006Ev, symObjAddr: 0x6CC, symBinAddr: 0x100001E08, symSize: 0x28 }
  - { offsetInCU: 0x1D13F, offset: 0x1D13F, size: 0x8, addend: 0x0, symName: __ZNSt3__16vectorIcNS_9allocatorIcEEE5frontB7v160006Ev, symObjAddr: 0x6F4, symBinAddr: 0x100001E30, symSize: 0x18 }
  - { offsetInCU: 0x1D165, offset: 0x1D165, size: 0x8, addend: 0x0, symName: __ZNSt3__16vectorIcNS_9allocatorIcEEE5eraseB7v160006ENS_11__wrap_iterIPKcEE, symObjAddr: 0x70C, symBinAddr: 0x100001E48, symSize: 0xA4 }
  - { offsetInCU: 0x1D1BA, offset: 0x1D1BA, size: 0x8, addend: 0x0, symName: __ZNSt3__16vectorIcNS_9allocatorIcEEE5beginB7v160006Ev, symObjAddr: 0x7B0, symBinAddr: 0x100001EEC, symSize: 0x30 }
  - { offsetInCU: 0x1D1ED, offset: 0x1D1ED, size: 0x8, addend: 0x0, symName: __ZNSt3__111__wrap_iterIPKcEC1B7v160006IPcEERKNS0_IT_EEPNS_9enable_ifIXsr14is_convertibleIS6_S2_EE5valueEvE4typeE, symObjAddr: 0x7E0, symBinAddr: 0x100001F1C, symSize: 0x3C }
  - { offsetInCU: 0x1D238, offset: 0x1D238, size: 0x8, addend: 0x0, symName: __ZNSt3__16vectorINS_12basic_stringIcNS_11char_traitsIcEENS_9allocatorIcEEEENS4_IS6_EEE2atEm, symObjAddr: 0x81C, symBinAddr: 0x100001F58, symSize: 0x68 }
  - { offsetInCU: 0x1D26F, offset: 0x1D26F, size: 0x8, addend: 0x0, symName: __ZNKSt3__16vectorINS_12basic_stringIcNS_11char_traitsIcEENS_9allocatorIcEEEENS4_IS6_EEE4sizeB7v160006Ev, symObjAddr: 0x884, symBinAddr: 0x100001FC0, symSize: 0x28 }
  - { offsetInCU: 0x1D295, offset: 0x1D295, size: 0x8, addend: 0x0, symName: __ZNKSt3__112basic_stringIcNS_11char_traitsIcEENS_9allocatorIcEEE5c_strB7v160006Ev, symObjAddr: 0x8AC, symBinAddr: 0x100001FE8, symSize: 0x24 }
  - { offsetInCU: 0x1D2BA, offset: 0x1D2BA, size: 0x8, addend: 0x0, symName: __Z13do_a_new_movecRNSt3__16vectorINS_12basic_stringIcNS_11char_traitsIcEENS_9allocatorIcEEEENS4_IS6_EEEERySA_yy, symObjAddr: 0x8D0, symBinAddr: 0x10000200C, symSize: 0x157C }
  - { offsetInCU: 0x1D5C7, offset: 0x1D5C7, size: 0x8, addend: 0x0, symName: __ZNSt3__16vectorINS_4pairIyyEENS_9allocatorIS2_EEEC1B7v160006Ev, symObjAddr: 0x1E4C, symBinAddr: 0x100003588, symSize: 0x2C }
  - { offsetInCU: 0x1D5F1, offset: 0x1D5F1, size: 0x8, addend: 0x0, symName: __ZNSt3__16vectorINS_4pairIyyEENS_9allocatorIS2_EEE9push_backB7v160006EOS2_, symObjAddr: 0x1E78, symBinAddr: 0x1000035B4, symSize: 0x6C }
  - { offsetInCU: 0x1D62E, offset: 0x1D62E, size: 0x8, addend: 0x0, symName: __ZNSt3__14pairIyyEC1B7v160006IRyS3_LPv0EEEOT_OT0_, symObjAddr: 0x1EE4, symBinAddr: 0x100003620, symSize: 0x3C }
  - { offsetInCU: 0x1D68C, offset: 0x1D68C, size: 0x8, addend: 0x0, symName: __ZNKSt3__16vectorINS_4pairIyyEENS_9allocatorIS2_EEE5emptyB7v160006Ev, symObjAddr: 0x1F20, symBinAddr: 0x10000365C, symSize: 0x28 }
  - { offsetInCU: 0x1D6B2, offset: 0x1D6B2, size: 0x8, addend: 0x0, symName: __ZNSt3__16vectorINS_4pairIyyEENS_9allocatorIS2_EEE6insertINS_11__wrap_iterIPS2_EELi0EEES9_NS7_IPKS2_EET_SD_, symObjAddr: 0x1F48, symBinAddr: 0x100003684, symSize: 0x318 }
  - { offsetInCU: 0x1D7C7, offset: 0x1D7C7, size: 0x8, addend: 0x0, symName: __ZNSt3__16vectorINS_4pairIyyEENS_9allocatorIS2_EEE3endB7v160006Ev, symObjAddr: 0x2260, symBinAddr: 0x10000399C, symSize: 0x30 }
  - { offsetInCU: 0x1D7F5, offset: 0x1D7F5, size: 0x8, addend: 0x0, symName: __ZNSt3__111__wrap_iterIPKNS_4pairIyyEEEC1B7v160006IPS2_EERKNS0_IT_EEPNS_9enable_ifIXsr14is_convertibleIS8_S4_EE5valueEvE4typeE, symObjAddr: 0x2290, symBinAddr: 0x1000039CC, symSize: 0x3C }
  - { offsetInCU: 0x1D840, offset: 0x1D840, size: 0x8, addend: 0x0, symName: __ZNSt3__16vectorINS_4pairIyyEENS_9allocatorIS2_EEE5beginB7v160006Ev, symObjAddr: 0x22CC, symBinAddr: 0x100003A08, symSize: 0x30 }
  - { offsetInCU: 0x1D868, offset: 0x1D868, size: 0x8, addend: 0x0, symName: __ZNSt3__16vectorINS_4pairIyyEENS_9allocatorIS2_EEE5clearB7v160006Ev, symObjAddr: 0x22FC, symBinAddr: 0x100003A38, symSize: 0x4C }
  - { offsetInCU: 0x1D89D, offset: 0x1D89D, size: 0x8, addend: 0x0, symName: __ZNKSt3__111__wrap_iterIPNS_4pairIyyEEEdeB7v160006Ev, symObjAddr: 0x2390, symBinAddr: 0x100003ACC, symSize: 0x18 }
  - { offsetInCU: 0x1D8C9, offset: 0x1D8C9, size: 0x8, addend: 0x0, symName: __ZNSt3__14pairIyyEC1B7v160006IRyyLPv0EEEOT_OT0_, symObjAddr: 0x23A8, symBinAddr: 0x100003AE4, symSize: 0x3C }
  - { offsetInCU: 0x1D927, offset: 0x1D927, size: 0x8, addend: 0x0, symName: __ZNSt3__111__wrap_iterIPNS_4pairIyyEEEppB7v160006Ev, symObjAddr: 0x23E4, symBinAddr: 0x100003B20, symSize: 0x20 }
  - { offsetInCU: 0x1D94D, offset: 0x1D94D, size: 0x8, addend: 0x0, symName: __ZNSt3__16vectorINS_4pairIyyEENS_9allocatorIS2_EEEaSB7v160006ERKS5_, symObjAddr: 0x2404, symBinAddr: 0x100003B40, symSize: 0x68 }
  - { offsetInCU: 0x1D984, offset: 0x1D984, size: 0x8, addend: 0x0, symName: __ZNSt3__16vectorINS_4pairIyyEENS_9allocatorIS2_EEED1B7v160006Ev, symObjAddr: 0x246C, symBinAddr: 0x100003BA8, symSize: 0x2C }
  - { offsetInCU: 0x1D9AE, offset: 0x1D9AE, size: 0x8, addend: 0x0, symName: _main, symObjAddr: 0x2498, symBinAddr: 0x100003BD4, symSize: 0x7F8 }
  - { offsetInCU: 0x1DB5A, offset: 0x1DB5A, size: 0x8, addend: 0x0, symName: __ZNSt3__112basic_stringIcNS_11char_traitsIcEENS_9allocatorIcEEEC1B7v160006Ev, symObjAddr: 0x2C90, symBinAddr: 0x1000043CC, symSize: 0x2C }
  - { offsetInCU: 0x1DB89, offset: 0x1DB89, size: 0x8, addend: 0x0, symName: __ZNSt3__112basic_stringIcNS_11char_traitsIcEENS_9allocatorIcEEEC1B7v160006IDnEEPKc, symObjAddr: 0x2CBC, symBinAddr: 0x1000043F8, symSize: 0x34 }
  - { offsetInCU: 0x1DD7F, offset: 0x1DD7F, size: 0x8, addend: 0x0, symName: __ZNSt3__114basic_ifstreamIcNS_11char_traitsIcEEEC1EPKcj, symObjAddr: 0x2CF0, symBinAddr: 0x10000442C, symSize: 0x16C }
  - { offsetInCU: 0x1DDC9, offset: 0x1DDC9, size: 0x8, addend: 0x0, symName: __ZNSt3__16vectorIcNS_9allocatorIcEEEC1B7v160006Ev, symObjAddr: 0x2E5C, symBinAddr: 0x100004598, symSize: 0x2C }
  - { offsetInCU: 0x1DDF3, offset: 0x1DDF3, size: 0x8, addend: 0x0, symName: __ZNSt3__16vectorINS_12basic_stringIcNS_11char_traitsIcEENS_9allocatorIcEEEENS4_IS6_EEEC1B7v160006Ev, symObjAddr: 0x2E88, symBinAddr: 0x1000045C4, symSize: 0x2C }
  - { offsetInCU: 0x1DE1D, offset: 0x1DE1D, size: 0x8, addend: 0x0, symName: __ZNSt3__16vectorINS_12basic_stringIcNS_11char_traitsIcEENS_9allocatorIcEEEENS4_IS6_EEE9push_backB7v160006ERKS6_, symObjAddr: 0x2F10, symBinAddr: 0x10000464C, symSize: 0x6C }
  - { offsetInCU: 0x1DE54, offset: 0x1DE54, size: 0x8, addend: 0x0, symName: __ZNKSt3__112basic_stringIcNS_11char_traitsIcEENS_9allocatorIcEEE4sizeB7v160006Ev, symObjAddr: 0x2F7C, symBinAddr: 0x1000046B8, symSize: 0x54 }
  - { offsetInCU: 0x1DE7A, offset: 0x1DE7A, size: 0x8, addend: 0x0, symName: __ZNSt3__112basic_stringIcNS_11char_traitsIcEENS_9allocatorIcEEEpLB7v160006EPKc, symObjAddr: 0x2FD0, symBinAddr: 0x10000470C, symSize: 0x2C }
  - { offsetInCU: 0x1DEAF, offset: 0x1DEAF, size: 0x8, addend: 0x0, symName: __ZNSt3__112basic_stringIcNS_11char_traitsIcEENS_9allocatorIcEEEaSB7v160006EPKc, symObjAddr: 0x2FFC, symBinAddr: 0x100004738, symSize: 0x2C }
  - { offsetInCU: 0x1DEE4, offset: 0x1DEE4, size: 0x8, addend: 0x0, symName: __ZNSt3__16vectorINS_12basic_stringIcNS_11char_traitsIcEENS_9allocatorIcEEEENS4_IS6_EEE9push_backB7v160006EOS6_, symObjAddr: 0x3084, symBinAddr: 0x1000047C0, symSize: 0x6C }
  - { offsetInCU: 0x1DF1B, offset: 0x1DF1B, size: 0x8, addend: 0x0, symName: __ZNSt3__16vectorINS_12basic_stringIcNS_11char_traitsIcEENS_9allocatorIcEEEENS4_IS6_EEE5beginB7v160006Ev, symObjAddr: 0x3224, symBinAddr: 0x100004960, symSize: 0x30 }
  - { offsetInCU: 0x1DF43, offset: 0x1DF43, size: 0x8, addend: 0x0, symName: __ZNSt3__16vectorINS_12basic_stringIcNS_11char_traitsIcEENS_9allocatorIcEEEENS4_IS6_EEE3endB7v160006Ev, symObjAddr: 0x329C, symBinAddr: 0x1000049D8, symSize: 0x30 }
  - { offsetInCU: 0x1DF6B, offset: 0x1DF6B, size: 0x8, addend: 0x0, symName: __ZNKSt3__111__wrap_iterIPNS_12basic_stringIcNS_11char_traitsIcEENS_9allocatorIcEEEEEdeB7v160006Ev, symObjAddr: 0x32CC, symBinAddr: 0x100004A08, symSize: 0x18 }
  - { offsetInCU: 0x1DF91, offset: 0x1DF91, size: 0x8, addend: 0x0, symName: __ZNSt3__111__wrap_iterIPNS_12basic_stringIcNS_11char_traitsIcEENS_9allocatorIcEEEEEppB7v160006Ev, symObjAddr: 0x32E4, symBinAddr: 0x100004A20, symSize: 0x20 }
  - { offsetInCU: 0x1DFB7, offset: 0x1DFB7, size: 0x8, addend: 0x0, symName: __ZNKSt3__19basic_iosIcNS_11char_traitsIcEEEcvbB7v160006Ev, symObjAddr: 0x3304, symBinAddr: 0x100004A40, symSize: 0x2C }
  - { offsetInCU: 0x1DFDD, offset: 0x1DFDD, size: 0x8, addend: 0x0, symName: __ZNSt3__16vectorIcNS_9allocatorIcEEE9push_backB7v160006ERKc, symObjAddr: 0x3330, symBinAddr: 0x100004A6C, symSize: 0x6C }
  - { offsetInCU: 0x1E014, offset: 0x1E014, size: 0x8, addend: 0x0, symName: __ZNSt3__16vectorIcNS_9allocatorIcEEE3endB7v160006Ev, symObjAddr: 0x33E4, symBinAddr: 0x100004B20, symSize: 0x30 }
  - { offsetInCU: 0x1E03C, offset: 0x1E03C, size: 0x8, addend: 0x0, symName: __ZNKSt3__111__wrap_iterIPcEdeB7v160006Ev, symObjAddr: 0x3414, symBinAddr: 0x100004B50, symSize: 0x18 }
  - { offsetInCU: 0x1E062, offset: 0x1E062, size: 0x8, addend: 0x0, symName: __ZNSt3__16vectorINS_12basic_stringIcNS_11char_traitsIcEENS_9allocatorIcEEEENS4_IS6_EEE5frontB7v160006Ev, symObjAddr: 0x342C, symBinAddr: 0x100004B68, symSize: 0x18 }
  - { offsetInCU: 0x1E088, offset: 0x1E088, size: 0x8, addend: 0x0, symName: __ZNSt3__111__wrap_iterIPcEppB7v160006Ev, symObjAddr: 0x3444, symBinAddr: 0x100004B80, symSize: 0x20 }
  - { offsetInCU: 0x1E0AE, offset: 0x1E0AE, size: 0x8, addend: 0x0, symName: __ZNSt3__16vectorINS_12basic_stringIcNS_11char_traitsIcEENS_9allocatorIcEEEENS4_IS6_EEED1B7v160006Ev, symObjAddr: 0x3464, symBinAddr: 0x100004BA0, symSize: 0x2C }
  - { offsetInCU: 0x1E0D8, offset: 0x1E0D8, size: 0x8, addend: 0x0, symName: __ZNSt3__16vectorIcNS_9allocatorIcEEED1B7v160006Ev, symObjAddr: 0x3490, symBinAddr: 0x100004BCC, symSize: 0x2C }
  - { offsetInCU: 0x1E107, offset: 0x1E107, size: 0x8, addend: 0x0, symName: __ZNSt3__114basic_ifstreamIcNS_11char_traitsIcEEED1Ev, symObjAddr: 0x34BC, symBinAddr: 0x100004BF8, symSize: 0x40 }
  - { offsetInCU: 0x1E134, offset: 0x1E134, size: 0x8, addend: 0x0, symName: __ZNKSt3__16vectorIcNS_9allocatorIcEEE6cbeginB7v160006Ev, symObjAddr: 0x353C, symBinAddr: 0x100004C78, symSize: 0x2C }
  - { offsetInCU: 0x1E15A, offset: 0x1E15A, size: 0x8, addend: 0x0, symName: __ZNSt3__16vectorIcNS_9allocatorIcEEE17__destruct_at_endB7v160006EPc, symObjAddr: 0x3568, symBinAddr: 0x100004CA4, symSize: 0x60 }
  - { offsetInCU: 0x1E19E, offset: 0x1E19E, size: 0x8, addend: 0x0, symName: __ZNSt3__16vectorIcNS_9allocatorIcEEE27__invalidate_iterators_pastB7v160006EPc, symObjAddr: 0x3608, symBinAddr: 0x100004D44, symSize: 0x14 }
  - { offsetInCU: 0x1E1D5, offset: 0x1E1D5, size: 0x8, addend: 0x0, symName: __ZNSt3__16vectorIcNS_9allocatorIcEEE11__make_iterB7v160006EPc, symObjAddr: 0x361C, symBinAddr: 0x100004D58, symSize: 0x34 }
  - { offsetInCU: 0x1E20A, offset: 0x1E20A, size: 0x8, addend: 0x0, symName: __ZNKSt3__111__wrap_iterIPKcE4baseB7v160006Ev, symObjAddr: 0x3650, symBinAddr: 0x100004D8C, symSize: 0x18 }
  - { offsetInCU: 0x1E230, offset: 0x1E230, size: 0x8, addend: 0x0, symName: __ZNKSt3__16vectorIcNS_9allocatorIcEEE5beginB7v160006Ev, symObjAddr: 0x3668, symBinAddr: 0x100004DA4, symSize: 0x30 }
  - { offsetInCU: 0x1E258, offset: 0x1E258, size: 0x8, addend: 0x0, symName: __ZNKSt3__16vectorIcNS_9allocatorIcEEE11__make_iterB7v160006EPKc, symObjAddr: 0x3698, symBinAddr: 0x100004DD4, symSize: 0x34 }
  - { offsetInCU: 0x1E28D, offset: 0x1E28D, size: 0x8, addend: 0x0, symName: __ZNSt3__111__wrap_iterIPKcEC1B7v160006EPKvS2_, symObjAddr: 0x36CC, symBinAddr: 0x100004E08, symSize: 0x3C }
  - { offsetInCU: 0x1E2D3, offset: 0x1E2D3, size: 0x8, addend: 0x0, symName: __ZNSt3__111__wrap_iterIPKcEC2B7v160006EPKvS2_, symObjAddr: 0x3708, symBinAddr: 0x100004E44, symSize: 0x24 }
  - { offsetInCU: 0x1E319, offset: 0x1E319, size: 0x8, addend: 0x0, symName: __ZNKSt3__16vectorIcNS_9allocatorIcEEE4sizeB7v160006Ev, symObjAddr: 0x3738, symBinAddr: 0x100004E74, symSize: 0x20 }
  - { offsetInCU: 0x1E33F, offset: 0x1E33F, size: 0x8, addend: 0x0, symName: __ZNSt3__16vectorIcNS_9allocatorIcEEE22__base_destruct_at_endB7v160006EPc, symObjAddr: 0x3758, symBinAddr: 0x100004E94, symSize: 0x8C }
  - { offsetInCU: 0x1E383, offset: 0x1E383, size: 0x8, addend: 0x0, symName: __ZNKSt3__16vectorIcNS_9allocatorIcEEE17__annotate_shrinkB7v160006Em, symObjAddr: 0x37E4, symBinAddr: 0x100004F20, symSize: 0xB4 }
  - { offsetInCU: 0x1E3B8, offset: 0x1E3B8, size: 0x8, addend: 0x0, symName: __ZNSt3__116allocator_traitsINS_9allocatorIcEEE7destroyB7v160006IcvvEEvRS2_PT_, symObjAddr: 0x3898, symBinAddr: 0x100004FD4, symSize: 0x28 }
  - { offsetInCU: 0x1E3F2, offset: 0x1E3F2, size: 0x8, addend: 0x0, symName: __ZNSt3__16vectorIcNS_9allocatorIcEEE7__allocB7v160006Ev, symObjAddr: 0x38C0, symBinAddr: 0x100004FFC, symSize: 0x28 }
  - { offsetInCU: 0x1E418, offset: 0x1E418, size: 0x8, addend: 0x0, symName: __ZNSt3__117__compressed_pairIPcNS_9allocatorIcEEE6secondB7v160006Ev, symObjAddr: 0x3930, symBinAddr: 0x10000506C, symSize: 0x24 }
  - { offsetInCU: 0x1E43E, offset: 0x1E43E, size: 0x8, addend: 0x0, symName: __ZNSt3__122__compressed_pair_elemINS_9allocatorIcEELi1ELb1EE5__getB7v160006Ev, symObjAddr: 0x3954, symBinAddr: 0x100005090, symSize: 0x14 }
  - { offsetInCU: 0x1E464, offset: 0x1E464, size: 0x8, addend: 0x0, symName: __ZNKSt3__16vectorIcNS_9allocatorIcEEE31__annotate_contiguous_containerB7v160006EPKvS5_S5_S5_, symObjAddr: 0x3968, symBinAddr: 0x1000050A4, symSize: 0x20 }
  - { offsetInCU: 0x1E4B6, offset: 0x1E4B6, size: 0x8, addend: 0x0, symName: __ZNKSt3__16vectorIcNS_9allocatorIcEEE4dataB7v160006Ev, symObjAddr: 0x3988, symBinAddr: 0x1000050C4, symSize: 0x28 }
  - { offsetInCU: 0x1E4DC, offset: 0x1E4DC, size: 0x8, addend: 0x0, symName: __ZNKSt3__16vectorIcNS_9allocatorIcEEE8capacityB7v160006Ev, symObjAddr: 0x39B0, symBinAddr: 0x1000050EC, symSize: 0x38 }
  - { offsetInCU: 0x1E502, offset: 0x1E502, size: 0x8, addend: 0x0, symName: __ZNKSt3__16vectorIcNS_9allocatorIcEEE9__end_capB7v160006Ev, symObjAddr: 0x39E8, symBinAddr: 0x100005124, symSize: 0x28 }
  - { offsetInCU: 0x1E528, offset: 0x1E528, size: 0x8, addend: 0x0, symName: __ZNKSt3__117__compressed_pairIPcNS_9allocatorIcEEE5firstB7v160006Ev, symObjAddr: 0x3A10, symBinAddr: 0x10000514C, symSize: 0x24 }
  - { offsetInCU: 0x1E54E, offset: 0x1E54E, size: 0x8, addend: 0x0, symName: __ZNKSt3__122__compressed_pair_elemIPcLi0ELb0EE5__getB7v160006Ev, symObjAddr: 0x3A34, symBinAddr: 0x100005170, symSize: 0x14 }
  - { offsetInCU: 0x1E59A, offset: 0x1E59A, size: 0x8, addend: 0x0, symName: __ZNKSt3__114__move_trivialclB7v160006IccLi0EEENS_4pairIPT_PT0_EES4_S4_S6_, symObjAddr: 0x3BC0, symBinAddr: 0x1000052FC, symSize: 0x48 }
  - { offsetInCU: 0x1E602, offset: 0x1E602, size: 0x8, addend: 0x0, symName: __ZNSt3__119__unwrap_range_implIPcS1_E8__unwrapB7v160006ES1_S1_, symObjAddr: 0x3CCC, symBinAddr: 0x100005408, symSize: 0x58 }
  - { offsetInCU: 0x1E639, offset: 0x1E639, size: 0x8, addend: 0x0, symName: __ZNSt3__14pairIPcS1_EC1B7v160006IS1_S1_LPv0EEEOT_OT0_, symObjAddr: 0x3D24, symBinAddr: 0x100005460, symSize: 0x3C }
  - { offsetInCU: 0x1E697, offset: 0x1E697, size: 0x8, addend: 0x0, symName: __ZNSt3__14pairIPcS1_EC2B7v160006IS1_S1_LPv0EEEOT_OT0_, symObjAddr: 0x3D60, symBinAddr: 0x10000549C, symSize: 0x34 }
  - { offsetInCU: 0x1E6F5, offset: 0x1E6F5, size: 0x8, addend: 0x0, symName: __ZNSt3__14pairIPcS1_EC1B7v160006IRS1_S1_LPv0EEEOT_OT0_, symObjAddr: 0x3E48, symBinAddr: 0x100005584, symSize: 0x3C }
  - { offsetInCU: 0x1E753, offset: 0x1E753, size: 0x8, addend: 0x0, symName: __ZNSt3__14pairIPcS1_EC2B7v160006IRS1_S1_LPv0EEEOT_OT0_, symObjAddr: 0x3E84, symBinAddr: 0x1000055C0, symSize: 0x34 }
  - { offsetInCU: 0x1E7B1, offset: 0x1E7B1, size: 0x8, addend: 0x0, symName: __ZNSt3__118__unwrap_iter_implIPcLb1EE8__unwrapB7v160006ES1_, symObjAddr: 0x3EB8, symBinAddr: 0x1000055F4, symSize: 0x24 }
  - { offsetInCU: 0x1E7D4, offset: 0x1E7D4, size: 0x8, addend: 0x0, symName: __ZNSt3__119__unwrap_range_implIPcS1_E8__rewrapB7v160006ES1_S1_, symObjAddr: 0x3EDC, symBinAddr: 0x100005618, symSize: 0x2C }
  - { offsetInCU: 0x1E805, offset: 0x1E805, size: 0x8, addend: 0x0, symName: __ZNSt3__118__unwrap_iter_implIPcLb1EE8__rewrapB7v160006ES1_S1_, symObjAddr: 0x3F08, symBinAddr: 0x100005644, symSize: 0x48 }
  - { offsetInCU: 0x1E836, offset: 0x1E836, size: 0x8, addend: 0x0, symName: __ZNSt3__111__wrap_iterIPcEC1B7v160006EPKvS1_, symObjAddr: 0x3F50, symBinAddr: 0x10000568C, symSize: 0x3C }
  - { offsetInCU: 0x1E87C, offset: 0x1E87C, size: 0x8, addend: 0x0, symName: __ZNSt3__111__wrap_iterIPcEC2B7v160006EPKvS1_, symObjAddr: 0x3F8C, symBinAddr: 0x1000056C8, symSize: 0x24 }
  - { offsetInCU: 0x1E8C2, offset: 0x1E8C2, size: 0x8, addend: 0x0, symName: __ZNSt3__111__wrap_iterIPKcEC2B7v160006IPcEERKNS0_IT_EEPNS_9enable_ifIXsr14is_convertibleIS6_S2_EE5valueEvE4typeE, symObjAddr: 0x3FB0, symBinAddr: 0x1000056EC, symSize: 0x40 }
  - { offsetInCU: 0x1E90D, offset: 0x1E90D, size: 0x8, addend: 0x0, symName: __ZNKSt3__111__wrap_iterIPcE4baseB7v160006Ev, symObjAddr: 0x3FF0, symBinAddr: 0x10000572C, symSize: 0x18 }
  - { offsetInCU: 0x1E933, offset: 0x1E933, size: 0x8, addend: 0x0, symName: __ZNKSt3__16vectorINS_12basic_stringIcNS_11char_traitsIcEENS_9allocatorIcEEEENS4_IS6_EEE20__throw_out_of_rangeB7v160006Ev, symObjAddr: 0x4008, symBinAddr: 0x100005744, symSize: 0x1C }
  - { offsetInCU: 0x1E959, offset: 0x1E959, size: 0x8, addend: 0x0, symName: __ZNSt12out_of_rangeC1B7v160006EPKc, symObjAddr: 0x4088, symBinAddr: 0x1000057C4, symSize: 0x34 }
  - { offsetInCU: 0x1E991, offset: 0x1E991, size: 0x8, addend: 0x0, symName: __ZNSt12out_of_rangeC2B7v160006EPKc, symObjAddr: 0x40BC, symBinAddr: 0x1000057F8, symSize: 0x4C }
  - { offsetInCU: 0x1E9C9, offset: 0x1E9C9, size: 0x8, addend: 0x0, symName: __ZNKSt3__112basic_stringIcNS_11char_traitsIcEENS_9allocatorIcEEE4dataB7v160006Ev, symObjAddr: 0x4108, symBinAddr: 0x100005844, symSize: 0x28 }
  - { offsetInCU: 0x1E9EF, offset: 0x1E9EF, size: 0x8, addend: 0x0, symName: __ZNKSt3__112basic_stringIcNS_11char_traitsIcEENS_9allocatorIcEEE13__get_pointerB7v160006Ev, symObjAddr: 0x4144, symBinAddr: 0x100005880, symSize: 0x54 }
  - { offsetInCU: 0x1EA15, offset: 0x1EA15, size: 0x8, addend: 0x0, symName: __ZNKSt3__112basic_stringIcNS_11char_traitsIcEENS_9allocatorIcEEE9__is_longB7v160006Ev, symObjAddr: 0x4198, symBinAddr: 0x1000058D4, symSize: 0x38 }
  - { offsetInCU: 0x1EA3B, offset: 0x1EA3B, size: 0x8, addend: 0x0, symName: __ZNKSt3__112basic_stringIcNS_11char_traitsIcEENS_9allocatorIcEEE18__get_long_pointerB7v160006Ev, symObjAddr: 0x41D0, symBinAddr: 0x10000590C, symSize: 0x28 }
  - { offsetInCU: 0x1EA61, offset: 0x1EA61, size: 0x8, addend: 0x0, symName: __ZNKSt3__112basic_stringIcNS_11char_traitsIcEENS_9allocatorIcEEE19__get_short_pointerB7v160006Ev, symObjAddr: 0x41F8, symBinAddr: 0x100005934, symSize: 0x28 }
  - { offsetInCU: 0x1EA87, offset: 0x1EA87, size: 0x8, addend: 0x0, symName: __ZNKSt3__117__compressed_pairINS_12basic_stringIcNS_11char_traitsIcEENS_9allocatorIcEEE5__repES5_E5firstB7v160006Ev, symObjAddr: 0x4220, symBinAddr: 0x10000595C, symSize: 0x24 }
  - { offsetInCU: 0x1EAAD, offset: 0x1EAAD, size: 0x8, addend: 0x0, symName: __ZNKSt3__122__compressed_pair_elemINS_12basic_stringIcNS_11char_traitsIcEENS_9allocatorIcEEE5__repELi0ELb0EE5__getB7v160006Ev, symObjAddr: 0x4244, symBinAddr: 0x100005980, symSize: 0x14 }
  - { offsetInCU: 0x1EAD3, offset: 0x1EAD3, size: 0x8, addend: 0x0, symName: __ZNSt3__114pointer_traitsIPKcE10pointer_toB7v160006ERS1_, symObjAddr: 0x4258, symBinAddr: 0x100005994, symSize: 0x14 }
  - { offsetInCU: 0x1EAF6, offset: 0x1EAF6, size: 0x8, addend: 0x0, symName: __ZNSt3__16vectorINS_4pairIyyEENS_9allocatorIS2_EEEC2B7v160006Ev, symObjAddr: 0x426C, symBinAddr: 0x1000059A8, symSize: 0x58 }
  - { offsetInCU: 0x1EB2C, offset: 0x1EB2C, size: 0x8, addend: 0x0, symName: __ZNSt3__117__compressed_pairIPNS_4pairIyyEENS_9allocatorIS2_EEEC1B7v160006IDnNS_18__default_init_tagEEEOT_OT0_, symObjAddr: 0x42C4, symBinAddr: 0x100005A00, symSize: 0x3C }
  - { offsetInCU: 0x1EB84, offset: 0x1EB84, size: 0x8, addend: 0x0, symName: __ZNSt3__117__compressed_pairIPNS_4pairIyyEENS_9allocatorIS2_EEEC2B7v160006IDnNS_18__default_init_tagEEEOT_OT0_, symObjAddr: 0x4310, symBinAddr: 0x100005A4C, symSize: 0x40 }
  - { offsetInCU: 0x1EBDC, offset: 0x1EBDC, size: 0x8, addend: 0x0, symName: __ZNSt3__122__compressed_pair_elemIPNS_4pairIyyEELi0ELb0EEC2B7v160006IDnvEEOT_, symObjAddr: 0x4350, symBinAddr: 0x100005A8C, symSize: 0x1C }
  - { offsetInCU: 0x1EC1E, offset: 0x1EC1E, size: 0x8, addend: 0x0, symName: __ZNSt3__122__compressed_pair_elemINS_9allocatorINS_4pairIyyEEEELi1ELb1EEC2B7v160006ENS_18__default_init_tagE, symObjAddr: 0x436C, symBinAddr: 0x100005AA8, symSize: 0x2C }
  - { offsetInCU: 0x1EC52, offset: 0x1EC52, size: 0x8, addend: 0x0, symName: __ZNSt3__19allocatorINS_4pairIyyEEEC2B7v160006Ev, symObjAddr: 0x4398, symBinAddr: 0x100005AD4, symSize: 0x2C }
  - { offsetInCU: 0x1EC7C, offset: 0x1EC7C, size: 0x8, addend: 0x0, symName: __ZNSt3__116__non_trivial_ifILb1ENS_9allocatorINS_4pairIyyEEEEEC2B7v160006Ev, symObjAddr: 0x43C4, symBinAddr: 0x100005B00, symSize: 0x14 }
  - { offsetInCU: 0x1ECA6, offset: 0x1ECA6, size: 0x8, addend: 0x0, symName: __ZNSt3__16vectorINS_4pairIyyEENS_9allocatorIS2_EEE9__end_capB7v160006Ev, symObjAddr: 0x43D8, symBinAddr: 0x100005B14, symSize: 0x28 }
  - { offsetInCU: 0x1ECCC, offset: 0x1ECCC, size: 0x8, addend: 0x0, symName: __ZNSt3__16vectorINS_4pairIyyEENS_9allocatorIS2_EEE22__construct_one_at_endB7v160006IJS2_EEEvDpOT_, symObjAddr: 0x4400, symBinAddr: 0x100005B3C, symSize: 0x90 }
  - { offsetInCU: 0x1ED1B, offset: 0x1ED1B, size: 0x8, addend: 0x0, symName: __ZNSt3__16vectorINS_4pairIyyEENS_9allocatorIS2_EEE21__push_back_slow_pathIS2_EEvOT_, symObjAddr: 0x4490, symBinAddr: 0x100005BCC, symSize: 0xD8 }
  - { offsetInCU: 0x1ED79, offset: 0x1ED79, size: 0x8, addend: 0x0, symName: __ZNSt3__117__compressed_pairIPNS_4pairIyyEENS_9allocatorIS2_EEE5firstB7v160006Ev, symObjAddr: 0x4568, symBinAddr: 0x100005CA4, symSize: 0x24 }
  - { offsetInCU: 0x1ED9F, offset: 0x1ED9F, size: 0x8, addend: 0x0, symName: __ZNSt3__122__compressed_pair_elemIPNS_4pairIyyEELi0ELb0EE5__getB7v160006Ev, symObjAddr: 0x458C, symBinAddr: 0x100005CC8, symSize: 0x14 }
  - { offsetInCU: 0x1EDE0, offset: 0x1EDE0, size: 0x8, addend: 0x0, symName: __ZNSt3__16vectorINS_4pairIyyEENS_9allocatorIS2_EEE21_ConstructTransactionC1B7v160006ERS5_m, symObjAddr: 0x45A0, symBinAddr: 0x100005CDC, symSize: 0x3C }
  - { offsetInCU: 0x1EE28, offset: 0x1EE28, size: 0x8, addend: 0x0, symName: __ZNSt3__116allocator_traitsINS_9allocatorINS_4pairIyyEEEEE9constructB7v160006IS3_JS3_EvvEEvRS4_PT_DpOT0_, symObjAddr: 0x45DC, symBinAddr: 0x100005D18, symSize: 0x30 }
  - { offsetInCU: 0x1EE7C, offset: 0x1EE7C, size: 0x8, addend: 0x0, symName: __ZNSt3__16vectorINS_4pairIyyEENS_9allocatorIS2_EEE7__allocB7v160006Ev, symObjAddr: 0x460C, symBinAddr: 0x100005D48, symSize: 0x28 }
  - { offsetInCU: 0x1EEA2, offset: 0x1EEA2, size: 0x8, addend: 0x0, symName: __ZNSt3__16vectorINS_4pairIyyEENS_9allocatorIS2_EEE21_ConstructTransactionD1B7v160006Ev, symObjAddr: 0x4648, symBinAddr: 0x100005D84, symSize: 0x2C }
  - { offsetInCU: 0x1EECC, offset: 0x1EECC, size: 0x8, addend: 0x0, symName: __ZNSt3__16vectorINS_4pairIyyEENS_9allocatorIS2_EEE21_ConstructTransactionC2B7v160006ERS5_m, symObjAddr: 0x4674, symBinAddr: 0x100005DB0, symSize: 0x44 }
  - { offsetInCU: 0x1EF14, offset: 0x1EF14, size: 0x8, addend: 0x0, symName: __ZNSt3__117__compressed_pairIPNS_4pairIyyEENS_9allocatorIS2_EEE6secondB7v160006Ev, symObjAddr: 0x46E4, symBinAddr: 0x100005E20, symSize: 0x24 }
  - { offsetInCU: 0x1EF3A, offset: 0x1EF3A, size: 0x8, addend: 0x0, symName: __ZNSt3__122__compressed_pair_elemINS_9allocatorINS_4pairIyyEEEELi1ELb1EE5__getB7v160006Ev, symObjAddr: 0x4708, symBinAddr: 0x100005E44, symSize: 0x14 }
  - { offsetInCU: 0x1EF60, offset: 0x1EF60, size: 0x8, addend: 0x0, symName: __ZNSt3__16vectorINS_4pairIyyEENS_9allocatorIS2_EEE21_ConstructTransactionD2B7v160006Ev, symObjAddr: 0x471C, symBinAddr: 0x100005E58, symSize: 0x20 }
  - { offsetInCU: 0x1EF8A, offset: 0x1EF8A, size: 0x8, addend: 0x0, symName: __ZNKSt3__16vectorINS_4pairIyyEENS_9allocatorIS2_EEE11__recommendB7v160006Em, symObjAddr: 0x473C, symBinAddr: 0x100005E78, symSize: 0xB4 }
  - { offsetInCU: 0x1EFDF, offset: 0x1EFDF, size: 0x8, addend: 0x0, symName: __ZNKSt3__16vectorINS_4pairIyyEENS_9allocatorIS2_EEE4sizeB7v160006Ev, symObjAddr: 0x47F0, symBinAddr: 0x100005F2C, symSize: 0x28 }
  - { offsetInCU: 0x1F005, offset: 0x1F005, size: 0x8, addend: 0x0, symName: __ZNSt3__114__split_bufferINS_4pairIyyEERNS_9allocatorIS2_EEEC1EmmS5_, symObjAddr: 0x4818, symBinAddr: 0x100005F54, symSize: 0x44 }
  - { offsetInCU: 0x1F05B, offset: 0x1F05B, size: 0x8, addend: 0x0, symName: __ZNSt3__114__split_bufferINS_4pairIyyEERNS_9allocatorIS2_EEED1Ev, symObjAddr: 0x4974, symBinAddr: 0x1000060B0, symSize: 0x2C }
  - { offsetInCU: 0x1F087, offset: 0x1F087, size: 0x8, addend: 0x0, symName: __ZNKSt3__16vectorINS_4pairIyyEENS_9allocatorIS2_EEE8max_sizeEv, symObjAddr: 0x49A0, symBinAddr: 0x1000060DC, symSize: 0x60 }
  - { offsetInCU: 0x1F0AF, offset: 0x1F0AF, size: 0x8, addend: 0x0, symName: __ZNKSt3__16vectorINS_4pairIyyEENS_9allocatorIS2_EEE20__throw_length_errorB7v160006Ev, symObjAddr: 0x4A00, symBinAddr: 0x10000613C, symSize: 0x1C }
  - { offsetInCU: 0x1F0D5, offset: 0x1F0D5, size: 0x8, addend: 0x0, symName: __ZNKSt3__16vectorINS_4pairIyyEENS_9allocatorIS2_EEE8capacityB7v160006Ev, symObjAddr: 0x4A1C, symBinAddr: 0x100006158, symSize: 0x40 }
  - { offsetInCU: 0x1F106, offset: 0x1F106, size: 0x8, addend: 0x0, symName: __ZNSt3__116allocator_traitsINS_9allocatorINS_4pairIyyEEEEE8max_sizeB7v160006IS4_vvEEmRKS4_, symObjAddr: 0x4AB4, symBinAddr: 0x1000061F0, symSize: 0x28 }
  - { offsetInCU: 0x1F131, offset: 0x1F131, size: 0x8, addend: 0x0, symName: __ZNKSt3__16vectorINS_4pairIyyEENS_9allocatorIS2_EEE7__allocB7v160006Ev, symObjAddr: 0x4ADC, symBinAddr: 0x100006218, symSize: 0x28 }
  - { offsetInCU: 0x1F157, offset: 0x1F157, size: 0x8, addend: 0x0, symName: __ZNSt3__114numeric_limitsIlE3maxB7v160006Ev, symObjAddr: 0x4B04, symBinAddr: 0x100006240, symSize: 0x14 }
  - { offsetInCU: 0x1F180, offset: 0x1F180, size: 0x8, addend: 0x0, symName: __ZNKSt3__16__lessImmEclB7v160006ERKmS3_, symObjAddr: 0x4B6C, symBinAddr: 0x1000062A8, symSize: 0x34 }
  - { offsetInCU: 0x1F1C2, offset: 0x1F1C2, size: 0x8, addend: 0x0, symName: __ZNSt3__114numeric_limitsImE3maxB7v160006Ev, symObjAddr: 0x4BA0, symBinAddr: 0x1000062DC, symSize: 0x14 }
  - { offsetInCU: 0x1F1D6, offset: 0x1F1D6, size: 0x8, addend: 0x0, symName: __ZNSt3__123__libcpp_numeric_limitsImLb1EE3maxB7v160006Ev, symObjAddr: 0x4BB4, symBinAddr: 0x1000062F0, symSize: 0x8 }
  - { offsetInCU: 0x1F1EA, offset: 0x1F1EA, size: 0x8, addend: 0x0, symName: __ZNKSt3__117__compressed_pairIPNS_4pairIyyEENS_9allocatorIS2_EEE6secondB7v160006Ev, symObjAddr: 0x4BBC, symBinAddr: 0x1000062F8, symSize: 0x24 }
  - { offsetInCU: 0x1F210, offset: 0x1F210, size: 0x8, addend: 0x0, symName: __ZNKSt3__122__compressed_pair_elemINS_9allocatorINS_4pairIyyEEEELi1ELb1EE5__getB7v160006Ev, symObjAddr: 0x4BE0, symBinAddr: 0x10000631C, symSize: 0x14 }
  - { offsetInCU: 0x1F236, offset: 0x1F236, size: 0x8, addend: 0x0, symName: __ZNSt3__123__libcpp_numeric_limitsIlLb1EE3maxB7v160006Ev, symObjAddr: 0x4BF4, symBinAddr: 0x100006330, symSize: 0x8 }
  - { offsetInCU: 0x1F24A, offset: 0x1F24A, size: 0x8, addend: 0x0, symName: __ZNSt12length_errorC1B7v160006EPKc, symObjAddr: 0x4C60, symBinAddr: 0x10000639C, symSize: 0x34 }
  - { offsetInCU: 0x1F282, offset: 0x1F282, size: 0x8, addend: 0x0, symName: __ZNSt12length_errorC2B7v160006EPKc, symObjAddr: 0x4C94, symBinAddr: 0x1000063D0, symSize: 0x4C }
  - { offsetInCU: 0x1F2BA, offset: 0x1F2BA, size: 0x8, addend: 0x0, symName: __ZNKSt3__16vectorINS_4pairIyyEENS_9allocatorIS2_EEE9__end_capB7v160006Ev, symObjAddr: 0x4CE0, symBinAddr: 0x10000641C, symSize: 0x28 }
  - { offsetInCU: 0x1F2E0, offset: 0x1F2E0, size: 0x8, addend: 0x0, symName: __ZNKSt3__117__compressed_pairIPNS_4pairIyyEENS_9allocatorIS2_EEE5firstB7v160006Ev, symObjAddr: 0x4D08, symBinAddr: 0x100006444, symSize: 0x24 }
  - { offsetInCU: 0x1F306, offset: 0x1F306, size: 0x8, addend: 0x0, symName: __ZNKSt3__122__compressed_pair_elemIPNS_4pairIyyEELi0ELb0EE5__getB7v160006Ev, symObjAddr: 0x4D2C, symBinAddr: 0x100006468, symSize: 0x14 }
  - { offsetInCU: 0x1F32C, offset: 0x1F32C, size: 0x8, addend: 0x0, symName: __ZNSt3__114__split_bufferINS_4pairIyyEERNS_9allocatorIS2_EEEC2EmmS5_, symObjAddr: 0x4D94, symBinAddr: 0x1000064D0, symSize: 0xD4 }
  - { offsetInCU: 0x1F39F, offset: 0x1F39F, size: 0x8, addend: 0x0, symName: __ZNSt3__117__compressed_pairIPNS_4pairIyyEERNS_9allocatorIS2_EEEC1B7v160006IDnS6_EEOT_OT0_, symObjAddr: 0x4E68, symBinAddr: 0x1000065A4, symSize: 0x3C }
  - { offsetInCU: 0x1F3F7, offset: 0x1F3F7, size: 0x8, addend: 0x0, symName: __ZNSt3__114__split_bufferINS_4pairIyyEERNS_9allocatorIS2_EEE7__allocB7v160006Ev, symObjAddr: 0x4EE4, symBinAddr: 0x100006620, symSize: 0x28 }
  - { offsetInCU: 0x1F41D, offset: 0x1F41D, size: 0x8, addend: 0x0, symName: __ZNSt3__114__split_bufferINS_4pairIyyEERNS_9allocatorIS2_EEE9__end_capB7v160006Ev, symObjAddr: 0x4F0C, symBinAddr: 0x100006648, symSize: 0x28 }
  - { offsetInCU: 0x1F443, offset: 0x1F443, size: 0x8, addend: 0x0, symName: __ZNSt3__117__compressed_pairIPNS_4pairIyyEERNS_9allocatorIS2_EEEC2B7v160006IDnS6_EEOT_OT0_, symObjAddr: 0x4F34, symBinAddr: 0x100006670, symSize: 0x48 }
  - { offsetInCU: 0x1F49B, offset: 0x1F49B, size: 0x8, addend: 0x0, symName: __ZNSt3__122__compressed_pair_elemIRNS_9allocatorINS_4pairIyyEEEELi1ELb0EEC2B7v160006IS5_vEEOT_, symObjAddr: 0x4F7C, symBinAddr: 0x1000066B8, symSize: 0x20 }
  - { offsetInCU: 0x1F4DD, offset: 0x1F4DD, size: 0x8, addend: 0x0, symName: __ZNSt3__19allocatorINS_4pairIyyEEE8allocateB7v160006Em, symObjAddr: 0x4F9C, symBinAddr: 0x1000066D8, symSize: 0x58 }
  - { offsetInCU: 0x1F511, offset: 0x1F511, size: 0x8, addend: 0x0, symName: __ZNSt3__117__compressed_pairIPNS_4pairIyyEERNS_9allocatorIS2_EEE6secondB7v160006Ev, symObjAddr: 0x50F8, symBinAddr: 0x100006834, symSize: 0x28 }
  - { offsetInCU: 0x1F537, offset: 0x1F537, size: 0x8, addend: 0x0, symName: __ZNSt3__122__compressed_pair_elemIRNS_9allocatorINS_4pairIyyEEEELi1ELb0EE5__getB7v160006Ev, symObjAddr: 0x5120, symBinAddr: 0x10000685C, symSize: 0x18 }
  - { offsetInCU: 0x1F55D, offset: 0x1F55D, size: 0x8, addend: 0x0, symName: __ZNSt3__117__compressed_pairIPNS_4pairIyyEERNS_9allocatorIS2_EEE5firstB7v160006Ev, symObjAddr: 0x5138, symBinAddr: 0x100006874, symSize: 0x24 }
  - { offsetInCU: 0x1F583, offset: 0x1F583, size: 0x8, addend: 0x0, symName: __ZNKSt3__16vectorINS_4pairIyyEENS_9allocatorIS2_EEE17__annotate_deleteB7v160006Ev, symObjAddr: 0x515C, symBinAddr: 0x100006898, symSize: 0xB8 }
  - { offsetInCU: 0x1F5A9, offset: 0x1F5A9, size: 0x8, addend: 0x0, symName: __ZNSt3__116reverse_iteratorIPNS_4pairIyyEEEC1B7v160006ES3_, symObjAddr: 0x5340, symBinAddr: 0x100006A7C, symSize: 0x34 }
  - { offsetInCU: 0x1F5E1, offset: 0x1F5E1, size: 0x8, addend: 0x0, symName: __ZNKSt3__116reverse_iteratorIPNS_4pairIyyEEE4baseB7v160006Ev, symObjAddr: 0x5374, symBinAddr: 0x100006AB0, symSize: 0x18 }
  - { offsetInCU: 0x1F607, offset: 0x1F607, size: 0x8, addend: 0x0, symName: __ZNKSt3__16vectorINS_4pairIyyEENS_9allocatorIS2_EEE14__annotate_newB7v160006Em, symObjAddr: 0x53C8, symBinAddr: 0x100006B04, symSize: 0xAC }
  - { offsetInCU: 0x1F63C, offset: 0x1F63C, size: 0x8, addend: 0x0, symName: __ZNKSt3__16vectorINS_4pairIyyEENS_9allocatorIS2_EEE31__annotate_contiguous_containerB7v160006EPKvS7_S7_S7_, symObjAddr: 0x5484, symBinAddr: 0x100006BC0, symSize: 0x20 }
  - { offsetInCU: 0x1F68E, offset: 0x1F68E, size: 0x8, addend: 0x0, symName: __ZNKSt3__16vectorINS_4pairIyyEENS_9allocatorIS2_EEE4dataB7v160006Ev, symObjAddr: 0x54A4, symBinAddr: 0x100006BE0, symSize: 0x28 }
  - { offsetInCU: 0x1F6B4, offset: 0x1F6B4, size: 0x8, addend: 0x0, symName: __ZNSt3__129_AllocatorDestroyRangeReverseINS_9allocatorINS_4pairIyyEEEENS_16reverse_iteratorIPS3_EEEC1B7v160006ERS4_RS7_SA_, symObjAddr: 0x5518, symBinAddr: 0x100006C54, symSize: 0x44 }
  - { offsetInCU: 0x1F70B, offset: 0x1F70B, size: 0x8, addend: 0x0, symName: __ZNKSt3__116reverse_iteratorIPNS_4pairIyyEEEdeB7v160006Ev, symObjAddr: 0x55C8, symBinAddr: 0x100006D04, symSize: 0x28 }
  - { offsetInCU: 0x1F73F, offset: 0x1F73F, size: 0x8, addend: 0x0, symName: __ZNSt3__116reverse_iteratorIPNS_4pairIyyEEEppB7v160006Ev, symObjAddr: 0x55F0, symBinAddr: 0x100006D2C, symSize: 0x20 }
  - { offsetInCU: 0x1F765, offset: 0x1F765, size: 0x8, addend: 0x0, symName: __ZNSt3__128__exception_guard_exceptionsINS_29_AllocatorDestroyRangeReverseINS_9allocatorINS_4pairIyyEEEENS_16reverse_iteratorIPS4_EEEEE10__completeB7v160006Ev, symObjAddr: 0x5610, symBinAddr: 0x100006D4C, symSize: 0x1C }
  - { offsetInCU: 0x1F78B, offset: 0x1F78B, size: 0x8, addend: 0x0, symName: __ZNSt3__128__exception_guard_exceptionsINS_29_AllocatorDestroyRangeReverseINS_9allocatorINS_4pairIyyEEEENS_16reverse_iteratorIPS4_EEEEED1B7v160006Ev, symObjAddr: 0x562C, symBinAddr: 0x100006D68, symSize: 0x2C }
  - { offsetInCU: 0x1F7B5, offset: 0x1F7B5, size: 0x8, addend: 0x0, symName: __ZNSt3__128__exception_guard_exceptionsINS_29_AllocatorDestroyRangeReverseINS_9allocatorINS_4pairIyyEEEENS_16reverse_iteratorIPS4_EEEEEC1B7v160006ES9_, symObjAddr: 0x5658, symBinAddr: 0x100006D94, symSize: 0x34 }
  - { offsetInCU: 0x1F7EE, offset: 0x1F7EE, size: 0x8, addend: 0x0, symName: __ZNSt3__128__exception_guard_exceptionsINS_29_AllocatorDestroyRangeReverseINS_9allocatorINS_4pairIyyEEEENS_16reverse_iteratorIPS4_EEEEEC2B7v160006ES9_, symObjAddr: 0x568C, symBinAddr: 0x100006DC8, symSize: 0x30 }
  - { offsetInCU: 0x1F827, offset: 0x1F827, size: 0x8, addend: 0x0, symName: __ZNSt3__129_AllocatorDestroyRangeReverseINS_9allocatorINS_4pairIyyEEEENS_16reverse_iteratorIPS3_EEEC2B7v160006ERS4_RS7_SA_, symObjAddr: 0x56BC, symBinAddr: 0x100006DF8, symSize: 0x38 }
  - { offsetInCU: 0x1F884, offset: 0x1F884, size: 0x8, addend: 0x0, symName: __ZNSt3__119__to_address_helperINS_16reverse_iteratorIPNS_4pairIyyEEEEvE6__callB7v160006ERKS5_, symObjAddr: 0x56F4, symBinAddr: 0x100006E30, symSize: 0x38 }
  - { offsetInCU: 0x1F8A7, offset: 0x1F8A7, size: 0x8, addend: 0x0, symName: __ZNKSt3__116reverse_iteratorIPNS_4pairIyyEEEptB7v160006Ev, symObjAddr: 0x572C, symBinAddr: 0x100006E68, symSize: 0x2C }
  - { offsetInCU: 0x1F8CD, offset: 0x1F8CD, size: 0x8, addend: 0x0, symName: __ZNSt3__128__exception_guard_exceptionsINS_29_AllocatorDestroyRangeReverseINS_9allocatorINS_4pairIyyEEEENS_16reverse_iteratorIPS4_EEEEED2B7v160006Ev, symObjAddr: 0x5834, symBinAddr: 0x100006F70, symSize: 0x50 }
  - { offsetInCU: 0x1F8F7, offset: 0x1F8F7, size: 0x8, addend: 0x0, symName: __ZNKSt3__129_AllocatorDestroyRangeReverseINS_9allocatorINS_4pairIyyEEEENS_16reverse_iteratorIPS3_EEEclB7v160006Ev, symObjAddr: 0x5884, symBinAddr: 0x100006FC0, symSize: 0xB4 }
  - { offsetInCU: 0x1F91E, offset: 0x1F91E, size: 0x8, addend: 0x0, symName: __ZNSt3__116reverse_iteratorINS0_IPNS_4pairIyyEEEEEC1B7v160006ES4_, symObjAddr: 0x59A8, symBinAddr: 0x1000070E4, symSize: 0x3C }
  - { offsetInCU: 0x1F956, offset: 0x1F956, size: 0x8, addend: 0x0, symName: __ZNSt3__116allocator_traitsINS_9allocatorINS_4pairIyyEEEEE7destroyB7v160006IS3_vvEEvRS4_PT_, symObjAddr: 0x5A44, symBinAddr: 0x100007180, symSize: 0x28 }
  - { offsetInCU: 0x1F990, offset: 0x1F990, size: 0x8, addend: 0x0, symName: __ZNSt3__116reverse_iteratorINS0_IPNS_4pairIyyEEEEEppB7v160006Ev, symObjAddr: 0x5A90, symBinAddr: 0x1000071CC, symSize: 0x30 }
  - { offsetInCU: 0x1F9B6, offset: 0x1F9B6, size: 0x8, addend: 0x0, symName: __ZNKSt3__116reverse_iteratorINS0_IPNS_4pairIyyEEEEE4baseB7v160006Ev, symObjAddr: 0x5AC0, symBinAddr: 0x1000071FC, symSize: 0x24 }
  - { offsetInCU: 0x1F9E2, offset: 0x1F9E2, size: 0x8, addend: 0x0, symName: __ZNSt3__119__to_address_helperINS_16reverse_iteratorINS1_IPNS_4pairIyyEEEEEEvE6__callB7v160006ERKS6_, symObjAddr: 0x5B18, symBinAddr: 0x100007254, symSize: 0x38 }
  - { offsetInCU: 0x1FA05, offset: 0x1FA05, size: 0x8, addend: 0x0, symName: __ZNKSt3__116reverse_iteratorINS0_IPNS_4pairIyyEEEEEptB7v160006Ev, symObjAddr: 0x5B50, symBinAddr: 0x10000728C, symSize: 0x4C }
  - { offsetInCU: 0x1FA2B, offset: 0x1FA2B, size: 0x8, addend: 0x0, symName: __ZNSt3__116reverse_iteratorIPNS_4pairIyyEEEpLB7v160006El, symObjAddr: 0x5C78, symBinAddr: 0x1000073B4, symSize: 0x30 }
  - { offsetInCU: 0x1FA5F, offset: 0x1FA5F, size: 0x8, addend: 0x0, symName: __ZNSt3__116reverse_iteratorIPNS_4pairIyyEEEmmB7v160006Ev, symObjAddr: 0x5CA8, symBinAddr: 0x1000073E4, symSize: 0x20 }
  - { offsetInCU: 0x1FA85, offset: 0x1FA85, size: 0x8, addend: 0x0, symName: __ZNSt3__116reverse_iteratorINS0_IPNS_4pairIyyEEEEEC2B7v160006ES4_, symObjAddr: 0x5CC8, symBinAddr: 0x100007404, symSize: 0x2C }
  - { offsetInCU: 0x1FABD, offset: 0x1FABD, size: 0x8, addend: 0x0, symName: __ZNSt3__116reverse_iteratorIPNS_4pairIyyEEEC2B7v160006ES3_, symObjAddr: 0x5CF4, symBinAddr: 0x100007430, symSize: 0x28 }
  - { offsetInCU: 0x1FAF5, offset: 0x1FAF5, size: 0x8, addend: 0x0, symName: __ZNSt3__114__split_bufferINS_4pairIyyEERNS_9allocatorIS2_EEED2Ev, symObjAddr: 0x5D1C, symBinAddr: 0x100007458, symSize: 0x8C }
  - { offsetInCU: 0x1FB21, offset: 0x1FB21, size: 0x8, addend: 0x0, symName: __ZNSt3__114__split_bufferINS_4pairIyyEERNS_9allocatorIS2_EEE5clearB7v160006Ev, symObjAddr: 0x5DA8, symBinAddr: 0x1000074E4, symSize: 0x28 }
  - { offsetInCU: 0x1FB47, offset: 0x1FB47, size: 0x8, addend: 0x0, symName: __ZNSt3__116allocator_traitsINS_9allocatorINS_4pairIyyEEEEE10deallocateB7v160006ERS4_PS3_m, symObjAddr: 0x5DD0, symBinAddr: 0x10000750C, symSize: 0x34 }
  - { offsetInCU: 0x1FB89, offset: 0x1FB89, size: 0x8, addend: 0x0, symName: __ZNKSt3__114__split_bufferINS_4pairIyyEERNS_9allocatorIS2_EEE8capacityB7v160006Ev, symObjAddr: 0x5E04, symBinAddr: 0x100007540, symSize: 0x40 }
  - { offsetInCU: 0x1FBAF, offset: 0x1FBAF, size: 0x8, addend: 0x0, symName: __ZNSt3__114__split_bufferINS_4pairIyyEERNS_9allocatorIS2_EEE17__destruct_at_endB7v160006EPS2_, symObjAddr: 0x5E44, symBinAddr: 0x100007580, symSize: 0x2C }
  - { offsetInCU: 0x1FBE3, offset: 0x1FBE3, size: 0x8, addend: 0x0, symName: __ZNSt3__114__split_bufferINS_4pairIyyEERNS_9allocatorIS2_EEE17__destruct_at_endB7v160006EPS2_NS_17integral_constantIbLb0EEE, symObjAddr: 0x5E70, symBinAddr: 0x1000075AC, symSize: 0x80 }
  - { offsetInCU: 0x1FC23, offset: 0x1FC23, size: 0x8, addend: 0x0, symName: __ZNSt3__19allocatorINS_4pairIyyEEE10deallocateB7v160006EPS2_m, symObjAddr: 0x5EF0, symBinAddr: 0x10000762C, symSize: 0x40 }
  - { offsetInCU: 0x1FC65, offset: 0x1FC65, size: 0x8, addend: 0x0, symName: __ZNKSt3__114__split_bufferINS_4pairIyyEERNS_9allocatorIS2_EEE9__end_capB7v160006Ev, symObjAddr: 0x6038, symBinAddr: 0x100007774, symSize: 0x28 }
  - { offsetInCU: 0x1FC8B, offset: 0x1FC8B, size: 0x8, addend: 0x0, symName: __ZNKSt3__117__compressed_pairIPNS_4pairIyyEERNS_9allocatorIS2_EEE5firstB7v160006Ev, symObjAddr: 0x6060, symBinAddr: 0x10000779C, symSize: 0x24 }
  - { offsetInCU: 0x1FCB1, offset: 0x1FCB1, size: 0x8, addend: 0x0, symName: __ZNSt3__14pairIyyEC2B7v160006IRyS3_LPv0EEEOT_OT0_, symObjAddr: 0x6084, symBinAddr: 0x1000077C0, symSize: 0x34 }
  - { offsetInCU: 0x1FD0F, offset: 0x1FD0F, size: 0x8, addend: 0x0, symName: __ZNSt3__16vectorINS_4pairIyyEENS_9allocatorIS2_EEE18__construct_at_endINS_11__wrap_iterIPS2_EELi0EEEvT_SA_m, symObjAddr: 0x618C, symBinAddr: 0x1000078C8, symSize: 0x9C }
  - { offsetInCU: 0x1FD82, offset: 0x1FD82, size: 0x8, addend: 0x0, symName: __ZNSt3__16vectorINS_4pairIyyEENS_9allocatorIS2_EEE12__move_rangeEPS2_S6_S6_, symObjAddr: 0x6228, symBinAddr: 0x100007964, symSize: 0x12C }
  - { offsetInCU: 0x1FE3E, offset: 0x1FE3E, size: 0x8, addend: 0x0, symName: __ZNSt3__114__split_bufferINS_4pairIyyEERNS_9allocatorIS2_EEE18__construct_at_endINS_11__wrap_iterIPS2_EEEENS_9enable_ifIXsr27__is_cpp17_forward_iteratorIT_EE5valueEvE4typeESC_SC_, symObjAddr: 0x63A4, symBinAddr: 0x100007AE0, symSize: 0xF0 }
  - { offsetInCU: 0x1FE9A, offset: 0x1FE9A, size: 0x8, addend: 0x0, symName: __ZNSt3__16vectorINS_4pairIyyEENS_9allocatorIS2_EEE11__make_iterB7v160006EPS2_, symObjAddr: 0x65E8, symBinAddr: 0x100007D24, symSize: 0x34 }
  - { offsetInCU: 0x1FECF, offset: 0x1FECF, size: 0x8, addend: 0x0, symName: __ZNKSt3__111__wrap_iterIPKNS_4pairIyyEEE4baseB7v160006Ev, symObjAddr: 0x661C, symBinAddr: 0x100007D58, symSize: 0x18 }
  - { offsetInCU: 0x1FEF5, offset: 0x1FEF5, size: 0x8, addend: 0x0, symName: __ZNKSt3__111__wrap_iterIPNS_4pairIyyEEE4baseB7v160006Ev, symObjAddr: 0x6634, symBinAddr: 0x100007D70, symSize: 0x18 }
  - { offsetInCU: 0x1FF1B, offset: 0x1FF1B, size: 0x8, addend: 0x0, symName: __ZNSt3__111__wrap_iterIPNS_4pairIyyEEEpLB7v160006El, symObjAddr: 0x66F0, symBinAddr: 0x100007E2C, symSize: 0x28 }
  - { offsetInCU: 0x1FF4F, offset: 0x1FF4F, size: 0x8, addend: 0x0, symName: __ZNSt3__129_AllocatorDestroyRangeReverseINS_9allocatorINS_4pairIyyEEEEPS3_EC1B7v160006ERS4_RS5_S8_, symObjAddr: 0x685C, symBinAddr: 0x100007F98, symSize: 0x44 }
  - { offsetInCU: 0x1FFA6, offset: 0x1FFA6, size: 0x8, addend: 0x0, symName: __ZNSt3__116allocator_traitsINS_9allocatorINS_4pairIyyEEEEE9constructB7v160006IS3_JRS3_EvvEEvRS4_PT_DpOT0_, symObjAddr: 0x68D4, symBinAddr: 0x100008010, symSize: 0x30 }
  - { offsetInCU: 0x1FFFA, offset: 0x1FFFA, size: 0x8, addend: 0x0, symName: __ZNSt3__128__exception_guard_exceptionsINS_29_AllocatorDestroyRangeReverseINS_9allocatorINS_4pairIyyEEEEPS4_EEE10__completeB7v160006Ev, symObjAddr: 0x6904, symBinAddr: 0x100008040, symSize: 0x1C }
  - { offsetInCU: 0x20020, offset: 0x20020, size: 0x8, addend: 0x0, symName: __ZNSt3__128__exception_guard_exceptionsINS_29_AllocatorDestroyRangeReverseINS_9allocatorINS_4pairIyyEEEEPS4_EEED1B7v160006Ev, symObjAddr: 0x6920, symBinAddr: 0x10000805C, symSize: 0x2C }
  - { offsetInCU: 0x2004A, offset: 0x2004A, size: 0x8, addend: 0x0, symName: __ZNSt3__128__exception_guard_exceptionsINS_29_AllocatorDestroyRangeReverseINS_9allocatorINS_4pairIyyEEEEPS4_EEEC1B7v160006ES7_, symObjAddr: 0x694C, symBinAddr: 0x100008088, symSize: 0x34 }
  - { offsetInCU: 0x20083, offset: 0x20083, size: 0x8, addend: 0x0, symName: __ZNSt3__128__exception_guard_exceptionsINS_29_AllocatorDestroyRangeReverseINS_9allocatorINS_4pairIyyEEEEPS4_EEEC2B7v160006ES7_, symObjAddr: 0x6980, symBinAddr: 0x1000080BC, symSize: 0x30 }
  - { offsetInCU: 0x200BC, offset: 0x200BC, size: 0x8, addend: 0x0, symName: __ZNSt3__129_AllocatorDestroyRangeReverseINS_9allocatorINS_4pairIyyEEEEPS3_EC2B7v160006ERS4_RS5_S8_, symObjAddr: 0x69B0, symBinAddr: 0x1000080EC, symSize: 0x38 }
  - { offsetInCU: 0x20113, offset: 0x20113, size: 0x8, addend: 0x0, symName: __ZNSt3__128__exception_guard_exceptionsINS_29_AllocatorDestroyRangeReverseINS_9allocatorINS_4pairIyyEEEEPS4_EEED2B7v160006Ev, symObjAddr: 0x6A5C, symBinAddr: 0x100008198, symSize: 0x50 }
  - { offsetInCU: 0x2013D, offset: 0x2013D, size: 0x8, addend: 0x0, symName: __ZNKSt3__129_AllocatorDestroyRangeReverseINS_9allocatorINS_4pairIyyEEEEPS3_EclB7v160006Ev, symObjAddr: 0x6AAC, symBinAddr: 0x1000081E8, symSize: 0x68 }
  - { offsetInCU: 0x20189, offset: 0x20189, size: 0x8, addend: 0x0, symName: __ZNKSt3__120__move_backward_loopINS_17_ClassicAlgPolicyEEclB7v160006IPNS_4pairIyyEES6_S6_EENS4_IT_T1_EES7_T0_S8_, symObjAddr: 0x6D3C, symBinAddr: 0x100008478, symSize: 0xA4 }
  - { offsetInCU: 0x20210, offset: 0x20210, size: 0x8, addend: 0x0, symName: __ZNSt3__119__unwrap_range_implIPNS_4pairIyyEES3_E8__unwrapB7v160006ES3_S3_, symObjAddr: 0x6EA4, symBinAddr: 0x1000085E0, symSize: 0x58 }
  - { offsetInCU: 0x20247, offset: 0x20247, size: 0x8, addend: 0x0, symName: __ZNSt3__14pairIPNS0_IyyEES2_EC1B7v160006IS2_S2_LPv0EEEOT_OT0_, symObjAddr: 0x6EFC, symBinAddr: 0x100008638, symSize: 0x3C }
  - { offsetInCU: 0x202A5, offset: 0x202A5, size: 0x8, addend: 0x0, symName: __ZNSt3__14pairIPNS0_IyyEES2_EC2B7v160006IS2_S2_LPv0EEEOT_OT0_, symObjAddr: 0x6F38, symBinAddr: 0x100008674, symSize: 0x34 }
  - { offsetInCU: 0x20303, offset: 0x20303, size: 0x8, addend: 0x0, symName: __ZNSt3__18_IterOpsINS_17_ClassicAlgPolicyEE4nextB7v160006IPNS_4pairIyyEEEET_S7_S7_, symObjAddr: 0x6F6C, symBinAddr: 0x1000086A8, symSize: 0x18 }
  - { offsetInCU: 0x20339, offset: 0x20339, size: 0x8, addend: 0x0, symName: __ZNSt3__18_IterOpsINS_17_ClassicAlgPolicyEE11__iter_moveB7v160006IRPNS_4pairIyyEEEENS_9enable_ifIXsr12is_referenceIDTdeclsr3stdE7declvalIRT_EEEEE5valueEDTclsr3stdE4movedeclsr3stdE7declvalISA_EEEEE4typeEOS9_, symObjAddr: 0x6F84, symBinAddr: 0x1000086C0, symSize: 0x28 }
  - { offsetInCU: 0x20365, offset: 0x20365, size: 0x8, addend: 0x0, symName: __ZNSt3__14pairIyyEaSB7v160006EOS1_, symObjAddr: 0x6FAC, symBinAddr: 0x1000086E8, symSize: 0x30 }
  - { offsetInCU: 0x2039A, offset: 0x2039A, size: 0x8, addend: 0x0, symName: __ZNSt3__18_IterOpsINS_17_ClassicAlgPolicyEE25__validate_iter_referenceB7v160006IRPNS_4pairIyyEEEEvv, symObjAddr: 0x6FDC, symBinAddr: 0x100008718, symSize: 0x4 }
  - { offsetInCU: 0x203B8, offset: 0x203B8, size: 0x8, addend: 0x0, symName: __ZNSt3__118__unwrap_iter_implIPNS_4pairIyyEELb1EE8__unwrapB7v160006ES3_, symObjAddr: 0x6FE0, symBinAddr: 0x10000871C, symSize: 0x24 }
  - { offsetInCU: 0x203DB, offset: 0x203DB, size: 0x8, addend: 0x0, symName: __ZNSt3__119__unwrap_range_implIPNS_4pairIyyEES3_E8__rewrapB7v160006ES3_S3_, symObjAddr: 0x7004, symBinAddr: 0x100008740, symSize: 0x2C }
  - { offsetInCU: 0x2040C, offset: 0x2040C, size: 0x8, addend: 0x0, symName: __ZNSt3__118__unwrap_iter_implIPNS_4pairIyyEELb1EE8__rewrapB7v160006ES3_S3_, symObjAddr: 0x7030, symBinAddr: 0x10000876C, symSize: 0x50 }
  - { offsetInCU: 0x20447, offset: 0x20447, size: 0x8, addend: 0x0, symName: __ZNKSt3__111__copy_loopINS_17_ClassicAlgPolicyEEclB7v160006IPNS_4pairIyyEES6_S6_EENS4_IT_T1_EES7_T0_S8_, symObjAddr: 0x7240, symBinAddr: 0x10000897C, symSize: 0x88 }
  - { offsetInCU: 0x204B2, offset: 0x204B2, size: 0x8, addend: 0x0, symName: __ZNSt3__119__unwrap_range_implINS_11__wrap_iterIPNS_4pairIyyEEEES5_E8__unwrapB7v160006ES5_S5_, symObjAddr: 0x733C, symBinAddr: 0x100008A78, symSize: 0x68 }
  - { offsetInCU: 0x204E3, offset: 0x204E3, size: 0x8, addend: 0x0, symName: __ZNSt3__118__unwrap_iter_implINS_11__wrap_iterIPNS_4pairIyyEEEELb1EE8__unwrapB7v160006ES5_, symObjAddr: 0x73D0, symBinAddr: 0x100008B0C, symSize: 0x28 }
  - { offsetInCU: 0x2050B, offset: 0x2050B, size: 0x8, addend: 0x0, symName: __ZNSt3__119__to_address_helperINS_11__wrap_iterIPNS_4pairIyyEEEEvE6__callB7v160006ERKS5_, symObjAddr: 0x741C, symBinAddr: 0x100008B58, symSize: 0x30 }
  - { offsetInCU: 0x2052E, offset: 0x2052E, size: 0x8, addend: 0x0, symName: __ZNSt3__114pointer_traitsINS_11__wrap_iterIPNS_4pairIyyEEEEE10to_addressB7v160006ES5_, symObjAddr: 0x744C, symBinAddr: 0x100008B88, symSize: 0x2C }
  - { offsetInCU: 0x20552, offset: 0x20552, size: 0x8, addend: 0x0, symName: __ZNSt3__14pairIyyEaSB7v160006ERKS1_, symObjAddr: 0x7478, symBinAddr: 0x100008BB4, symSize: 0x30 }
  - { offsetInCU: 0x205A9, offset: 0x205A9, size: 0x8, addend: 0x0, symName: __ZNSt3__14pairINS_11__wrap_iterIPNS0_IyyEEEES3_EC1B7v160006IS4_S3_LPv0EEEOT_OT0_, symObjAddr: 0x74A8, symBinAddr: 0x100008BE4, symSize: 0x3C }
  - { offsetInCU: 0x20607, offset: 0x20607, size: 0x8, addend: 0x0, symName: __ZNSt3__14pairINS_11__wrap_iterIPNS0_IyyEEEES3_EC2B7v160006IS4_S3_LPv0EEEOT_OT0_, symObjAddr: 0x74E4, symBinAddr: 0x100008C20, symSize: 0x34 }
  - { offsetInCU: 0x20665, offset: 0x20665, size: 0x8, addend: 0x0, symName: __ZNSt3__119__unwrap_range_implINS_11__wrap_iterIPNS_4pairIyyEEEES5_E8__rewrapB7v160006ES5_S4_, symObjAddr: 0x7518, symBinAddr: 0x100008C54, symSize: 0x3C }
  - { offsetInCU: 0x20696, offset: 0x20696, size: 0x8, addend: 0x0, symName: __ZNSt3__118__unwrap_iter_implINS_11__wrap_iterIPNS_4pairIyyEEEELb1EE8__rewrapB7v160006ES5_S4_, symObjAddr: 0x75A0, symBinAddr: 0x100008CDC, symSize: 0x5C }
  - { offsetInCU: 0x206C7, offset: 0x206C7, size: 0x8, addend: 0x0, symName: __ZNKSt3__111__wrap_iterIPNS_4pairIyyEEEplB7v160006El, symObjAddr: 0x75FC, symBinAddr: 0x100008D38, symSize: 0x3C }
  - { offsetInCU: 0x20713, offset: 0x20713, size: 0x8, addend: 0x0, symName: __ZNSt3__114__split_bufferINS_4pairIyyEERNS_9allocatorIS2_EEE21_ConstructTransactionC1B7v160006EPPS2_m, symObjAddr: 0x7638, symBinAddr: 0x100008D74, symSize: 0x3C }
  - { offsetInCU: 0x20759, offset: 0x20759, size: 0x8, addend: 0x0, symName: __ZNSt3__114__split_bufferINS_4pairIyyEERNS_9allocatorIS2_EEE21_ConstructTransactionD1B7v160006Ev, symObjAddr: 0x7674, symBinAddr: 0x100008DB0, symSize: 0x2C }
  - { offsetInCU: 0x20783, offset: 0x20783, size: 0x8, addend: 0x0, symName: __ZNSt3__114__split_bufferINS_4pairIyyEERNS_9allocatorIS2_EEE21_ConstructTransactionC2B7v160006EPPS2_m, symObjAddr: 0x76A0, symBinAddr: 0x100008DDC, symSize: 0x44 }
  - { offsetInCU: 0x207C9, offset: 0x207C9, size: 0x8, addend: 0x0, symName: __ZNSt3__114__split_bufferINS_4pairIyyEERNS_9allocatorIS2_EEE21_ConstructTransactionD2B7v160006Ev, symObjAddr: 0x76E4, symBinAddr: 0x100008E20, symSize: 0x20 }
  - { offsetInCU: 0x207F3, offset: 0x207F3, size: 0x8, addend: 0x0, symName: __ZNSt3__111__wrap_iterIPNS_4pairIyyEEEC1B7v160006EPKvS3_, symObjAddr: 0x77F8, symBinAddr: 0x100008F34, symSize: 0x3C }
  - { offsetInCU: 0x20839, offset: 0x20839, size: 0x8, addend: 0x0, symName: __ZNSt3__111__wrap_iterIPNS_4pairIyyEEEC2B7v160006EPKvS3_, symObjAddr: 0x7834, symBinAddr: 0x100008F70, symSize: 0x24 }
  - { offsetInCU: 0x2087F, offset: 0x2087F, size: 0x8, addend: 0x0, symName: __ZNSt3__111__wrap_iterIPKNS_4pairIyyEEEC2B7v160006IPS2_EERKNS0_IT_EEPNS_9enable_ifIXsr14is_convertibleIS8_S4_EE5valueEvE4typeE, symObjAddr: 0x7858, symBinAddr: 0x100008F94, symSize: 0x40 }
  - { offsetInCU: 0x208CA, offset: 0x208CA, size: 0x8, addend: 0x0, symName: __ZNSt3__16vectorINS_4pairIyyEENS_9allocatorIS2_EEE7__clearB7v160006Ev, symObjAddr: 0x7898, symBinAddr: 0x100008FD4, symSize: 0x28 }
  - { offsetInCU: 0x208F0, offset: 0x208F0, size: 0x8, addend: 0x0, symName: __ZNKSt3__16vectorINS_4pairIyyEENS_9allocatorIS2_EEE17__annotate_shrinkB7v160006Em, symObjAddr: 0x78C0, symBinAddr: 0x100008FFC, symSize: 0xB4 }
  - { offsetInCU: 0x20925, offset: 0x20925, size: 0x8, addend: 0x0, symName: __ZNSt3__16vectorINS_4pairIyyEENS_9allocatorIS2_EEE22__base_destruct_at_endB7v160006EPS2_, symObjAddr: 0x7974, symBinAddr: 0x1000090B0, symSize: 0x8C }
  - { offsetInCU: 0x20969, offset: 0x20969, size: 0x8, addend: 0x0, symName: __ZNSt3__14pairIyyEC2B7v160006IRyyLPv0EEEOT_OT0_, symObjAddr: 0x7A00, symBinAddr: 0x10000913C, symSize: 0x34 }
  - { offsetInCU: 0x209C7, offset: 0x209C7, size: 0x8, addend: 0x0, symName: __ZNSt3__16vectorINS_4pairIyyEENS_9allocatorIS2_EEE19__copy_assign_allocB7v160006ERKS5_, symObjAddr: 0x7A34, symBinAddr: 0x100009170, symSize: 0x2C }
  - { offsetInCU: 0x209FC, offset: 0x209FC, size: 0x8, addend: 0x0, symName: __ZNSt3__16vectorINS_4pairIyyEENS_9allocatorIS2_EEE6assignIPS2_Li0EEEvT_S8_, symObjAddr: 0x7A60, symBinAddr: 0x10000919C, symSize: 0x17C }
  - { offsetInCU: 0x20A9B, offset: 0x20A9B, size: 0x8, addend: 0x0, symName: __ZNSt3__16vectorINS_4pairIyyEENS_9allocatorIS2_EEE19__copy_assign_allocB7v160006ERKS5_NS_17integral_constantIbLb0EEE, symObjAddr: 0x7BDC, symBinAddr: 0x100009318, symSize: 0x14 }
  - { offsetInCU: 0x20AD7, offset: 0x20AD7, size: 0x8, addend: 0x0, symName: __ZNSt3__16vectorINS_4pairIyyEENS_9allocatorIS2_EEE18__construct_at_endIPS2_Li0EEEvT_S8_m, symObjAddr: 0x7CAC, symBinAddr: 0x1000093E8, symSize: 0x8C }
  - { offsetInCU: 0x20B4A, offset: 0x20B4A, size: 0x8, addend: 0x0, symName: __ZNSt3__16vectorINS_4pairIyyEENS_9allocatorIS2_EEE17__destruct_at_endB7v160006EPS2_, symObjAddr: 0x7D38, symBinAddr: 0x100009474, symSize: 0x60 }
  - { offsetInCU: 0x20B8E, offset: 0x20B8E, size: 0x8, addend: 0x0, symName: __ZNSt3__16vectorINS_4pairIyyEENS_9allocatorIS2_EEE13__vdeallocateEv, symObjAddr: 0x7D98, symBinAddr: 0x1000094D4, symSize: 0x8C }
  - { offsetInCU: 0x20BB6, offset: 0x20BB6, size: 0x8, addend: 0x0, symName: __ZNSt3__16vectorINS_4pairIyyEENS_9allocatorIS2_EEE11__vallocateB7v160006Em, symObjAddr: 0x7E24, symBinAddr: 0x100009560, symSize: 0xAC }
  - { offsetInCU: 0x20BFA, offset: 0x20BFA, size: 0x8, addend: 0x0, symName: __ZNSt3__16vectorINS_4pairIyyEENS_9allocatorIS2_EEE27__invalidate_iterators_pastB7v160006EPS2_, symObjAddr: 0x813C, symBinAddr: 0x100009878, symSize: 0x14 }
  - { offsetInCU: 0x20C31, offset: 0x20C31, size: 0x8, addend: 0x0, symName: __ZNSt3__16vectorINS_4pairIyyEENS_9allocatorIS2_EEED2B7v160006Ev, symObjAddr: 0x8150, symBinAddr: 0x10000988C, symSize: 0x44 }
  - { offsetInCU: 0x20C5B, offset: 0x20C5B, size: 0x8, addend: 0x0, symName: __ZNSt3__16vectorINS_4pairIyyEENS_9allocatorIS2_EEE16__destroy_vectorC1ERS5_, symObjAddr: 0x8194, symBinAddr: 0x1000098D0, symSize: 0x34 }
  - { offsetInCU: 0x20C94, offset: 0x20C94, size: 0x8, addend: 0x0, symName: __ZNSt3__16vectorINS_4pairIyyEENS_9allocatorIS2_EEE16__destroy_vectorclB7v160006Ev, symObjAddr: 0x81C8, symBinAddr: 0x100009904, symSize: 0x9C }
  - { offsetInCU: 0x20CBA, offset: 0x20CBA, size: 0x8, addend: 0x0, symName: __ZNSt3__16vectorINS_4pairIyyEENS_9allocatorIS2_EEE16__destroy_vectorC2ERS5_, symObjAddr: 0x8264, symBinAddr: 0x1000099A0, symSize: 0x20 }
  - { offsetInCU: 0x20CF3, offset: 0x20CF3, size: 0x8, addend: 0x0, symName: __ZNSt3__112basic_stringIcNS_11char_traitsIcEENS_9allocatorIcEEEC2B7v160006Ev, symObjAddr: 0x8294, symBinAddr: 0x1000099D0, symSize: 0x54 }
  - { offsetInCU: 0x20D1D, offset: 0x20D1D, size: 0x8, addend: 0x0, symName: __ZNSt3__117__compressed_pairINS_12basic_stringIcNS_11char_traitsIcEENS_9allocatorIcEEE5__repES5_EC1B7v160006INS_18__default_init_tagESA_EEOT_OT0_, symObjAddr: 0x82E8, symBinAddr: 0x100009A24, symSize: 0x3C }
  - { offsetInCU: 0x20D75, offset: 0x20D75, size: 0x8, addend: 0x0, symName: __ZNSt3__112basic_stringIcNS_11char_traitsIcEENS_9allocatorIcEEE14__default_initB7v160006Ev, symObjAddr: 0x8334, symBinAddr: 0x100009A70, symSize: 0x40 }
  - { offsetInCU: 0x20D9B, offset: 0x20D9B, size: 0x8, addend: 0x0, symName: __ZNSt3__117__compressed_pairINS_12basic_stringIcNS_11char_traitsIcEENS_9allocatorIcEEE5__repES5_EC2B7v160006INS_18__default_init_tagESA_EEOT_OT0_, symObjAddr: 0x8374, symBinAddr: 0x100009AB0, symSize: 0x3C }
  - { offsetInCU: 0x20DF3, offset: 0x20DF3, size: 0x8, addend: 0x0, symName: __ZNSt3__122__compressed_pair_elemINS_12basic_stringIcNS_11char_traitsIcEENS_9allocatorIcEEE5__repELi0ELb0EEC2B7v160006ENS_18__default_init_tagE, symObjAddr: 0x83B0, symBinAddr: 0x100009AEC, symSize: 0x14 }
  - { offsetInCU: 0x20E27, offset: 0x20E27, size: 0x8, addend: 0x0, symName: __ZNSt3__122__compressed_pair_elemINS_9allocatorIcEELi1ELb1EEC2B7v160006ENS_18__default_init_tagE, symObjAddr: 0x83C4, symBinAddr: 0x100009B00, symSize: 0x2C }
  - { offsetInCU: 0x20E5B, offset: 0x20E5B, size: 0x8, addend: 0x0, symName: __ZNSt3__19allocatorIcEC2B7v160006Ev, symObjAddr: 0x83F0, symBinAddr: 0x100009B2C, symSize: 0x2C }
  - { offsetInCU: 0x20E85, offset: 0x20E85, size: 0x8, addend: 0x0, symName: __ZNSt3__116__non_trivial_ifILb1ENS_9allocatorIcEEEC2B7v160006Ev, symObjAddr: 0x841C, symBinAddr: 0x100009B58, symSize: 0x14 }
  - { offsetInCU: 0x20EAF, offset: 0x20EAF, size: 0x8, addend: 0x0, symName: __ZNSt3__117__compressed_pairINS_12basic_stringIcNS_11char_traitsIcEENS_9allocatorIcEEE5__repES5_E5firstB7v160006Ev, symObjAddr: 0x8430, symBinAddr: 0x100009B6C, symSize: 0x24 }
  - { offsetInCU: 0x20ED5, offset: 0x20ED5, size: 0x8, addend: 0x0, symName: __ZNSt3__122__compressed_pair_elemINS_12basic_stringIcNS_11char_traitsIcEENS_9allocatorIcEEE5__repELi0ELb0EE5__getB7v160006Ev, symObjAddr: 0x8454, symBinAddr: 0x100009B90, symSize: 0x14 }
  - { offsetInCU: 0x20EFB, offset: 0x20EFB, size: 0x8, addend: 0x0, symName: __ZNSt3__112basic_stringIcNS_11char_traitsIcEENS_9allocatorIcEEEC2B7v160006IDnEEPKc, symObjAddr: 0x8468, symBinAddr: 0x100009BA4, symSize: 0x60 }
  - { offsetInCU: 0x20F39, offset: 0x20F39, size: 0x8, addend: 0x0, symName: __ZNSt3__111char_traitsIcE6lengthEPKc, symObjAddr: 0x84C8, symBinAddr: 0x100009C04, symSize: 0x34 }
  - { offsetInCU: 0x20F5C, offset: 0x20F5C, size: 0x8, addend: 0x0, symName: __ZNSt3__16vectorIcNS_9allocatorIcEEEC2B7v160006Ev, symObjAddr: 0x8520, symBinAddr: 0x100009C5C, symSize: 0x58 }
  - { offsetInCU: 0x20F86, offset: 0x20F86, size: 0x8, addend: 0x0, symName: __ZNSt3__117__compressed_pairIPcNS_9allocatorIcEEEC1B7v160006IDnNS_18__default_init_tagEEEOT_OT0_, symObjAddr: 0x8578, symBinAddr: 0x100009CB4, symSize: 0x3C }
  - { offsetInCU: 0x20FDE, offset: 0x20FDE, size: 0x8, addend: 0x0, symName: __ZNSt3__117__compressed_pairIPcNS_9allocatorIcEEEC2B7v160006IDnNS_18__default_init_tagEEEOT_OT0_, symObjAddr: 0x85C4, symBinAddr: 0x100009D00, symSize: 0x40 }
  - { offsetInCU: 0x21036, offset: 0x21036, size: 0x8, addend: 0x0, symName: __ZNSt3__122__compressed_pair_elemIPcLi0ELb0EEC2B7v160006IDnvEEOT_, symObjAddr: 0x8604, symBinAddr: 0x100009D40, symSize: 0x1C }
  - { offsetInCU: 0x21078, offset: 0x21078, size: 0x8, addend: 0x0, symName: __ZNSt3__16vectorINS_12basic_stringIcNS_11char_traitsIcEENS_9allocatorIcEEEENS4_IS6_EEEC2B7v160006Ev, symObjAddr: 0x8620, symBinAddr: 0x100009D5C, symSize: 0x58 }
  - { offsetInCU: 0x210A2, offset: 0x210A2, size: 0x8, addend: 0x0, symName: __ZNSt3__117__compressed_pairIPNS_12basic_stringIcNS_11char_traitsIcEENS_9allocatorIcEEEENS4_IS6_EEEC1B7v160006IDnNS_18__default_init_tagEEEOT_OT0_, symObjAddr: 0x8678, symBinAddr: 0x100009DB4, symSize: 0x3C }
  - { offsetInCU: 0x210FA, offset: 0x210FA, size: 0x8, addend: 0x0, symName: __ZNSt3__117__compressed_pairIPNS_12basic_stringIcNS_11char_traitsIcEENS_9allocatorIcEEEENS4_IS6_EEEC2B7v160006IDnNS_18__default_init_tagEEEOT_OT0_, symObjAddr: 0x86C4, symBinAddr: 0x100009E00, symSize: 0x40 }
  - { offsetInCU: 0x21152, offset: 0x21152, size: 0x8, addend: 0x0, symName: __ZNSt3__122__compressed_pair_elemIPNS_12basic_stringIcNS_11char_traitsIcEENS_9allocatorIcEEEELi0ELb0EEC2B7v160006IDnvEEOT_, symObjAddr: 0x8704, symBinAddr: 0x100009E40, symSize: 0x1C }
  - { offsetInCU: 0x21194, offset: 0x21194, size: 0x8, addend: 0x0, symName: __ZNSt3__122__compressed_pair_elemINS_9allocatorINS_12basic_stringIcNS_11char_traitsIcEENS1_IcEEEEEELi1ELb1EEC2B7v160006ENS_18__default_init_tagE, symObjAddr: 0x8720, symBinAddr: 0x100009E5C, symSize: 0x2C }
  - { offsetInCU: 0x211C8, offset: 0x211C8, size: 0x8, addend: 0x0, symName: __ZNSt3__19allocatorINS_12basic_stringIcNS_11char_traitsIcEENS0_IcEEEEEC2B7v160006Ev, symObjAddr: 0x874C, symBinAddr: 0x100009E88, symSize: 0x2C }
  - { offsetInCU: 0x211F2, offset: 0x211F2, size: 0x8, addend: 0x0, symName: __ZNSt3__116__non_trivial_ifILb1ENS_9allocatorINS_12basic_stringIcNS_11char_traitsIcEENS1_IcEEEEEEEC2B7v160006Ev, symObjAddr: 0x8778, symBinAddr: 0x100009EB4, symSize: 0x14 }
  - { offsetInCU: 0x2121C, offset: 0x2121C, size: 0x8, addend: 0x0, symName: __ZNSt3__16vectorINS_12basic_stringIcNS_11char_traitsIcEENS_9allocatorIcEEEENS4_IS6_EEE9__end_capB7v160006Ev, symObjAddr: 0x878C, symBinAddr: 0x100009EC8, symSize: 0x28 }
  - { offsetInCU: 0x21242, offset: 0x21242, size: 0x8, addend: 0x0, symName: __ZNSt3__16vectorINS_12basic_stringIcNS_11char_traitsIcEENS_9allocatorIcEEEENS4_IS6_EEE22__construct_one_at_endB7v160006IJRKS6_EEEvDpOT_, symObjAddr: 0x87B4, symBinAddr: 0x100009EF0, symSize: 0x90 }
  - { offsetInCU: 0x21291, offset: 0x21291, size: 0x8, addend: 0x0, symName: __ZNSt3__16vectorINS_12basic_stringIcNS_11char_traitsIcEENS_9allocatorIcEEEENS4_IS6_EEE21__push_back_slow_pathIRKS6_EEvOT_, symObjAddr: 0x8844, symBinAddr: 0x100009F80, symSize: 0xD8 }
  - { offsetInCU: 0x212EF, offset: 0x212EF, size: 0x8, addend: 0x0, symName: __ZNSt3__117__compressed_pairIPNS_12basic_stringIcNS_11char_traitsIcEENS_9allocatorIcEEEENS4_IS6_EEE5firstB7v160006Ev, symObjAddr: 0x891C, symBinAddr: 0x10000A058, symSize: 0x24 }
  - { offsetInCU: 0x21315, offset: 0x21315, size: 0x8, addend: 0x0, symName: __ZNSt3__122__compressed_pair_elemIPNS_12basic_stringIcNS_11char_traitsIcEENS_9allocatorIcEEEELi0ELb0EE5__getB7v160006Ev, symObjAddr: 0x8940, symBinAddr: 0x10000A07C, symSize: 0x14 }
  - { offsetInCU: 0x21356, offset: 0x21356, size: 0x8, addend: 0x0, symName: __ZNSt3__16vectorINS_12basic_stringIcNS_11char_traitsIcEENS_9allocatorIcEEEENS4_IS6_EEE21_ConstructTransactionC1B7v160006ERS8_m, symObjAddr: 0x8954, symBinAddr: 0x10000A090, symSize: 0x3C }
  - { offsetInCU: 0x2139E, offset: 0x2139E, size: 0x8, addend: 0x0, symName: __ZNSt3__116allocator_traitsINS_9allocatorINS_12basic_stringIcNS_11char_traitsIcEENS1_IcEEEEEEE9constructB7v160006IS6_JRKS6_EvvEEvRS7_PT_DpOT0_, symObjAddr: 0x8990, symBinAddr: 0x10000A0CC, symSize: 0x30 }
  - { offsetInCU: 0x213F2, offset: 0x213F2, size: 0x8, addend: 0x0, symName: __ZNSt3__16vectorINS_12basic_stringIcNS_11char_traitsIcEENS_9allocatorIcEEEENS4_IS6_EEE7__allocB7v160006Ev, symObjAddr: 0x89C0, symBinAddr: 0x10000A0FC, symSize: 0x28 }
  - { offsetInCU: 0x21418, offset: 0x21418, size: 0x8, addend: 0x0, symName: __ZNSt3__16vectorINS_12basic_stringIcNS_11char_traitsIcEENS_9allocatorIcEEEENS4_IS6_EEE21_ConstructTransactionD1B7v160006Ev, symObjAddr: 0x89FC, symBinAddr: 0x10000A138, symSize: 0x2C }
  - { offsetInCU: 0x21442, offset: 0x21442, size: 0x8, addend: 0x0, symName: __ZNSt3__16vectorINS_12basic_stringIcNS_11char_traitsIcEENS_9allocatorIcEEEENS4_IS6_EEE21_ConstructTransactionC2B7v160006ERS8_m, symObjAddr: 0x8A28, symBinAddr: 0x10000A164, symSize: 0x4C }
  - { offsetInCU: 0x2148A, offset: 0x2148A, size: 0x8, addend: 0x0, symName: __ZNSt3__117__compressed_pairIPNS_12basic_stringIcNS_11char_traitsIcEENS_9allocatorIcEEEENS4_IS6_EEE6secondB7v160006Ev, symObjAddr: 0x8AB0, symBinAddr: 0x10000A1EC, symSize: 0x24 }
  - { offsetInCU: 0x214B0, offset: 0x214B0, size: 0x8, addend: 0x0, symName: __ZNSt3__122__compressed_pair_elemINS_9allocatorINS_12basic_stringIcNS_11char_traitsIcEENS1_IcEEEEEELi1ELb1EE5__getB7v160006Ev, symObjAddr: 0x8AD4, symBinAddr: 0x10000A210, symSize: 0x14 }
  - { offsetInCU: 0x214D6, offset: 0x214D6, size: 0x8, addend: 0x0, symName: __ZNSt3__16vectorINS_12basic_stringIcNS_11char_traitsIcEENS_9allocatorIcEEEENS4_IS6_EEE21_ConstructTransactionD2B7v160006Ev, symObjAddr: 0x8AE8, symBinAddr: 0x10000A224, symSize: 0x20 }
  - { offsetInCU: 0x21500, offset: 0x21500, size: 0x8, addend: 0x0, symName: __ZNKSt3__16vectorINS_12basic_stringIcNS_11char_traitsIcEENS_9allocatorIcEEEENS4_IS6_EEE11__recommendB7v160006Em, symObjAddr: 0x8B08, symBinAddr: 0x10000A244, symSize: 0xB4 }
  - { offsetInCU: 0x21555, offset: 0x21555, size: 0x8, addend: 0x0, symName: __ZNSt3__114__split_bufferINS_12basic_stringIcNS_11char_traitsIcEENS_9allocatorIcEEEERNS4_IS6_EEEC1EmmS8_, symObjAddr: 0x8BBC, symBinAddr: 0x10000A2F8, symSize: 0x44 }
  - { offsetInCU: 0x215AB, offset: 0x215AB, size: 0x8, addend: 0x0, symName: __ZNSt3__114__split_bufferINS_12basic_stringIcNS_11char_traitsIcEENS_9allocatorIcEEEERNS4_IS6_EEED1Ev, symObjAddr: 0x8D18, symBinAddr: 0x10000A454, symSize: 0x2C }
  - { offsetInCU: 0x215D7, offset: 0x215D7, size: 0x8, addend: 0x0, symName: __ZNKSt3__16vectorINS_12basic_stringIcNS_11char_traitsIcEENS_9allocatorIcEEEENS4_IS6_EEE8max_sizeEv, symObjAddr: 0x8D44, symBinAddr: 0x10000A480, symSize: 0x60 }
  - { offsetInCU: 0x215FF, offset: 0x215FF, size: 0x8, addend: 0x0, symName: __ZNKSt3__16vectorINS_12basic_stringIcNS_11char_traitsIcEENS_9allocatorIcEEEENS4_IS6_EEE20__throw_length_errorB7v160006Ev, symObjAddr: 0x8DA4, symBinAddr: 0x10000A4E0, symSize: 0x1C }
  - { offsetInCU: 0x21625, offset: 0x21625, size: 0x8, addend: 0x0, symName: __ZNKSt3__16vectorINS_12basic_stringIcNS_11char_traitsIcEENS_9allocatorIcEEEENS4_IS6_EEE8capacityB7v160006Ev, symObjAddr: 0x8DC0, symBinAddr: 0x10000A4FC, symSize: 0x40 }
  - { offsetInCU: 0x21656, offset: 0x21656, size: 0x8, addend: 0x0, symName: __ZNSt3__116allocator_traitsINS_9allocatorINS_12basic_stringIcNS_11char_traitsIcEENS1_IcEEEEEEE8max_sizeB7v160006IS7_vvEEmRKS7_, symObjAddr: 0x8E00, symBinAddr: 0x10000A53C, symSize: 0x28 }
  - { offsetInCU: 0x21681, offset: 0x21681, size: 0x8, addend: 0x0, symName: __ZNKSt3__16vectorINS_12basic_stringIcNS_11char_traitsIcEENS_9allocatorIcEEEENS4_IS6_EEE7__allocB7v160006Ev, symObjAddr: 0x8E28, symBinAddr: 0x10000A564, symSize: 0x28 }
  - { offsetInCU: 0x216A7, offset: 0x216A7, size: 0x8, addend: 0x0, symName: __ZNKSt3__117__compressed_pairIPNS_12basic_stringIcNS_11char_traitsIcEENS_9allocatorIcEEEENS4_IS6_EEE6secondB7v160006Ev, symObjAddr: 0x8E50, symBinAddr: 0x10000A58C, symSize: 0x24 }
  - { offsetInCU: 0x216CD, offset: 0x216CD, size: 0x8, addend: 0x0, symName: __ZNKSt3__122__compressed_pair_elemINS_9allocatorINS_12basic_stringIcNS_11char_traitsIcEENS1_IcEEEEEELi1ELb1EE5__getB7v160006Ev, symObjAddr: 0x8E74, symBinAddr: 0x10000A5B0, symSize: 0x14 }
  - { offsetInCU: 0x216F3, offset: 0x216F3, size: 0x8, addend: 0x0, symName: __ZNKSt3__16vectorINS_12basic_stringIcNS_11char_traitsIcEENS_9allocatorIcEEEENS4_IS6_EEE9__end_capB7v160006Ev, symObjAddr: 0x8E88, symBinAddr: 0x10000A5C4, symSize: 0x28 }
  - { offsetInCU: 0x21719, offset: 0x21719, size: 0x8, addend: 0x0, symName: __ZNKSt3__117__compressed_pairIPNS_12basic_stringIcNS_11char_traitsIcEENS_9allocatorIcEEEENS4_IS6_EEE5firstB7v160006Ev, symObjAddr: 0x8EB0, symBinAddr: 0x10000A5EC, symSize: 0x24 }
  - { offsetInCU: 0x2173F, offset: 0x2173F, size: 0x8, addend: 0x0, symName: __ZNKSt3__122__compressed_pair_elemIPNS_12basic_stringIcNS_11char_traitsIcEENS_9allocatorIcEEEELi0ELb0EE5__getB7v160006Ev, symObjAddr: 0x8ED4, symBinAddr: 0x10000A610, symSize: 0x14 }
  - { offsetInCU: 0x21765, offset: 0x21765, size: 0x8, addend: 0x0, symName: __ZNSt3__114__split_bufferINS_12basic_stringIcNS_11char_traitsIcEENS_9allocatorIcEEEERNS4_IS6_EEEC2EmmS8_, symObjAddr: 0x8EE8, symBinAddr: 0x10000A624, symSize: 0xE0 }
  - { offsetInCU: 0x217D8, offset: 0x217D8, size: 0x8, addend: 0x0, symName: __ZNSt3__117__compressed_pairIPNS_12basic_stringIcNS_11char_traitsIcEENS_9allocatorIcEEEERNS4_IS6_EEEC1B7v160006IDnS9_EEOT_OT0_, symObjAddr: 0x8FC8, symBinAddr: 0x10000A704, symSize: 0x3C }
  - { offsetInCU: 0x21830, offset: 0x21830, size: 0x8, addend: 0x0, symName: __ZNSt3__114__split_bufferINS_12basic_stringIcNS_11char_traitsIcEENS_9allocatorIcEEEERNS4_IS6_EEE7__allocB7v160006Ev, symObjAddr: 0x9044, symBinAddr: 0x10000A780, symSize: 0x28 }
  - { offsetInCU: 0x21856, offset: 0x21856, size: 0x8, addend: 0x0, symName: __ZNSt3__114__split_bufferINS_12basic_stringIcNS_11char_traitsIcEENS_9allocatorIcEEEERNS4_IS6_EEE9__end_capB7v160006Ev, symObjAddr: 0x906C, symBinAddr: 0x10000A7A8, symSize: 0x28 }
  - { offsetInCU: 0x2187C, offset: 0x2187C, size: 0x8, addend: 0x0, symName: __ZNSt3__117__compressed_pairIPNS_12basic_stringIcNS_11char_traitsIcEENS_9allocatorIcEEEERNS4_IS6_EEEC2B7v160006IDnS9_EEOT_OT0_, symObjAddr: 0x9094, symBinAddr: 0x10000A7D0, symSize: 0x48 }
  - { offsetInCU: 0x218D4, offset: 0x218D4, size: 0x8, addend: 0x0, symName: __ZNSt3__122__compressed_pair_elemIRNS_9allocatorINS_12basic_stringIcNS_11char_traitsIcEENS1_IcEEEEEELi1ELb0EEC2B7v160006IS8_vEEOT_, symObjAddr: 0x90DC, symBinAddr: 0x10000A818, symSize: 0x20 }
  - { offsetInCU: 0x21916, offset: 0x21916, size: 0x8, addend: 0x0, symName: __ZNSt3__19allocatorINS_12basic_stringIcNS_11char_traitsIcEENS0_IcEEEEE8allocateB7v160006Em, symObjAddr: 0x90FC, symBinAddr: 0x10000A838, symSize: 0x5C }
  - { offsetInCU: 0x2194A, offset: 0x2194A, size: 0x8, addend: 0x0, symName: __ZNSt3__117__compressed_pairIPNS_12basic_stringIcNS_11char_traitsIcEENS_9allocatorIcEEEERNS4_IS6_EEE6secondB7v160006Ev, symObjAddr: 0x9158, symBinAddr: 0x10000A894, symSize: 0x28 }
  - { offsetInCU: 0x21970, offset: 0x21970, size: 0x8, addend: 0x0, symName: __ZNSt3__122__compressed_pair_elemIRNS_9allocatorINS_12basic_stringIcNS_11char_traitsIcEENS1_IcEEEEEELi1ELb0EE5__getB7v160006Ev, symObjAddr: 0x9180, symBinAddr: 0x10000A8BC, symSize: 0x18 }
  - { offsetInCU: 0x21996, offset: 0x21996, size: 0x8, addend: 0x0, symName: __ZNSt3__117__compressed_pairIPNS_12basic_stringIcNS_11char_traitsIcEENS_9allocatorIcEEEERNS4_IS6_EEE5firstB7v160006Ev, symObjAddr: 0x9198, symBinAddr: 0x10000A8D4, symSize: 0x24 }
  - { offsetInCU: 0x219BC, offset: 0x219BC, size: 0x8, addend: 0x0, symName: __ZNKSt3__16vectorINS_12basic_stringIcNS_11char_traitsIcEENS_9allocatorIcEEEENS4_IS6_EEE17__annotate_deleteB7v160006Ev, symObjAddr: 0x91BC, symBinAddr: 0x10000A8F8, symSize: 0xD4 }
  - { offsetInCU: 0x219E2, offset: 0x219E2, size: 0x8, addend: 0x0, symName: __ZNSt3__116reverse_iteratorIPNS_12basic_stringIcNS_11char_traitsIcEENS_9allocatorIcEEEEEC1B7v160006ES7_, symObjAddr: 0x93BC, symBinAddr: 0x10000AAF8, symSize: 0x34 }
  - { offsetInCU: 0x21A1A, offset: 0x21A1A, size: 0x8, addend: 0x0, symName: __ZNKSt3__116reverse_iteratorIPNS_12basic_stringIcNS_11char_traitsIcEENS_9allocatorIcEEEEE4baseB7v160006Ev, symObjAddr: 0x93F0, symBinAddr: 0x10000AB2C, symSize: 0x18 }
  - { offsetInCU: 0x21A40, offset: 0x21A40, size: 0x8, addend: 0x0, symName: __ZNKSt3__16vectorINS_12basic_stringIcNS_11char_traitsIcEENS_9allocatorIcEEEENS4_IS6_EEE14__annotate_newB7v160006Em, symObjAddr: 0x9444, symBinAddr: 0x10000AB80, symSize: 0xC8 }
  - { offsetInCU: 0x21A75, offset: 0x21A75, size: 0x8, addend: 0x0, symName: __ZNKSt3__16vectorINS_12basic_stringIcNS_11char_traitsIcEENS_9allocatorIcEEEENS4_IS6_EEE31__annotate_contiguous_containerB7v160006EPKvSA_SA_SA_, symObjAddr: 0x951C, symBinAddr: 0x10000AC58, symSize: 0x20 }
  - { offsetInCU: 0x21AC7, offset: 0x21AC7, size: 0x8, addend: 0x0, symName: __ZNKSt3__16vectorINS_12basic_stringIcNS_11char_traitsIcEENS_9allocatorIcEEEENS4_IS6_EEE4dataB7v160006Ev, symObjAddr: 0x953C, symBinAddr: 0x10000AC78, symSize: 0x28 }
  - { offsetInCU: 0x21AED, offset: 0x21AED, size: 0x8, addend: 0x0, symName: __ZNSt3__129_AllocatorDestroyRangeReverseINS_9allocatorINS_12basic_stringIcNS_11char_traitsIcEENS1_IcEEEEEENS_16reverse_iteratorIPS6_EEEC1B7v160006ERS7_RSA_SD_, symObjAddr: 0x95B0, symBinAddr: 0x10000ACEC, symSize: 0x44 }
  - { offsetInCU: 0x21B4A, offset: 0x21B4A, size: 0x8, addend: 0x0, symName: __ZNSt3__116allocator_traitsINS_9allocatorINS_12basic_stringIcNS_11char_traitsIcEENS1_IcEEEEEEE9constructB7v160006IS6_JS6_EvvEEvRS7_PT_DpOT0_, symObjAddr: 0x963C, symBinAddr: 0x10000AD78, symSize: 0x30 }
  - { offsetInCU: 0x21B9E, offset: 0x21B9E, size: 0x8, addend: 0x0, symName: __ZNKSt3__116reverse_iteratorIPNS_12basic_stringIcNS_11char_traitsIcEENS_9allocatorIcEEEEEdeB7v160006Ev, symObjAddr: 0x9690, symBinAddr: 0x10000ADCC, symSize: 0x28 }
  - { offsetInCU: 0x21BD2, offset: 0x21BD2, size: 0x8, addend: 0x0, symName: __ZNSt3__116reverse_iteratorIPNS_12basic_stringIcNS_11char_traitsIcEENS_9allocatorIcEEEEEppB7v160006Ev, symObjAddr: 0x96B8, symBinAddr: 0x10000ADF4, symSize: 0x20 }
  - { offsetInCU: 0x21BF8, offset: 0x21BF8, size: 0x8, addend: 0x0, symName: __ZNSt3__128__exception_guard_exceptionsINS_29_AllocatorDestroyRangeReverseINS_9allocatorINS_12basic_stringIcNS_11char_traitsIcEENS2_IcEEEEEENS_16reverse_iteratorIPS7_EEEEE10__completeB7v160006Ev, symObjAddr: 0x96D8, symBinAddr: 0x10000AE14, symSize: 0x1C }
  - { offsetInCU: 0x21C1E, offset: 0x21C1E, size: 0x8, addend: 0x0, symName: __ZNSt3__128__exception_guard_exceptionsINS_29_AllocatorDestroyRangeReverseINS_9allocatorINS_12basic_stringIcNS_11char_traitsIcEENS2_IcEEEEEENS_16reverse_iteratorIPS7_EEEEED1B7v160006Ev, symObjAddr: 0x96F4, symBinAddr: 0x10000AE30, symSize: 0x2C }
  - { offsetInCU: 0x21C48, offset: 0x21C48, size: 0x8, addend: 0x0, symName: __ZNSt3__128__exception_guard_exceptionsINS_29_AllocatorDestroyRangeReverseINS_9allocatorINS_12basic_stringIcNS_11char_traitsIcEENS2_IcEEEEEENS_16reverse_iteratorIPS7_EEEEEC1B7v160006ESC_, symObjAddr: 0x9720, symBinAddr: 0x10000AE5C, symSize: 0x34 }
  - { offsetInCU: 0x21C81, offset: 0x21C81, size: 0x8, addend: 0x0, symName: __ZNSt3__128__exception_guard_exceptionsINS_29_AllocatorDestroyRangeReverseINS_9allocatorINS_12basic_stringIcNS_11char_traitsIcEENS2_IcEEEEEENS_16reverse_iteratorIPS7_EEEEEC2B7v160006ESC_, symObjAddr: 0x9754, symBinAddr: 0x10000AE90, symSize: 0x30 }
  - { offsetInCU: 0x21CBA, offset: 0x21CBA, size: 0x8, addend: 0x0, symName: __ZNSt3__129_AllocatorDestroyRangeReverseINS_9allocatorINS_12basic_stringIcNS_11char_traitsIcEENS1_IcEEEEEENS_16reverse_iteratorIPS6_EEEC2B7v160006ERS7_RSA_SD_, symObjAddr: 0x9784, symBinAddr: 0x10000AEC0, symSize: 0x38 }
  - { offsetInCU: 0x21D11, offset: 0x21D11, size: 0x8, addend: 0x0, symName: __ZNSt3__112basic_stringIcNS_11char_traitsIcEENS_9allocatorIcEEEC1B7v160006EOS5_, symObjAddr: 0x97F8, symBinAddr: 0x10000AF34, symSize: 0x34 }
  - { offsetInCU: 0x21D4A, offset: 0x21D4A, size: 0x8, addend: 0x0, symName: __ZNSt3__112basic_stringIcNS_11char_traitsIcEENS_9allocatorIcEEEC2B7v160006EOS5_, symObjAddr: 0x982C, symBinAddr: 0x10000AF68, symSize: 0x80 }
  - { offsetInCU: 0x21D89, offset: 0x21D89, size: 0x8, addend: 0x0, symName: __ZNSt3__119__to_address_helperINS_16reverse_iteratorIPNS_12basic_stringIcNS_11char_traitsIcEENS_9allocatorIcEEEEEEvE6__callB7v160006ERKS9_, symObjAddr: 0x98C0, symBinAddr: 0x10000AFFC, symSize: 0x38 }
  - { offsetInCU: 0x21DAC, offset: 0x21DAC, size: 0x8, addend: 0x0, symName: __ZNKSt3__116reverse_iteratorIPNS_12basic_stringIcNS_11char_traitsIcEENS_9allocatorIcEEEEEptB7v160006Ev, symObjAddr: 0x98F8, symBinAddr: 0x10000B034, symSize: 0x2C }
  - { offsetInCU: 0x21DD2, offset: 0x21DD2, size: 0x8, addend: 0x0, symName: __ZNSt3__128__exception_guard_exceptionsINS_29_AllocatorDestroyRangeReverseINS_9allocatorINS_12basic_stringIcNS_11char_traitsIcEENS2_IcEEEEEENS_16reverse_iteratorIPS7_EEEEED2B7v160006Ev, symObjAddr: 0x99F4, symBinAddr: 0x10000B130, symSize: 0x50 }
  - { offsetInCU: 0x21DFC, offset: 0x21DFC, size: 0x8, addend: 0x0, symName: __ZNKSt3__129_AllocatorDestroyRangeReverseINS_9allocatorINS_12basic_stringIcNS_11char_traitsIcEENS1_IcEEEEEENS_16reverse_iteratorIPS6_EEEclB7v160006Ev, symObjAddr: 0x9A44, symBinAddr: 0x10000B180, symSize: 0xB4 }
  - { offsetInCU: 0x21E23, offset: 0x21E23, size: 0x8, addend: 0x0, symName: __ZNSt3__116reverse_iteratorINS0_IPNS_12basic_stringIcNS_11char_traitsIcEENS_9allocatorIcEEEEEEEC1B7v160006ES8_, symObjAddr: 0x9B68, symBinAddr: 0x10000B2A4, symSize: 0x3C }
  - { offsetInCU: 0x21E5B, offset: 0x21E5B, size: 0x8, addend: 0x0, symName: __ZNSt3__116allocator_traitsINS_9allocatorINS_12basic_stringIcNS_11char_traitsIcEENS1_IcEEEEEEE7destroyB7v160006IS6_vvEEvRS7_PT_, symObjAddr: 0x9C04, symBinAddr: 0x10000B340, symSize: 0x28 }
  - { offsetInCU: 0x21E95, offset: 0x21E95, size: 0x8, addend: 0x0, symName: __ZNSt3__116reverse_iteratorINS0_IPNS_12basic_stringIcNS_11char_traitsIcEENS_9allocatorIcEEEEEEEppB7v160006Ev, symObjAddr: 0x9C50, symBinAddr: 0x10000B38C, symSize: 0x30 }
  - { offsetInCU: 0x21EBB, offset: 0x21EBB, size: 0x8, addend: 0x0, symName: __ZNKSt3__116reverse_iteratorINS0_IPNS_12basic_stringIcNS_11char_traitsIcEENS_9allocatorIcEEEEEEE4baseB7v160006Ev, symObjAddr: 0x9C80, symBinAddr: 0x10000B3BC, symSize: 0x24 }
  - { offsetInCU: 0x21EE7, offset: 0x21EE7, size: 0x8, addend: 0x0, symName: __ZNSt3__119__to_address_helperINS_16reverse_iteratorINS1_IPNS_12basic_stringIcNS_11char_traitsIcEENS_9allocatorIcEEEEEEEEvE6__callB7v160006ERKSA_, symObjAddr: 0x9CEC, symBinAddr: 0x10000B428, symSize: 0x38 }
  - { offsetInCU: 0x21F0A, offset: 0x21F0A, size: 0x8, addend: 0x0, symName: __ZNKSt3__116reverse_iteratorINS0_IPNS_12basic_stringIcNS_11char_traitsIcEENS_9allocatorIcEEEEEEEptB7v160006Ev, symObjAddr: 0x9D24, symBinAddr: 0x10000B460, symSize: 0x4C }
  - { offsetInCU: 0x21F30, offset: 0x21F30, size: 0x8, addend: 0x0, symName: __ZNSt3__116reverse_iteratorIPNS_12basic_stringIcNS_11char_traitsIcEENS_9allocatorIcEEEEEpLB7v160006El, symObjAddr: 0x9E4C, symBinAddr: 0x10000B588, symSize: 0x30 }
  - { offsetInCU: 0x21F64, offset: 0x21F64, size: 0x8, addend: 0x0, symName: __ZNSt3__116reverse_iteratorIPNS_12basic_stringIcNS_11char_traitsIcEENS_9allocatorIcEEEEEmmB7v160006Ev, symObjAddr: 0x9E7C, symBinAddr: 0x10000B5B8, symSize: 0x20 }
  - { offsetInCU: 0x21F8A, offset: 0x21F8A, size: 0x8, addend: 0x0, symName: __ZNSt3__116reverse_iteratorINS0_IPNS_12basic_stringIcNS_11char_traitsIcEENS_9allocatorIcEEEEEEEC2B7v160006ES8_, symObjAddr: 0x9E9C, symBinAddr: 0x10000B5D8, symSize: 0x2C }
  - { offsetInCU: 0x21FC2, offset: 0x21FC2, size: 0x8, addend: 0x0, symName: __ZNSt3__116reverse_iteratorIPNS_12basic_stringIcNS_11char_traitsIcEENS_9allocatorIcEEEEEC2B7v160006ES7_, symObjAddr: 0x9EC8, symBinAddr: 0x10000B604, symSize: 0x28 }
  - { offsetInCU: 0x21FFA, offset: 0x21FFA, size: 0x8, addend: 0x0, symName: __ZNSt3__114__split_bufferINS_12basic_stringIcNS_11char_traitsIcEENS_9allocatorIcEEEERNS4_IS6_EEED2Ev, symObjAddr: 0x9EF0, symBinAddr: 0x10000B62C, symSize: 0x8C }
  - { offsetInCU: 0x22026, offset: 0x22026, size: 0x8, addend: 0x0, symName: __ZNSt3__114__split_bufferINS_12basic_stringIcNS_11char_traitsIcEENS_9allocatorIcEEEERNS4_IS6_EEE5clearB7v160006Ev, symObjAddr: 0x9F7C, symBinAddr: 0x10000B6B8, symSize: 0x28 }
  - { offsetInCU: 0x2204C, offset: 0x2204C, size: 0x8, addend: 0x0, symName: __ZNSt3__116allocator_traitsINS_9allocatorINS_12basic_stringIcNS_11char_traitsIcEENS1_IcEEEEEEE10deallocateB7v160006ERS7_PS6_m, symObjAddr: 0x9FA4, symBinAddr: 0x10000B6E0, symSize: 0x34 }
  - { offsetInCU: 0x2208E, offset: 0x2208E, size: 0x8, addend: 0x0, symName: __ZNKSt3__114__split_bufferINS_12basic_stringIcNS_11char_traitsIcEENS_9allocatorIcEEEERNS4_IS6_EEE8capacityB7v160006Ev, symObjAddr: 0x9FD8, symBinAddr: 0x10000B714, symSize: 0x40 }
  - { offsetInCU: 0x220B4, offset: 0x220B4, size: 0x8, addend: 0x0, symName: __ZNSt3__114__split_bufferINS_12basic_stringIcNS_11char_traitsIcEENS_9allocatorIcEEEERNS4_IS6_EEE17__destruct_at_endB7v160006EPS6_, symObjAddr: 0xA018, symBinAddr: 0x10000B754, symSize: 0x2C }
  - { offsetInCU: 0x220E8, offset: 0x220E8, size: 0x8, addend: 0x0, symName: __ZNSt3__114__split_bufferINS_12basic_stringIcNS_11char_traitsIcEENS_9allocatorIcEEEERNS4_IS6_EEE17__destruct_at_endB7v160006EPS6_NS_17integral_constantIbLb0EEE, symObjAddr: 0xA044, symBinAddr: 0x10000B780, symSize: 0x80 }
  - { offsetInCU: 0x22128, offset: 0x22128, size: 0x8, addend: 0x0, symName: __ZNSt3__19allocatorINS_12basic_stringIcNS_11char_traitsIcEENS0_IcEEEEE10deallocateB7v160006EPS5_m, symObjAddr: 0xA0C4, symBinAddr: 0x10000B800, symSize: 0x44 }
  - { offsetInCU: 0x2216A, offset: 0x2216A, size: 0x8, addend: 0x0, symName: __ZNKSt3__114__split_bufferINS_12basic_stringIcNS_11char_traitsIcEENS_9allocatorIcEEEERNS4_IS6_EEE9__end_capB7v160006Ev, symObjAddr: 0xA108, symBinAddr: 0x10000B844, symSize: 0x28 }
  - { offsetInCU: 0x22190, offset: 0x22190, size: 0x8, addend: 0x0, symName: __ZNKSt3__117__compressed_pairIPNS_12basic_stringIcNS_11char_traitsIcEENS_9allocatorIcEEEERNS4_IS6_EEE5firstB7v160006Ev, symObjAddr: 0xA130, symBinAddr: 0x10000B86C, symSize: 0x24 }
  - { offsetInCU: 0x221B6, offset: 0x221B6, size: 0x8, addend: 0x0, symName: __ZNKSt3__112basic_stringIcNS_11char_traitsIcEENS_9allocatorIcEEE15__get_long_sizeB7v160006Ev, symObjAddr: 0xA154, symBinAddr: 0x10000B890, symSize: 0x28 }
  - { offsetInCU: 0x221DC, offset: 0x221DC, size: 0x8, addend: 0x0, symName: __ZNKSt3__112basic_stringIcNS_11char_traitsIcEENS_9allocatorIcEEE16__get_short_sizeB7v160006Ev, symObjAddr: 0xA17C, symBinAddr: 0x10000B8B8, symSize: 0x34 }
  - { offsetInCU: 0x22202, offset: 0x22202, size: 0x8, addend: 0x0, symName: __ZNKSt3__112basic_stringIcNS_11char_traitsIcEENS_9allocatorIcEEEcvNS_17basic_string_viewIcS2_EEB7v160006Ev, symObjAddr: 0xA260, symBinAddr: 0x10000B99C, symSize: 0x50 }
  - { offsetInCU: 0x22228, offset: 0x22228, size: 0x8, addend: 0x0, symName: __ZNSt3__117basic_string_viewIcNS_11char_traitsIcEEEC1B7v160006EPKc, symObjAddr: 0xA2B0, symBinAddr: 0x10000B9EC, symSize: 0x34 }
  - { offsetInCU: 0x22261, offset: 0x22261, size: 0x8, addend: 0x0, symName: __ZNKSt3__117basic_string_viewIcNS_11char_traitsIcEEE4sizeB7v160006Ev, symObjAddr: 0xA2E4, symBinAddr: 0x10000BA20, symSize: 0x18 }
  - { offsetInCU: 0x22287, offset: 0x22287, size: 0x8, addend: 0x0, symName: __ZNKSt3__117basic_string_viewIcNS_11char_traitsIcEEE7compareES3_, symObjAddr: 0xA2FC, symBinAddr: 0x10000BA38, symSize: 0x13C }
  - { offsetInCU: 0x222DA, offset: 0x222DA, size: 0x8, addend: 0x0, symName: __ZNSt3__111char_traitsIcE7compareEPKcS3_m, symObjAddr: 0xA438, symBinAddr: 0x10000BB74, symSize: 0x6C }
  - { offsetInCU: 0x22319, offset: 0x22319, size: 0x8, addend: 0x0, symName: __ZNKSt3__117basic_string_viewIcNS_11char_traitsIcEEE4dataB7v160006Ev, symObjAddr: 0xA4A4, symBinAddr: 0x10000BBE0, symSize: 0x18 }
  - { offsetInCU: 0x2233F, offset: 0x2233F, size: 0x8, addend: 0x0, symName: __ZNSt3__117basic_string_viewIcNS_11char_traitsIcEEEC1B7v160006EPKcm, symObjAddr: 0xA4F0, symBinAddr: 0x10000BC2C, symSize: 0x3C }
  - { offsetInCU: 0x22387, offset: 0x22387, size: 0x8, addend: 0x0, symName: __ZNSt3__117basic_string_viewIcNS_11char_traitsIcEEEC2B7v160006EPKcm, symObjAddr: 0xA52C, symBinAddr: 0x10000BC68, symSize: 0x50 }
  - { offsetInCU: 0x223CF, offset: 0x223CF, size: 0x8, addend: 0x0, symName: __ZNSt3__117basic_string_viewIcNS_11char_traitsIcEEEC2B7v160006EPKc, symObjAddr: 0xA57C, symBinAddr: 0x10000BCB8, symSize: 0x44 }
  - { offsetInCU: 0x22408, offset: 0x22408, size: 0x8, addend: 0x0, symName: __ZNSt3__16vectorINS_12basic_stringIcNS_11char_traitsIcEENS_9allocatorIcEEEENS4_IS6_EEE22__construct_one_at_endB7v160006IJS6_EEEvDpOT_, symObjAddr: 0xA5E4, symBinAddr: 0x10000BD20, symSize: 0x90 }
  - { offsetInCU: 0x22457, offset: 0x22457, size: 0x8, addend: 0x0, symName: __ZNSt3__16vectorINS_12basic_stringIcNS_11char_traitsIcEENS_9allocatorIcEEEENS4_IS6_EEE21__push_back_slow_pathIS6_EEvOT_, symObjAddr: 0xA674, symBinAddr: 0x10000BDB0, symSize: 0xD8 }
  - { offsetInCU: 0x224C0, offset: 0x224C0, size: 0x8, addend: 0x0, symName: __ZNSt3__116allocator_traitsINS_9allocatorIcEEE37select_on_container_copy_constructionB7v160006IS2_vvEES2_RKS2_, symObjAddr: 0xA74C, symBinAddr: 0x10000BE88, symSize: 0x10 }
  - { offsetInCU: 0x224EF, offset: 0x224EF, size: 0x8, addend: 0x0, symName: __ZNKSt3__112basic_stringIcNS_11char_traitsIcEENS_9allocatorIcEEE13get_allocatorB7v160006Ev, symObjAddr: 0xA75C, symBinAddr: 0x10000BE98, symSize: 0x24 }
  - { offsetInCU: 0x22515, offset: 0x22515, size: 0x8, addend: 0x0, symName: __ZNSt3__112basic_stringIcNS_11char_traitsIcEENS_9allocatorIcEEEC1B7v160006ENS_24__uninitialized_size_tagEmRKS4_, symObjAddr: 0xA780, symBinAddr: 0x10000BEBC, symSize: 0x3C }
  - { offsetInCU: 0x22568, offset: 0x22568, size: 0x8, addend: 0x0, symName: __ZNSt3__112basic_stringIcNS_11char_traitsIcEENS_9allocatorIcEEE13__get_pointerB7v160006Ev, symObjAddr: 0xA7BC, symBinAddr: 0x10000BEF8, symSize: 0x54 }
  - { offsetInCU: 0x2258E, offset: 0x2258E, size: 0x8, addend: 0x0, symName: __ZNSt3__111char_traitsIcE4copyEPcPKcm, symObjAddr: 0xA810, symBinAddr: 0x10000BF4C, symSize: 0x5C }
  - { offsetInCU: 0x225CD, offset: 0x225CD, size: 0x8, addend: 0x0, symName: __ZNSt3__111char_traitsIcE6assignEPcmc, symObjAddr: 0xA86C, symBinAddr: 0x10000BFA8, symSize: 0x44 }
  - { offsetInCU: 0x2260C, offset: 0x2260C, size: 0x8, addend: 0x0, symName: __ZNKSt3__112basic_stringIcNS_11char_traitsIcEENS_9allocatorIcEEE7__allocB7v160006Ev, symObjAddr: 0xA8B0, symBinAddr: 0x10000BFEC, symSize: 0x24 }
  - { offsetInCU: 0x22632, offset: 0x22632, size: 0x8, addend: 0x0, symName: __ZNKSt3__117__compressed_pairINS_12basic_stringIcNS_11char_traitsIcEENS_9allocatorIcEEE5__repES5_E6secondB7v160006Ev, symObjAddr: 0xA8D4, symBinAddr: 0x10000C010, symSize: 0x24 }
  - { offsetInCU: 0x22658, offset: 0x22658, size: 0x8, addend: 0x0, symName: __ZNKSt3__122__compressed_pair_elemINS_9allocatorIcEELi1ELb1EE5__getB7v160006Ev, symObjAddr: 0xA8F8, symBinAddr: 0x10000C034, symSize: 0x14 }
  - { offsetInCU: 0x2267E, offset: 0x2267E, size: 0x8, addend: 0x0, symName: __ZNSt3__112basic_stringIcNS_11char_traitsIcEENS_9allocatorIcEEEC2B7v160006ENS_24__uninitialized_size_tagEmRKS4_, symObjAddr: 0xA90C, symBinAddr: 0x10000C048, symSize: 0x118 }
  - { offsetInCU: 0x226FD, offset: 0x226FD, size: 0x8, addend: 0x0, symName: __ZNSt3__117__compressed_pairINS_12basic_stringIcNS_11char_traitsIcEENS_9allocatorIcEEE5__repES5_EC1B7v160006INS_18__default_init_tagERKS5_EEOT_OT0_, symObjAddr: 0xAA24, symBinAddr: 0x10000C160, symSize: 0x3C }
  - { offsetInCU: 0x22755, offset: 0x22755, size: 0x8, addend: 0x0, symName: __ZNKSt3__112basic_stringIcNS_11char_traitsIcEENS_9allocatorIcEEE8max_sizeB7v160006Ev, symObjAddr: 0xAA60, symBinAddr: 0x10000C19C, symSize: 0xAC }
  - { offsetInCU: 0x227A7, offset: 0x227A7, size: 0x8, addend: 0x0, symName: __ZNKSt3__112basic_stringIcNS_11char_traitsIcEENS_9allocatorIcEEE20__throw_length_errorB7v160006Ev, symObjAddr: 0xAB0C, symBinAddr: 0x10000C248, symSize: 0x1C }
  - { offsetInCU: 0x227CD, offset: 0x227CD, size: 0x8, addend: 0x0, symName: __ZNSt3__112basic_stringIcNS_11char_traitsIcEENS_9allocatorIcEEE13__fits_in_ssoB7v160006Em, symObjAddr: 0xAB28, symBinAddr: 0x10000C264, symSize: 0x20 }
  - { offsetInCU: 0x227F1, offset: 0x227F1, size: 0x8, addend: 0x0, symName: __ZNSt3__112basic_stringIcNS_11char_traitsIcEENS_9allocatorIcEEE16__set_short_sizeB7v160006Em, symObjAddr: 0xAB48, symBinAddr: 0x10000C284, symSize: 0x78 }
  - { offsetInCU: 0x22826, offset: 0x22826, size: 0x8, addend: 0x0, symName: __ZNSt3__112basic_stringIcNS_11char_traitsIcEENS_9allocatorIcEEE11__recommendB7v160006Em, symObjAddr: 0xABC0, symBinAddr: 0x10000C2FC, symSize: 0x84 }
  - { offsetInCU: 0x22859, offset: 0x22859, size: 0x8, addend: 0x0, symName: __ZNSt3__116allocator_traitsINS_9allocatorIcEEE8allocateB7v160006ERS2_m, symObjAddr: 0xAC44, symBinAddr: 0x10000C380, symSize: 0x2C }
  - { offsetInCU: 0x2288C, offset: 0x2288C, size: 0x8, addend: 0x0, symName: __ZNSt3__112basic_stringIcNS_11char_traitsIcEENS_9allocatorIcEEE7__allocB7v160006Ev, symObjAddr: 0xAC70, symBinAddr: 0x10000C3AC, symSize: 0x24 }
  - { offsetInCU: 0x228B2, offset: 0x228B2, size: 0x8, addend: 0x0, symName: __ZNSt3__112basic_stringIcNS_11char_traitsIcEENS_9allocatorIcEEE16__begin_lifetimeB7v160006EPcm, symObjAddr: 0xAC94, symBinAddr: 0x10000C3D0, symSize: 0x14 }
  - { offsetInCU: 0x228E5, offset: 0x228E5, size: 0x8, addend: 0x0, symName: __ZNSt3__112basic_stringIcNS_11char_traitsIcEENS_9allocatorIcEEE14__set_long_capB7v160006Em, symObjAddr: 0xACA8, symBinAddr: 0x10000C3E4, symSize: 0x70 }
  - { offsetInCU: 0x2291A, offset: 0x2291A, size: 0x8, addend: 0x0, symName: __ZNSt3__112basic_stringIcNS_11char_traitsIcEENS_9allocatorIcEEE18__set_long_pointerB7v160006EPc, symObjAddr: 0xAD18, symBinAddr: 0x10000C454, symSize: 0x38 }
  - { offsetInCU: 0x2294F, offset: 0x2294F, size: 0x8, addend: 0x0, symName: __ZNSt3__112basic_stringIcNS_11char_traitsIcEENS_9allocatorIcEEE15__set_long_sizeB7v160006Em, symObjAddr: 0xAD50, symBinAddr: 0x10000C48C, symSize: 0x38 }
  - { offsetInCU: 0x22984, offset: 0x22984, size: 0x8, addend: 0x0, symName: __ZNSt3__117__compressed_pairINS_12basic_stringIcNS_11char_traitsIcEENS_9allocatorIcEEE5__repES5_EC2B7v160006INS_18__default_init_tagERKS5_EEOT_OT0_, symObjAddr: 0xAD88, symBinAddr: 0x10000C4C4, symSize: 0x40 }
  - { offsetInCU: 0x229DC, offset: 0x229DC, size: 0x8, addend: 0x0, symName: __ZNSt3__122__compressed_pair_elemINS_9allocatorIcEELi1ELb1EEC2B7v160006IRKS2_vEEOT_, symObjAddr: 0xADC8, symBinAddr: 0x10000C504, symSize: 0x18 }
  - { offsetInCU: 0x22A1E, offset: 0x22A1E, size: 0x8, addend: 0x0, symName: __ZNSt3__116allocator_traitsINS_9allocatorIcEEE8max_sizeB7v160006IS2_vvEEmRKS2_, symObjAddr: 0xADE0, symBinAddr: 0x10000C51C, symSize: 0x28 }
  - { offsetInCU: 0x22A49, offset: 0x22A49, size: 0x8, addend: 0x0, symName: __ZNSt3__112basic_stringIcNS_11char_traitsIcEENS_9allocatorIcEEE10__align_itB7v160006ILm16EEEmm, symObjAddr: 0xAE08, symBinAddr: 0x10000C544, symSize: 0x1C }
  - { offsetInCU: 0x22A77, offset: 0x22A77, size: 0x8, addend: 0x0, symName: __ZNSt3__19allocatorIcE8allocateB7v160006Em, symObjAddr: 0xAE24, symBinAddr: 0x10000C560, symSize: 0x58 }
  - { offsetInCU: 0x22AAB, offset: 0x22AAB, size: 0x8, addend: 0x0, symName: __ZNSt3__117__compressed_pairINS_12basic_stringIcNS_11char_traitsIcEENS_9allocatorIcEEE5__repES5_E6secondB7v160006Ev, symObjAddr: 0xAE7C, symBinAddr: 0x10000C5B8, symSize: 0x24 }
  - { offsetInCU: 0x22AD1, offset: 0x22AD1, size: 0x8, addend: 0x0, symName: __ZNSt3__112basic_stringIcNS_11char_traitsIcEENS_9allocatorIcEEE18__get_long_pointerB7v160006Ev, symObjAddr: 0xAEA0, symBinAddr: 0x10000C5DC, symSize: 0x28 }
  - { offsetInCU: 0x22AF7, offset: 0x22AF7, size: 0x8, addend: 0x0, symName: __ZNSt3__112basic_stringIcNS_11char_traitsIcEENS_9allocatorIcEEE19__get_short_pointerB7v160006Ev, symObjAddr: 0xAEC8, symBinAddr: 0x10000C604, symSize: 0x28 }
  - { offsetInCU: 0x22B1D, offset: 0x22B1D, size: 0x8, addend: 0x0, symName: __ZNSt3__114pointer_traitsIPcE10pointer_toB7v160006ERc, symObjAddr: 0xAEF0, symBinAddr: 0x10000C62C, symSize: 0x14 }
  - { offsetInCU: 0x22B66, offset: 0x22B66, size: 0x8, addend: 0x0, symName: __ZNKSt3__114__copy_trivialclB7v160006IKccLi0EEENS_4pairIPT_PT0_EES5_S5_S7_, symObjAddr: 0xB100, symBinAddr: 0x10000C83C, symSize: 0x48 }
  - { offsetInCU: 0x22BEA, offset: 0x22BEA, size: 0x8, addend: 0x0, symName: __ZNSt3__119__unwrap_range_implIPKcS2_E8__unwrapB7v160006ES2_S2_, symObjAddr: 0xB1AC, symBinAddr: 0x10000C8E8, symSize: 0x58 }
  - { offsetInCU: 0x22C21, offset: 0x22C21, size: 0x8, addend: 0x0, symName: __ZNSt3__14pairIPKcS2_EC1B7v160006IS2_S2_LPv0EEEOT_OT0_, symObjAddr: 0xB228, symBinAddr: 0x10000C964, symSize: 0x3C }
  - { offsetInCU: 0x22C7F, offset: 0x22C7F, size: 0x8, addend: 0x0, symName: __ZNSt3__118__unwrap_iter_implIPKcLb1EE8__unwrapB7v160006ES2_, symObjAddr: 0xB264, symBinAddr: 0x10000C9A0, symSize: 0x24 }
  - { offsetInCU: 0x22CA2, offset: 0x22CA2, size: 0x8, addend: 0x0, symName: __ZNSt3__14pairIPKcS2_EC2B7v160006IS2_S2_LPv0EEEOT_OT0_, symObjAddr: 0xB288, symBinAddr: 0x10000C9C4, symSize: 0x34 }
  - { offsetInCU: 0x22D06, offset: 0x22D06, size: 0x8, addend: 0x0, symName: __ZNSt3__14pairIPKcPcEC1B7v160006IRS2_S3_LPv0EEEOT_OT0_, symObjAddr: 0xB370, symBinAddr: 0x10000CAAC, symSize: 0x3C }
  - { offsetInCU: 0x22D64, offset: 0x22D64, size: 0x8, addend: 0x0, symName: __ZNSt3__14pairIPKcPcEC2B7v160006IRS2_S3_LPv0EEEOT_OT0_, symObjAddr: 0xB3AC, symBinAddr: 0x10000CAE8, symSize: 0x34 }
  - { offsetInCU: 0x22DC2, offset: 0x22DC2, size: 0x8, addend: 0x0, symName: __ZNSt3__14pairIPKcPcEC1B7v160006IS2_S3_LPv0EEEOT_OT0_, symObjAddr: 0xB3E0, symBinAddr: 0x10000CB1C, symSize: 0x3C }
  - { offsetInCU: 0x22E20, offset: 0x22E20, size: 0x8, addend: 0x0, symName: __ZNSt3__14pairIPKcPcEC2B7v160006IS2_S3_LPv0EEEOT_OT0_, symObjAddr: 0xB41C, symBinAddr: 0x10000CB58, symSize: 0x34 }
  - { offsetInCU: 0x22E7E, offset: 0x22E7E, size: 0x8, addend: 0x0, symName: __ZNSt3__119__unwrap_range_implIPKcS2_E8__rewrapB7v160006ES2_S2_, symObjAddr: 0xB450, symBinAddr: 0x10000CB8C, symSize: 0x2C }
  - { offsetInCU: 0x22EAF, offset: 0x22EAF, size: 0x8, addend: 0x0, symName: __ZNSt3__118__unwrap_iter_implIPKcLb1EE8__rewrapB7v160006ES2_S2_, symObjAddr: 0xB4B8, symBinAddr: 0x10000CBF4, symSize: 0x48 }
  - { offsetInCU: 0x22EE0, offset: 0x22EE0, size: 0x8, addend: 0x0, symName: __ZNSt3__16vectorINS_12basic_stringIcNS_11char_traitsIcEENS_9allocatorIcEEEENS4_IS6_EEE11__make_iterB7v160006EPS6_, symObjAddr: 0xB5A8, symBinAddr: 0x10000CCE4, symSize: 0x34 }
  - { offsetInCU: 0x22F15, offset: 0x22F15, size: 0x8, addend: 0x0, symName: __ZNSt3__111__wrap_iterIPNS_12basic_stringIcNS_11char_traitsIcEENS_9allocatorIcEEEEEC1B7v160006EPKvS7_, symObjAddr: 0xB5DC, symBinAddr: 0x10000CD18, symSize: 0x3C }
  - { offsetInCU: 0x22F5B, offset: 0x22F5B, size: 0x8, addend: 0x0, symName: __ZNSt3__111__wrap_iterIPNS_12basic_stringIcNS_11char_traitsIcEENS_9allocatorIcEEEEEC2B7v160006EPKvS7_, symObjAddr: 0xB618, symBinAddr: 0x10000CD54, symSize: 0x24 }
  - { offsetInCU: 0x22FA1, offset: 0x22FA1, size: 0x8, addend: 0x0, symName: __ZNKSt3__111__wrap_iterIPNS_12basic_stringIcNS_11char_traitsIcEENS_9allocatorIcEEEEE4baseB7v160006Ev, symObjAddr: 0xB63C, symBinAddr: 0x10000CD78, symSize: 0x18 }
  - { offsetInCU: 0x22FC7, offset: 0x22FC7, size: 0x8, addend: 0x0, symName: __ZNSt3__16vectorIcNS_9allocatorIcEEE9__end_capB7v160006Ev, symObjAddr: 0xB654, symBinAddr: 0x10000CD90, symSize: 0x28 }
  - { offsetInCU: 0x22FED, offset: 0x22FED, size: 0x8, addend: 0x0, symName: __ZNSt3__16vectorIcNS_9allocatorIcEEE22__construct_one_at_endB7v160006IJRKcEEEvDpOT_, symObjAddr: 0xB67C, symBinAddr: 0x10000CDB8, symSize: 0x90 }
  - { offsetInCU: 0x2303C, offset: 0x2303C, size: 0x8, addend: 0x0, symName: __ZNSt3__16vectorIcNS_9allocatorIcEEE21__push_back_slow_pathIRKcEEvOT_, symObjAddr: 0xB70C, symBinAddr: 0x10000CE48, symSize: 0xD8 }
  - { offsetInCU: 0x2309A, offset: 0x2309A, size: 0x8, addend: 0x0, symName: __ZNSt3__117__compressed_pairIPcNS_9allocatorIcEEE5firstB7v160006Ev, symObjAddr: 0xB7E4, symBinAddr: 0x10000CF20, symSize: 0x24 }
  - { offsetInCU: 0x230C0, offset: 0x230C0, size: 0x8, addend: 0x0, symName: __ZNSt3__122__compressed_pair_elemIPcLi0ELb0EE5__getB7v160006Ev, symObjAddr: 0xB808, symBinAddr: 0x10000CF44, symSize: 0x14 }
  - { offsetInCU: 0x23101, offset: 0x23101, size: 0x8, addend: 0x0, symName: __ZNSt3__16vectorIcNS_9allocatorIcEEE21_ConstructTransactionC1B7v160006ERS3_m, symObjAddr: 0xB81C, symBinAddr: 0x10000CF58, symSize: 0x3C }
  - { offsetInCU: 0x23149, offset: 0x23149, size: 0x8, addend: 0x0, symName: __ZNSt3__116allocator_traitsINS_9allocatorIcEEE9constructB7v160006IcJRKcEvvEEvRS2_PT_DpOT0_, symObjAddr: 0xB858, symBinAddr: 0x10000CF94, symSize: 0x30 }
  - { offsetInCU: 0x2319D, offset: 0x2319D, size: 0x8, addend: 0x0, symName: __ZNSt3__16vectorIcNS_9allocatorIcEEE21_ConstructTransactionD1B7v160006Ev, symObjAddr: 0xB888, symBinAddr: 0x10000CFC4, symSize: 0x2C }
  - { offsetInCU: 0x231C7, offset: 0x231C7, size: 0x8, addend: 0x0, symName: __ZNSt3__16vectorIcNS_9allocatorIcEEE21_ConstructTransactionC2B7v160006ERS3_m, symObjAddr: 0xB8B4, symBinAddr: 0x10000CFF0, symSize: 0x44 }
  - { offsetInCU: 0x2320F, offset: 0x2320F, size: 0x8, addend: 0x0, symName: __ZNSt3__16vectorIcNS_9allocatorIcEEE21_ConstructTransactionD2B7v160006Ev, symObjAddr: 0xB924, symBinAddr: 0x10000D060, symSize: 0x20 }
  - { offsetInCU: 0x23239, offset: 0x23239, size: 0x8, addend: 0x0, symName: __ZNKSt3__16vectorIcNS_9allocatorIcEEE11__recommendB7v160006Em, symObjAddr: 0xB944, symBinAddr: 0x10000D080, symSize: 0xB4 }
  - { offsetInCU: 0x2328E, offset: 0x2328E, size: 0x8, addend: 0x0, symName: __ZNSt3__114__split_bufferIcRNS_9allocatorIcEEEC1EmmS3_, symObjAddr: 0xB9F8, symBinAddr: 0x10000D134, symSize: 0x44 }
  - { offsetInCU: 0x232E4, offset: 0x232E4, size: 0x8, addend: 0x0, symName: __ZNSt3__114__split_bufferIcRNS_9allocatorIcEEED1Ev, symObjAddr: 0xBB54, symBinAddr: 0x10000D290, symSize: 0x2C }
  - { offsetInCU: 0x23310, offset: 0x23310, size: 0x8, addend: 0x0, symName: __ZNKSt3__16vectorIcNS_9allocatorIcEEE8max_sizeEv, symObjAddr: 0xBB80, symBinAddr: 0x10000D2BC, symSize: 0x60 }
  - { offsetInCU: 0x23338, offset: 0x23338, size: 0x8, addend: 0x0, symName: __ZNKSt3__16vectorIcNS_9allocatorIcEEE20__throw_length_errorB7v160006Ev, symObjAddr: 0xBBE0, symBinAddr: 0x10000D31C, symSize: 0x1C }
  - { offsetInCU: 0x2335E, offset: 0x2335E, size: 0x8, addend: 0x0, symName: __ZNKSt3__16vectorIcNS_9allocatorIcEEE7__allocB7v160006Ev, symObjAddr: 0xBBFC, symBinAddr: 0x10000D338, symSize: 0x28 }
  - { offsetInCU: 0x23384, offset: 0x23384, size: 0x8, addend: 0x0, symName: __ZNKSt3__117__compressed_pairIPcNS_9allocatorIcEEE6secondB7v160006Ev, symObjAddr: 0xBC24, symBinAddr: 0x10000D360, symSize: 0x24 }
  - { offsetInCU: 0x233AA, offset: 0x233AA, size: 0x8, addend: 0x0, symName: __ZNSt3__114__split_bufferIcRNS_9allocatorIcEEEC2EmmS3_, symObjAddr: 0xBC48, symBinAddr: 0x10000D384, symSize: 0xD4 }
  - { offsetInCU: 0x2341D, offset: 0x2341D, size: 0x8, addend: 0x0, symName: __ZNSt3__117__compressed_pairIPcRNS_9allocatorIcEEEC1B7v160006IDnS4_EEOT_OT0_, symObjAddr: 0xBD1C, symBinAddr: 0x10000D458, symSize: 0x3C }
  - { offsetInCU: 0x23475, offset: 0x23475, size: 0x8, addend: 0x0, symName: __ZNSt3__114__split_bufferIcRNS_9allocatorIcEEE7__allocB7v160006Ev, symObjAddr: 0xBD98, symBinAddr: 0x10000D4D4, symSize: 0x28 }
  - { offsetInCU: 0x2349B, offset: 0x2349B, size: 0x8, addend: 0x0, symName: __ZNSt3__114__split_bufferIcRNS_9allocatorIcEEE9__end_capB7v160006Ev, symObjAddr: 0xBDC0, symBinAddr: 0x10000D4FC, symSize: 0x28 }
  - { offsetInCU: 0x234C1, offset: 0x234C1, size: 0x8, addend: 0x0, symName: __ZNSt3__117__compressed_pairIPcRNS_9allocatorIcEEEC2B7v160006IDnS4_EEOT_OT0_, symObjAddr: 0xBDE8, symBinAddr: 0x10000D524, symSize: 0x48 }
  - { offsetInCU: 0x23519, offset: 0x23519, size: 0x8, addend: 0x0, symName: __ZNSt3__122__compressed_pair_elemIRNS_9allocatorIcEELi1ELb0EEC2B7v160006IS3_vEEOT_, symObjAddr: 0xBE30, symBinAddr: 0x10000D56C, symSize: 0x20 }
  - { offsetInCU: 0x2355B, offset: 0x2355B, size: 0x8, addend: 0x0, symName: __ZNSt3__117__compressed_pairIPcRNS_9allocatorIcEEE6secondB7v160006Ev, symObjAddr: 0xBE50, symBinAddr: 0x10000D58C, symSize: 0x28 }
  - { offsetInCU: 0x23581, offset: 0x23581, size: 0x8, addend: 0x0, symName: __ZNSt3__122__compressed_pair_elemIRNS_9allocatorIcEELi1ELb0EE5__getB7v160006Ev, symObjAddr: 0xBE78, symBinAddr: 0x10000D5B4, symSize: 0x18 }
  - { offsetInCU: 0x235A7, offset: 0x235A7, size: 0x8, addend: 0x0, symName: __ZNSt3__117__compressed_pairIPcRNS_9allocatorIcEEE5firstB7v160006Ev, symObjAddr: 0xBE90, symBinAddr: 0x10000D5CC, symSize: 0x24 }
  - { offsetInCU: 0x235CD, offset: 0x235CD, size: 0x8, addend: 0x0, symName: __ZNKSt3__16vectorIcNS_9allocatorIcEEE17__annotate_deleteB7v160006Ev, symObjAddr: 0xBEB4, symBinAddr: 0x10000D5F0, symSize: 0xB8 }
  - { offsetInCU: 0x235F3, offset: 0x235F3, size: 0x8, addend: 0x0, symName: __ZNSt3__116reverse_iteratorIPcEC1B7v160006ES1_, symObjAddr: 0xBFE4, symBinAddr: 0x10000D720, symSize: 0x34 }
  - { offsetInCU: 0x2362B, offset: 0x2362B, size: 0x8, addend: 0x0, symName: __ZNKSt3__116reverse_iteratorIPcE4baseB7v160006Ev, symObjAddr: 0xC018, symBinAddr: 0x10000D754, symSize: 0x18 }
  - { offsetInCU: 0x23651, offset: 0x23651, size: 0x8, addend: 0x0, symName: __ZNKSt3__16vectorIcNS_9allocatorIcEEE14__annotate_newB7v160006Em, symObjAddr: 0xC06C, symBinAddr: 0x10000D7A8, symSize: 0xAC }
  - { offsetInCU: 0x236AC, offset: 0x236AC, size: 0x8, addend: 0x0, symName: __ZNKSt3__111__move_loopINS_17_ClassicAlgPolicyEEclB7v160006INS_16reverse_iteratorIPcEES6_S6_EENS_4pairIT_T1_EES8_T0_S9_, symObjAddr: 0xC3E0, symBinAddr: 0x10000DB1C, symSize: 0xA0 }
  - { offsetInCU: 0x23717, offset: 0x23717, size: 0x8, addend: 0x0, symName: __ZNSt3__119__unwrap_range_implINS_16reverse_iteratorIPcEES3_E8__unwrapB7v160006ES3_S3_, symObjAddr: 0xC5CC, symBinAddr: 0x10000DD08, symSize: 0x84 }
  - { offsetInCU: 0x2374E, offset: 0x2374E, size: 0x8, addend: 0x0, symName: __ZNSt3__14pairINS_16reverse_iteratorIPcEES3_EC1B7v160006IS3_S3_LPv0EEEOT_OT0_, symObjAddr: 0xC650, symBinAddr: 0x10000DD8C, symSize: 0x3C }
  - { offsetInCU: 0x237AC, offset: 0x237AC, size: 0x8, addend: 0x0, symName: __ZNSt3__14pairINS_16reverse_iteratorIPcEES3_EC2B7v160006IS3_S3_LPv0EEEOT_OT0_, symObjAddr: 0xC68C, symBinAddr: 0x10000DDC8, symSize: 0x34 }
  - { offsetInCU: 0x23810, offset: 0x23810, size: 0x8, addend: 0x0, symName: __ZNSt3__18_IterOpsINS_17_ClassicAlgPolicyEE11__iter_moveB7v160006IRNS_16reverse_iteratorIPcEEEENS_9enable_ifIXsr12is_referenceIDTdeclsr3stdE7declvalIRT_EEEEE5valueEDTclsr3stdE4movedeclsr3stdE7declvalISA_EEEEE4typeEOS9_, symObjAddr: 0xC708, symBinAddr: 0x10000DE44, symSize: 0x28 }
  - { offsetInCU: 0x2383C, offset: 0x2383C, size: 0x8, addend: 0x0, symName: __ZNKSt3__116reverse_iteratorIPcEdeB7v160006Ev, symObjAddr: 0xC730, symBinAddr: 0x10000DE6C, symSize: 0x28 }
  - { offsetInCU: 0x23870, offset: 0x23870, size: 0x8, addend: 0x0, symName: __ZNSt3__116reverse_iteratorIPcEppB7v160006Ev, symObjAddr: 0xC758, symBinAddr: 0x10000DE94, symSize: 0x20 }
  - { offsetInCU: 0x23896, offset: 0x23896, size: 0x8, addend: 0x0, symName: __ZNSt3__18_IterOpsINS_17_ClassicAlgPolicyEE25__validate_iter_referenceB7v160006IRNS_16reverse_iteratorIPcEEEEvv, symObjAddr: 0xC778, symBinAddr: 0x10000DEB4, symSize: 0x4 }
  - { offsetInCU: 0x238B4, offset: 0x238B4, size: 0x8, addend: 0x0, symName: __ZNSt3__118__unwrap_iter_implINS_16reverse_iteratorIPcEELb0EE8__unwrapB7v160006ES3_, symObjAddr: 0xC77C, symBinAddr: 0x10000DEB8, symSize: 0x24 }
  - { offsetInCU: 0x238D7, offset: 0x238D7, size: 0x8, addend: 0x0, symName: __ZNSt3__119__unwrap_range_implINS_16reverse_iteratorIPcEES3_E8__rewrapB7v160006ES3_S3_, symObjAddr: 0xC7A0, symBinAddr: 0x10000DEDC, symSize: 0x5C }
  - { offsetInCU: 0x23908, offset: 0x23908, size: 0x8, addend: 0x0, symName: __ZNSt3__118__unwrap_iter_implINS_16reverse_iteratorIPcEELb0EE8__rewrapB7v160006ES3_S3_, symObjAddr: 0xC7FC, symBinAddr: 0x10000DF38, symSize: 0x2C }
  - { offsetInCU: 0x23935, offset: 0x23935, size: 0x8, addend: 0x0, symName: __ZNSt3__116reverse_iteratorIPcEC2B7v160006ES1_, symObjAddr: 0xC828, symBinAddr: 0x10000DF64, symSize: 0x28 }
  - { offsetInCU: 0x2396D, offset: 0x2396D, size: 0x8, addend: 0x0, symName: __ZNSt3__114__split_bufferIcRNS_9allocatorIcEEED2Ev, symObjAddr: 0xC850, symBinAddr: 0x10000DF8C, symSize: 0x8C }
  - { offsetInCU: 0x23999, offset: 0x23999, size: 0x8, addend: 0x0, symName: __ZNSt3__114__split_bufferIcRNS_9allocatorIcEEE5clearB7v160006Ev, symObjAddr: 0xC8DC, symBinAddr: 0x10000E018, symSize: 0x28 }
  - { offsetInCU: 0x239BF, offset: 0x239BF, size: 0x8, addend: 0x0, symName: __ZNSt3__116allocator_traitsINS_9allocatorIcEEE10deallocateB7v160006ERS2_Pcm, symObjAddr: 0xC904, symBinAddr: 0x10000E040, symSize: 0x34 }
  - { offsetInCU: 0x23A01, offset: 0x23A01, size: 0x8, addend: 0x0, symName: __ZNKSt3__114__split_bufferIcRNS_9allocatorIcEEE8capacityB7v160006Ev, symObjAddr: 0xC938, symBinAddr: 0x10000E074, symSize: 0x38 }
  - { offsetInCU: 0x23A27, offset: 0x23A27, size: 0x8, addend: 0x0, symName: __ZNSt3__114__split_bufferIcRNS_9allocatorIcEEE17__destruct_at_endB7v160006EPc, symObjAddr: 0xC970, symBinAddr: 0x10000E0AC, symSize: 0x2C }
  - { offsetInCU: 0x23A5B, offset: 0x23A5B, size: 0x8, addend: 0x0, symName: __ZNSt3__114__split_bufferIcRNS_9allocatorIcEEE17__destruct_at_endB7v160006EPcNS_17integral_constantIbLb0EEE, symObjAddr: 0xC99C, symBinAddr: 0x10000E0D8, symSize: 0x80 }
  - { offsetInCU: 0x23A9B, offset: 0x23A9B, size: 0x8, addend: 0x0, symName: __ZNSt3__19allocatorIcE10deallocateB7v160006EPcm, symObjAddr: 0xCA1C, symBinAddr: 0x10000E158, symSize: 0x40 }
  - { offsetInCU: 0x23ADD, offset: 0x23ADD, size: 0x8, addend: 0x0, symName: __ZNKSt3__114__split_bufferIcRNS_9allocatorIcEEE9__end_capB7v160006Ev, symObjAddr: 0xCA5C, symBinAddr: 0x10000E198, symSize: 0x28 }
  - { offsetInCU: 0x23B03, offset: 0x23B03, size: 0x8, addend: 0x0, symName: __ZNKSt3__117__compressed_pairIPcRNS_9allocatorIcEEE5firstB7v160006Ev, symObjAddr: 0xCA84, symBinAddr: 0x10000E1C0, symSize: 0x24 }
  - { offsetInCU: 0x23B29, offset: 0x23B29, size: 0x8, addend: 0x0, symName: __ZNSt3__16vectorINS_12basic_stringIcNS_11char_traitsIcEENS_9allocatorIcEEEENS4_IS6_EEED2B7v160006Ev, symObjAddr: 0xCAA8, symBinAddr: 0x10000E1E4, symSize: 0x44 }
  - { offsetInCU: 0x23B53, offset: 0x23B53, size: 0x8, addend: 0x0, symName: __ZNSt3__16vectorINS_12basic_stringIcNS_11char_traitsIcEENS_9allocatorIcEEEENS4_IS6_EEE16__destroy_vectorC1ERS8_, symObjAddr: 0xCAEC, symBinAddr: 0x10000E228, symSize: 0x34 }
  - { offsetInCU: 0x23B8C, offset: 0x23B8C, size: 0x8, addend: 0x0, symName: __ZNSt3__16vectorINS_12basic_stringIcNS_11char_traitsIcEENS_9allocatorIcEEEENS4_IS6_EEE16__destroy_vectorclB7v160006Ev, symObjAddr: 0xCB20, symBinAddr: 0x10000E25C, symSize: 0x9C }
  - { offsetInCU: 0x23BB2, offset: 0x23BB2, size: 0x8, addend: 0x0, symName: __ZNSt3__16vectorINS_12basic_stringIcNS_11char_traitsIcEENS_9allocatorIcEEEENS4_IS6_EEE16__destroy_vectorC2ERS8_, symObjAddr: 0xCBBC, symBinAddr: 0x10000E2F8, symSize: 0x20 }
  - { offsetInCU: 0x23BEB, offset: 0x23BEB, size: 0x8, addend: 0x0, symName: __ZNSt3__16vectorINS_12basic_stringIcNS_11char_traitsIcEENS_9allocatorIcEEEENS4_IS6_EEE7__clearB7v160006Ev, symObjAddr: 0xCBEC, symBinAddr: 0x10000E328, symSize: 0x28 }
  - { offsetInCU: 0x23C11, offset: 0x23C11, size: 0x8, addend: 0x0, symName: __ZNSt3__16vectorINS_12basic_stringIcNS_11char_traitsIcEENS_9allocatorIcEEEENS4_IS6_EEE22__base_destruct_at_endB7v160006EPS6_, symObjAddr: 0xCC14, symBinAddr: 0x10000E350, symSize: 0x8C }
  - { offsetInCU: 0x23C55, offset: 0x23C55, size: 0x8, addend: 0x0, symName: __ZNSt3__16vectorIcNS_9allocatorIcEEED2B7v160006Ev, symObjAddr: 0xCCA0, symBinAddr: 0x10000E3DC, symSize: 0x44 }
  - { offsetInCU: 0x23C7F, offset: 0x23C7F, size: 0x8, addend: 0x0, symName: __ZNSt3__16vectorIcNS_9allocatorIcEEE16__destroy_vectorC1ERS3_, symObjAddr: 0xCCE4, symBinAddr: 0x10000E420, symSize: 0x34 }
  - { offsetInCU: 0x23CB8, offset: 0x23CB8, size: 0x8, addend: 0x0, symName: __ZNSt3__16vectorIcNS_9allocatorIcEEE16__destroy_vectorclB7v160006Ev, symObjAddr: 0xCD18, symBinAddr: 0x10000E454, symSize: 0x9C }
  - { offsetInCU: 0x23CDE, offset: 0x23CDE, size: 0x8, addend: 0x0, symName: __ZNSt3__16vectorIcNS_9allocatorIcEEE16__destroy_vectorC2ERS3_, symObjAddr: 0xCDB4, symBinAddr: 0x10000E4F0, symSize: 0x20 }
  - { offsetInCU: 0x23D17, offset: 0x23D17, size: 0x8, addend: 0x0, symName: __ZNSt3__16vectorIcNS_9allocatorIcEEE7__clearB7v160006Ev, symObjAddr: 0xCDE4, symBinAddr: 0x10000E520, symSize: 0x28 }
  - { offsetInCU: 0x23D3D, offset: 0x23D3D, size: 0x8, addend: 0x0, symName: __ZNSt3__114basic_ifstreamIcNS_11char_traitsIcEEED2Ev, symObjAddr: 0xCE0C, symBinAddr: 0x10000E548, symSize: 0x64 }
  - { offsetInCU: 0x23D77, offset: 0x23D77, size: 0x8, addend: 0x0, symName: __ZTv0_n24_NSt3__114basic_ifstreamIcNS_11char_traitsIcEEED1Ev, symObjAddr: 0xCE70, symBinAddr: 0x10000E5AC, symSize: 0x28 }
  - { offsetInCU: 0x23D8E, offset: 0x23D8E, size: 0x8, addend: 0x0, symName: __ZNSt3__19basic_iosIcNS_11char_traitsIcEEEC2B7v160006Ev, symObjAddr: 0xCE98, symBinAddr: 0x10000E5D4, symSize: 0x44 }
  - { offsetInCU: 0x23DB8, offset: 0x23DB8, size: 0x8, addend: 0x0, symName: __ZNSt3__113basic_istreamIcNS_11char_traitsIcEEEC2B7v160006EPNS_15basic_streambufIcS2_EE, symObjAddr: 0xCEDC, symBinAddr: 0x10000E618, symSize: 0x64 }
  - { offsetInCU: 0x23DFD, offset: 0x23DFD, size: 0x8, addend: 0x0, symName: __ZNSt3__19basic_iosIcNS_11char_traitsIcEEE8setstateB7v160006Ej, symObjAddr: 0xCF40, symBinAddr: 0x10000E67C, symSize: 0x2C }
  - { offsetInCU: 0x23E32, offset: 0x23E32, size: 0x8, addend: 0x0, symName: __ZNSt3__18ios_baseC2B7v160006Ev, symObjAddr: 0xCF6C, symBinAddr: 0x10000E6A8, symSize: 0x24 }
  - { offsetInCU: 0x23E5C, offset: 0x23E5C, size: 0x8, addend: 0x0, symName: __ZNSt3__19basic_iosIcNS_11char_traitsIcEEE4initB7v160006EPNS_15basic_streambufIcS2_EE, symObjAddr: 0xCF90, symBinAddr: 0x10000E6CC, symSize: 0x44 }
  - { offsetInCU: 0x23E93, offset: 0x23E93, size: 0x8, addend: 0x0, symName: __ZNSt3__111char_traitsIcE3eofEv, symObjAddr: 0xCFD4, symBinAddr: 0x10000E710, symSize: 0x8 }
  - { offsetInCU: 0x23EA7, offset: 0x23EA7, size: 0x8, addend: 0x0, symName: __ZNSt3__18ios_base8setstateB7v160006Ej, symObjAddr: 0xCFDC, symBinAddr: 0x10000E718, symSize: 0x34 }
  - { offsetInCU: 0x23EDE, offset: 0x23EDE, size: 0x8, addend: 0x0, symName: __ZNKSt3__19basic_iosIcNS_11char_traitsIcEEE5widenB7v160006Ec, symObjAddr: 0xD248, symBinAddr: 0x10000E984, symSize: 0x84 }
  - { offsetInCU: 0x23F36, offset: 0x23F36, size: 0x8, addend: 0x0, symName: __ZNKSt3__113basic_istreamIcNS_11char_traitsIcEEE6sentrycvbB7v160006Ev, symObjAddr: 0xD2CC, symBinAddr: 0x10000EA08, symSize: 0x1C }
  - { offsetInCU: 0x23F5C, offset: 0x23F5C, size: 0x8, addend: 0x0, symName: __ZNSt3__112basic_stringIcNS_11char_traitsIcEENS_9allocatorIcEEE5clearB7v160006Ev, symObjAddr: 0xD2E8, symBinAddr: 0x10000EA24, symSize: 0x88 }
  - { offsetInCU: 0x23F84, offset: 0x23F84, size: 0x8, addend: 0x0, symName: __ZNKSt3__19basic_iosIcNS_11char_traitsIcEEE5rdbufB7v160006Ev, symObjAddr: 0xD370, symBinAddr: 0x10000EAAC, symSize: 0x24 }
  - { offsetInCU: 0x23FAC, offset: 0x23FAC, size: 0x8, addend: 0x0, symName: __ZNSt3__115basic_streambufIcNS_11char_traitsIcEEE6sbumpcB7v160006Ev, symObjAddr: 0xD394, symBinAddr: 0x10000EAD0, symSize: 0x78 }
  - { offsetInCU: 0x23FD2, offset: 0x23FD2, size: 0x8, addend: 0x0, symName: __ZNSt3__111char_traitsIcE11eq_int_typeEii, symObjAddr: 0xD40C, symBinAddr: 0x10000EB48, symSize: 0x28 }
  - { offsetInCU: 0x24003, offset: 0x24003, size: 0x8, addend: 0x0, symName: __ZNSt3__111char_traitsIcE12to_char_typeEi, symObjAddr: 0xD434, symBinAddr: 0x10000EB70, symSize: 0x18 }
  - { offsetInCU: 0x24026, offset: 0x24026, size: 0x8, addend: 0x0, symName: __ZNSt3__111char_traitsIcE2eqEcc, symObjAddr: 0xD44C, symBinAddr: 0x10000EB88, symSize: 0x28 }
  - { offsetInCU: 0x24057, offset: 0x24057, size: 0x8, addend: 0x0, symName: __ZNSt3__18ios_base18__setstate_nothrowB7v160006Ej, symObjAddr: 0xD474, symBinAddr: 0x10000EBB0, symSize: 0x64 }
  - { offsetInCU: 0x2408C, offset: 0x2408C, size: 0x8, addend: 0x0, symName: __ZNKSt3__19basic_iosIcNS_11char_traitsIcEEE10exceptionsB7v160006Ev, symObjAddr: 0xD4D8, symBinAddr: 0x10000EC14, symSize: 0x24 }
  - { offsetInCU: 0x240B2, offset: 0x240B2, size: 0x8, addend: 0x0, symName: __ZNSt3__111char_traitsIcE6assignERcRKc, symObjAddr: 0xD50C, symBinAddr: 0x10000EC48, symSize: 0x24 }
  - { offsetInCU: 0x240E3, offset: 0x240E3, size: 0x8, addend: 0x0, symName: __ZNKSt3__18ios_base5rdbufB7v160006Ev, symObjAddr: 0xD530, symBinAddr: 0x10000EC6C, symSize: 0x18 }
  - { offsetInCU: 0x24109, offset: 0x24109, size: 0x8, addend: 0x0, symName: __ZNSt3__111char_traitsIcE11to_int_typeEc, symObjAddr: 0xD548, symBinAddr: 0x10000EC84, symSize: 0x14 }
  - { offsetInCU: 0x2412C, offset: 0x2412C, size: 0x8, addend: 0x0, symName: __ZNKSt3__18ios_base10exceptionsB7v160006Ev, symObjAddr: 0xD55C, symBinAddr: 0x10000EC98, symSize: 0x18 }
  - { offsetInCU: 0x2418B, offset: 0x2418B, size: 0x8, addend: 0x0, symName: __ZNKSt3__15ctypeIcE5widenB7v160006Ec, symObjAddr: 0xD5A0, symBinAddr: 0x10000ECDC, symSize: 0x38 }
  - { offsetInCU: 0x241C0, offset: 0x241C0, size: 0x8, addend: 0x0, symName: __ZNKSt3__19basic_iosIcNS_11char_traitsIcEEE4failB7v160006Ev, symObjAddr: 0xD5D8, symBinAddr: 0x10000ED14, symSize: 0x28 }
  - { offsetInCU: 0x241E6, offset: 0x241E6, size: 0x8, addend: 0x0, symName: __ZNKSt3__18ios_base4failB7v160006Ev, symObjAddr: 0xD600, symBinAddr: 0x10000ED3C, symSize: 0x28 }
...
