---
triple:          'arm64-apple-darwin'
binary-path:     day20
relocations:
  - { offsetInCU: 0x10AC5, offset: 0x10AC5, size: 0x8, addend: 0x0, symName: __ZNSt3__17advanceB7v160006IPNS_4pairIttEEllvEEvRT_T0_, symObjAddr: 0x3A3C, symBinAddr: 0x100007F18, symSize: 0x50 }
  - { offsetInCU: 0x10D45, offset: 0x10D45, size: 0x8, addend: 0x0, symName: __ZNSt3__17advanceB7v160006INS_16reverse_iteratorIPNS_4pairIttEEEEllvEEvRT_T0_, symObjAddr: 0x3E90, symBinAddr: 0x10000836C, symSize: 0x50 }
  - { offsetInCU: 0x1110E, offset: 0x1110E, size: 0x8, addend: 0x0, symName: __ZNSt3__17advanceB7v160006IPNS_6vectorIjNS_9allocatorIjEEEEllvEEvRT_T0_, symObjAddr: 0x5B74, symBinAddr: 0x10000A050, symSize: 0x50 }
  - { offsetInCU: 0x1138E, offset: 0x1138E, size: 0x8, addend: 0x0, symName: __ZNSt3__17advanceB7v160006INS_16reverse_iteratorIPNS_6vectorIjNS_9allocatorIjEEEEEEllvEEvRT_T0_, symObjAddr: 0x5FD0, symBinAddr: 0x10000A4AC, symSize: 0x50 }
  - { offsetInCU: 0x13EAF, offset: 0x13EAF, size: 0x8, addend: 0x0, symName: __ZNSt3__17advanceB7v160006IPNS_6vectorIbNS_9allocatorIbEEEEllvEEvRT_T0_, symObjAddr: 0x8170, symBinAddr: 0x10000C64C, symSize: 0x50 }
  - { offsetInCU: 0x1412F, offset: 0x1412F, size: 0x8, addend: 0x0, symName: __ZNSt3__17advanceB7v160006INS_16reverse_iteratorIPNS_6vectorIbNS_9allocatorIbEEEEEEllvEEvRT_T0_, symObjAddr: 0x85CC, symBinAddr: 0x10000CAA8, symSize: 0x50 }
  - { offsetInCU: 0x1419A, offset: 0x1419A, size: 0x8, addend: 0x0, symName: __ZNSt3__113__fill_n_trueB7v160006INS_6vectorIbNS_9allocatorIbEEEEEEvNS_14__bit_iteratorIT_Lb0EXLi0EEEENS6_9size_typeE, symObjAddr: 0x8FE0, symBinAddr: 0x10000D4BC, symSize: 0x160 }
  - { offsetInCU: 0x1425F, offset: 0x1425F, size: 0x8, addend: 0x0, symName: __ZNSt3__114__fill_n_falseB7v160006INS_6vectorIbNS_9allocatorIbEEEEEEvNS_14__bit_iteratorIT_Lb0EXLi0EEEENS6_9size_typeE, symObjAddr: 0x9174, symBinAddr: 0x10000D650, symSize: 0x15C }
  - { offsetInCU: 0x1702F, offset: 0x1702F, size: 0x8, addend: 0x0, symName: __ZNSt3__17getlineB7v160006IcNS_11char_traitsIcEENS_9allocatorIcEEEERNS_13basic_istreamIT_T0_EES9_RNS_12basic_stringIS6_S7_T1_EE, symObjAddr: 0x1F98, symBinAddr: 0x100006474, symSize: 0x5C }
  - { offsetInCU: 0x17087, offset: 0x17087, size: 0x8, addend: 0x0, symName: __ZNSt3__1ltB7v160006IPNS_4pairIttEEEEbRKNS_11__wrap_iterIT_EES8_, symObjAddr: 0x2340, symBinAddr: 0x10000681C, symSize: 0x48 }
  - { offsetInCU: 0x170D5, offset: 0x170D5, size: 0x8, addend: 0x0, symName: __ZNSt3__120__throw_out_of_rangeB7v160006EPKc, symObjAddr: 0x24F8, symBinAddr: 0x1000069D4, symSize: 0x64 }
  - { offsetInCU: 0x170FF, offset: 0x170FF, size: 0x8, addend: 0x0, symName: __ZNSt3__112__to_addressB7v160006INS_4pairIttEEEEPT_S4_, symObjAddr: 0x28A0, symBinAddr: 0x100006D7C, symSize: 0x14 }
  - { offsetInCU: 0x17159, offset: 0x17159, size: 0x8, addend: 0x0, symName: __ZNSt3__112construct_atB7v160006INS_4pairIttEEJS2_EPS2_EEPT_S5_DpOT0_, symObjAddr: 0x2924, symBinAddr: 0x100006E00, symSize: 0x2C }
  - { offsetInCU: 0x171C9, offset: 0x171C9, size: 0x8, addend: 0x0, symName: __ZNSt3__13maxB7v160006ImEERKT_S3_S3_, symObjAddr: 0x2CC8, symBinAddr: 0x1000071A4, symSize: 0x2C }
  - { offsetInCU: 0x1720C, offset: 0x1720C, size: 0x8, addend: 0x0, symName: __ZNSt3__13minB7v160006ImEERKT_S3_S3_, symObjAddr: 0x2CF4, symBinAddr: 0x1000071D0, symSize: 0x2C }
  - { offsetInCU: 0x17439, offset: 0x17439, size: 0x8, addend: 0x0, symName: __ZNSt3__13minB7v160006ImNS_6__lessImmEEEERKT_S5_S5_T0_, symObjAddr: 0x2D90, symBinAddr: 0x10000726C, symSize: 0x54 }
  - { offsetInCU: 0x176BA, offset: 0x176BA, size: 0x8, addend: 0x0, symName: __ZNSt3__120__throw_length_errorB7v160006EPKc, symObjAddr: 0x2E74, symBinAddr: 0x100007350, symSize: 0x64 }
  - { offsetInCU: 0x176E2, offset: 0x176E2, size: 0x8, addend: 0x0, symName: __ZNSt3__13maxB7v160006ImNS_6__lessImmEEEERKT_S5_S5_T0_, symObjAddr: 0x2FB8, symBinAddr: 0x100007494, symSize: 0x54 }
  - { offsetInCU: 0x1773C, offset: 0x1773C, size: 0x8, addend: 0x0, symName: __ZNSt3__119__allocate_at_leastB7v160006INS_9allocatorINS_4pairIttEEEEEENS_19__allocation_resultINS_16allocator_traitsIT_E7pointerEEERS7_m, symObjAddr: 0x311C, symBinAddr: 0x1000075F8, symSize: 0x40 }
  - { offsetInCU: 0x1777F, offset: 0x1777F, size: 0x8, addend: 0x0, symName: __ZNSt3__117__libcpp_allocateB7v160006Emm, symObjAddr: 0x32BC, symBinAddr: 0x100007798, symSize: 0x60 }
  - { offsetInCU: 0x177D9, offset: 0x177D9, size: 0x8, addend: 0x0, symName: __ZNSt3__124__is_overaligned_for_newB7v160006Em, symObjAddr: 0x331C, symBinAddr: 0x1000077F8, symSize: 0x20 }
  - { offsetInCU: 0x17807, offset: 0x17807, size: 0x8, addend: 0x0, symName: __ZNSt3__121__libcpp_operator_newB7v160006IJmSt11align_val_tEEEPvDpT_, symObjAddr: 0x333C, symBinAddr: 0x100007818, symSize: 0x2C }
  - { offsetInCU: 0x17854, offset: 0x17854, size: 0x8, addend: 0x0, symName: __ZNSt3__121__libcpp_operator_newB7v160006IJmEEEPvDpT_, symObjAddr: 0x3368, symBinAddr: 0x100007844, symSize: 0x24 }
  - { offsetInCU: 0x1788D, offset: 0x1788D, size: 0x8, addend: 0x0, symName: __ZNSt3__142__uninitialized_allocator_move_if_noexceptB7v160006INS_9allocatorINS_4pairIttEEEENS_16reverse_iteratorIPS3_EES7_S7_EET2_RT_T0_T1_S8_, symObjAddr: 0x34A8, symBinAddr: 0x100007984, symSize: 0x12C }
  - { offsetInCU: 0x1792D, offset: 0x1792D, size: 0x8, addend: 0x0, symName: __ZNSt3__14swapB7v160006IPNS_4pairIttEEEENS_9enable_ifIXaasr21is_move_constructibleIT_EE5valuesr18is_move_assignableIS5_EE5valueEvE4typeERS5_S8_, symObjAddr: 0x3620, symBinAddr: 0x100007AFC, symSize: 0x3C }
  - { offsetInCU: 0x1797E, offset: 0x1797E, size: 0x8, addend: 0x0, symName: __ZNSt3__125__debug_db_invalidate_allB7v160006INS_6vectorINS_4pairIttEENS_9allocatorIS3_EEEEEEvPT_, symObjAddr: 0x3708, symBinAddr: 0x100007BE4, symSize: 0x10 }
  - { offsetInCU: 0x179AF, offset: 0x179AF, size: 0x8, addend: 0x0, symName: __ZNSt3__122__make_exception_guardB7v160006INS_29_AllocatorDestroyRangeReverseINS_9allocatorINS_4pairIttEEEENS_16reverse_iteratorIPS4_EEEEEENS_28__exception_guard_exceptionsIT_EESB_, symObjAddr: 0x3760, symBinAddr: 0x100007C3C, symSize: 0x4C }
  - { offsetInCU: 0x179E5, offset: 0x179E5, size: 0x8, addend: 0x0, symName: __ZNSt3__1neB7v160006IPNS_4pairIttEES3_EEbRKNS_16reverse_iteratorIT_EERKNS4_IT0_EE, symObjAddr: 0x37F0, symBinAddr: 0x100007CCC, symSize: 0x48 }
  - { offsetInCU: 0x17A31, offset: 0x17A31, size: 0x8, addend: 0x0, symName: __ZNSt3__112__to_addressB7v160006INS_16reverse_iteratorIPNS_4pairIttEEEEvEENS_5decayIDTclsr19__to_address_helperIT_EE6__callclsr3stdE7declvalIRKS7_EEEEE4typeES9_, symObjAddr: 0x3838, symBinAddr: 0x100007D14, symSize: 0x24 }
  - { offsetInCU: 0x17A90, offset: 0x17A90, size: 0x8, addend: 0x0, symName: __ZNSt3__14prevB7v160006IPNS_4pairIttEEEENS_9enable_ifIXsr25__is_cpp17_input_iteratorIT_EE5valueES5_E4typeES5_NS_15iterator_traitsIS5_E15difference_typeE, symObjAddr: 0x39EC, symBinAddr: 0x100007EC8, symSize: 0x50 }
  - { offsetInCU: 0x17AD3, offset: 0x17AD3, size: 0x8, addend: 0x0, symName: __ZNSt3__121__convert_to_integralB7v160006El, symObjAddr: 0x3A8C, symBinAddr: 0x100007F68, symSize: 0x14 }
  - { offsetInCU: 0x17AFF, offset: 0x17AFF, size: 0x8, addend: 0x0, symName: __ZNSt3__19__advanceB7v160006IPNS_4pairIttEEEEvRT_NS_15iterator_traitsIS4_E15difference_typeENS_26random_access_iterator_tagE, symObjAddr: 0x3AA0, symBinAddr: 0x100007F7C, symSize: 0x28 }
  - { offsetInCU: 0x17B48, offset: 0x17B48, size: 0x8, addend: 0x0, symName: __ZNSt3__119__allocator_destroyB7v160006INS_9allocatorINS_4pairIttEEEENS_16reverse_iteratorINS5_IPS3_EEEES8_EEvRT_T0_T1_, symObjAddr: 0x3BCC, symBinAddr: 0x1000080A8, symSize: 0x70 }
  - { offsetInCU: 0x17BAD, offset: 0x17BAD, size: 0x8, addend: 0x0, symName: __ZNSt3__1neB7v160006INS_16reverse_iteratorIPNS_4pairIttEEEES5_EEbRKNS1_IT_EERKNS1_IT0_EE, symObjAddr: 0x3C78, symBinAddr: 0x100008154, symSize: 0x60 }
  - { offsetInCU: 0x17BF9, offset: 0x17BF9, size: 0x8, addend: 0x0, symName: __ZNSt3__112__to_addressB7v160006INS_16reverse_iteratorINS1_IPNS_4pairIttEEEEEEvEENS_5decayIDTclsr19__to_address_helperIT_EE6__callclsr3stdE7declvalIRKS8_EEEEE4typeESA_, symObjAddr: 0x3D00, symBinAddr: 0x1000081DC, symSize: 0x24 }
  - { offsetInCU: 0x17C2F, offset: 0x17C2F, size: 0x8, addend: 0x0, symName: __ZNSt3__110destroy_atB7v160006INS_4pairIttEELi0EEEvPT_, symObjAddr: 0x3D78, symBinAddr: 0x100008254, symSize: 0x24 }
  - { offsetInCU: 0x17C66, offset: 0x17C66, size: 0x8, addend: 0x0, symName: __ZNSt3__112__destroy_atB7v160006INS_4pairIttEELi0EEEvPT_, symObjAddr: 0x3D9C, symBinAddr: 0x100008278, symSize: 0x10 }
  - { offsetInCU: 0x17CC6, offset: 0x17CC6, size: 0x8, addend: 0x0, symName: __ZNSt3__14prevB7v160006INS_16reverse_iteratorIPNS_4pairIttEEEEEENS_9enable_ifIXsr25__is_cpp17_input_iteratorIT_EE5valueES7_E4typeES7_NS_15iterator_traitsIS7_E15difference_typeE, symObjAddr: 0x3E30, symBinAddr: 0x10000830C, symSize: 0x60 }
  - { offsetInCU: 0x17D09, offset: 0x17D09, size: 0x8, addend: 0x0, symName: __ZNSt3__19__advanceB7v160006INS_16reverse_iteratorIPNS_4pairIttEEEEEEvRT_NS_15iterator_traitsIS6_E15difference_typeENS_26random_access_iterator_tagE, symObjAddr: 0x3EE0, symBinAddr: 0x1000083BC, symSize: 0x2C }
  - { offsetInCU: 0x17D52, offset: 0x17D52, size: 0x8, addend: 0x0, symName: __ZNSt3__119__libcpp_deallocateB7v160006EPvmm, symObjAddr: 0x41C4, symBinAddr: 0x1000086A0, symSize: 0x60 }
  - { offsetInCU: 0x17DB7, offset: 0x17DB7, size: 0x8, addend: 0x0, symName: __ZNSt3__127__do_deallocate_handle_sizeB7v160006IJSt11align_val_tEEEvPvmDpT_, symObjAddr: 0x4224, symBinAddr: 0x100008700, symSize: 0x30 }
  - { offsetInCU: 0x17E0A, offset: 0x17E0A, size: 0x8, addend: 0x0, symName: __ZNSt3__127__do_deallocate_handle_sizeB7v160006IJEEEvPvmDpT_, symObjAddr: 0x4254, symBinAddr: 0x100008730, symSize: 0x28 }
  - { offsetInCU: 0x17E48, offset: 0x17E48, size: 0x8, addend: 0x0, symName: __ZNSt3__124__libcpp_operator_deleteB7v160006IJPvSt11align_val_tEEEvDpT_, symObjAddr: 0x427C, symBinAddr: 0x100008758, symSize: 0x2C }
  - { offsetInCU: 0x17E91, offset: 0x17E91, size: 0x8, addend: 0x0, symName: __ZNSt3__124__libcpp_operator_deleteB7v160006IJPvEEEvDpT_, symObjAddr: 0x42A8, symBinAddr: 0x100008784, symSize: 0x24 }
  - { offsetInCU: 0x17EC6, offset: 0x17EC6, size: 0x8, addend: 0x0, symName: __ZNSt3__119__debug_db_insert_cB7v160006INS_12basic_stringIcNS_11char_traitsIcEENS_9allocatorIcEEEEEEvPT_, symObjAddr: 0x43DC, symBinAddr: 0x1000088B8, symSize: 0x10 }
  - { offsetInCU: 0x17EF7, offset: 0x17EF7, size: 0x8, addend: 0x0, symName: __ZNSt3__119__debug_db_insert_cB7v160006INS_6vectorINS1_IjNS_9allocatorIjEEEENS2_IS4_EEEEEEvPT_, symObjAddr: 0x45B4, symBinAddr: 0x100008A90, symSize: 0x10 }
  - { offsetInCU: 0x17F28, offset: 0x17F28, size: 0x8, addend: 0x0, symName: __ZNSt3__119__debug_db_insert_cB7v160006INS_6vectorINS1_IbNS_9allocatorIbEEEENS2_IS4_EEEEEEvPT_, symObjAddr: 0x4720, symBinAddr: 0x100008BFC, symSize: 0x10 }
  - { offsetInCU: 0x17F59, offset: 0x17F59, size: 0x8, addend: 0x0, symName: __ZNSt3__112__to_addressB7v160006INS_6vectorIjNS_9allocatorIjEEEEEEPT_S6_, symObjAddr: 0x4A70, symBinAddr: 0x100008F4C, symSize: 0x14 }
  - { offsetInCU: 0x17FB3, offset: 0x17FB3, size: 0x8, addend: 0x0, symName: __ZNSt3__112construct_atB7v160006INS_6vectorIjNS_9allocatorIjEEEEJS4_EPS4_EEPT_S7_DpOT0_, symObjAddr: 0x4AFC, symBinAddr: 0x100008FD8, symSize: 0x3C }
  - { offsetInCU: 0x18023, offset: 0x18023, size: 0x8, addend: 0x0, symName: __ZNSt3__119__debug_db_insert_cB7v160006INS_6vectorIjNS_9allocatorIjEEEEEEvPT_, symObjAddr: 0x4CB0, symBinAddr: 0x10000918C, symSize: 0x10 }
  - { offsetInCU: 0x18054, offset: 0x18054, size: 0x8, addend: 0x0, symName: __ZNSt3__115__debug_db_swapB7v160006INS_6vectorIjNS_9allocatorIjEEEEEEvPT_S6_, symObjAddr: 0x4CC0, symBinAddr: 0x10000919C, symSize: 0x14 }
  - { offsetInCU: 0x18093, offset: 0x18093, size: 0x8, addend: 0x0, symName: __ZNSt3__119__allocate_at_leastB7v160006INS_9allocatorINS_6vectorIjNS1_IjEEEEEEEENS_19__allocation_resultINS_16allocator_traitsIT_E7pointerEEERS8_m, symObjAddr: 0x5338, symBinAddr: 0x100009814, symSize: 0x40 }
  - { offsetInCU: 0x180D6, offset: 0x180D6, size: 0x8, addend: 0x0, symName: __ZNSt3__142__uninitialized_allocator_move_if_noexceptB7v160006INS_9allocatorINS_6vectorIjNS1_IjEEEEEENS_16reverse_iteratorIPS4_EES8_S8_EET2_RT_T0_T1_S9_, symObjAddr: 0x55C4, symBinAddr: 0x100009AA0, symSize: 0x12C }
  - { offsetInCU: 0x18176, offset: 0x18176, size: 0x8, addend: 0x0, symName: __ZNSt3__14swapB7v160006IPNS_6vectorIjNS_9allocatorIjEEEEEENS_9enable_ifIXaasr21is_move_constructibleIT_EE5valuesr18is_move_assignableIS7_EE5valueEvE4typeERS7_SA_, symObjAddr: 0x573C, symBinAddr: 0x100009C18, symSize: 0x3C }
  - { offsetInCU: 0x181C7, offset: 0x181C7, size: 0x8, addend: 0x0, symName: __ZNSt3__125__debug_db_invalidate_allB7v160006INS_6vectorINS1_IjNS_9allocatorIjEEEENS2_IS4_EEEEEEvPT_, symObjAddr: 0x5840, symBinAddr: 0x100009D1C, symSize: 0x10 }
  - { offsetInCU: 0x181F8, offset: 0x181F8, size: 0x8, addend: 0x0, symName: __ZNSt3__122__make_exception_guardB7v160006INS_29_AllocatorDestroyRangeReverseINS_9allocatorINS_6vectorIjNS2_IjEEEEEENS_16reverse_iteratorIPS5_EEEEEENS_28__exception_guard_exceptionsIT_EESC_, symObjAddr: 0x5898, symBinAddr: 0x100009D74, symSize: 0x4C }
  - { offsetInCU: 0x1822E, offset: 0x1822E, size: 0x8, addend: 0x0, symName: __ZNSt3__1neB7v160006IPNS_6vectorIjNS_9allocatorIjEEEES5_EEbRKNS_16reverse_iteratorIT_EERKNS6_IT0_EE, symObjAddr: 0x5928, symBinAddr: 0x100009E04, symSize: 0x48 }
  - { offsetInCU: 0x1827A, offset: 0x1827A, size: 0x8, addend: 0x0, symName: __ZNSt3__112__to_addressB7v160006INS_16reverse_iteratorIPNS_6vectorIjNS_9allocatorIjEEEEEEvEENS_5decayIDTclsr19__to_address_helperIT_EE6__callclsr3stdE7declvalIRKS9_EEEEE4typeESB_, symObjAddr: 0x5970, symBinAddr: 0x100009E4C, symSize: 0x24 }
  - { offsetInCU: 0x182D9, offset: 0x182D9, size: 0x8, addend: 0x0, symName: __ZNSt3__14prevB7v160006IPNS_6vectorIjNS_9allocatorIjEEEEEENS_9enable_ifIXsr25__is_cpp17_input_iteratorIT_EE5valueES7_E4typeES7_NS_15iterator_traitsIS7_E15difference_typeE, symObjAddr: 0x5B24, symBinAddr: 0x10000A000, symSize: 0x50 }
  - { offsetInCU: 0x1831C, offset: 0x1831C, size: 0x8, addend: 0x0, symName: __ZNSt3__19__advanceB7v160006IPNS_6vectorIjNS_9allocatorIjEEEEEEvRT_NS_15iterator_traitsIS6_E15difference_typeENS_26random_access_iterator_tagE, symObjAddr: 0x5BC4, symBinAddr: 0x10000A0A0, symSize: 0x30 }
  - { offsetInCU: 0x18365, offset: 0x18365, size: 0x8, addend: 0x0, symName: __ZNSt3__119__allocator_destroyB7v160006INS_9allocatorINS_6vectorIjNS1_IjEEEEEENS_16reverse_iteratorINS6_IPS4_EEEES9_EEvRT_T0_T1_, symObjAddr: 0x5CF8, symBinAddr: 0x10000A1D4, symSize: 0x70 }
  - { offsetInCU: 0x183CA, offset: 0x183CA, size: 0x8, addend: 0x0, symName: __ZNSt3__1neB7v160006INS_16reverse_iteratorIPNS_6vectorIjNS_9allocatorIjEEEEEES7_EEbRKNS1_IT_EERKNS1_IT0_EE, symObjAddr: 0x5DA4, symBinAddr: 0x10000A280, symSize: 0x60 }
  - { offsetInCU: 0x18416, offset: 0x18416, size: 0x8, addend: 0x0, symName: __ZNSt3__112__to_addressB7v160006INS_16reverse_iteratorINS1_IPNS_6vectorIjNS_9allocatorIjEEEEEEEEvEENS_5decayIDTclsr19__to_address_helperIT_EE6__callclsr3stdE7declvalIRKSA_EEEEE4typeESC_, symObjAddr: 0x5E2C, symBinAddr: 0x10000A308, symSize: 0x24 }
  - { offsetInCU: 0x1844C, offset: 0x1844C, size: 0x8, addend: 0x0, symName: __ZNSt3__110destroy_atB7v160006INS_6vectorIjNS_9allocatorIjEEEELi0EEEvPT_, symObjAddr: 0x5EA4, symBinAddr: 0x10000A380, symSize: 0x24 }
  - { offsetInCU: 0x18483, offset: 0x18483, size: 0x8, addend: 0x0, symName: __ZNSt3__112__destroy_atB7v160006INS_6vectorIjNS_9allocatorIjEEEELi0EEEvPT_, symObjAddr: 0x5EC8, symBinAddr: 0x10000A3A4, symSize: 0x24 }
  - { offsetInCU: 0x184E3, offset: 0x184E3, size: 0x8, addend: 0x0, symName: __ZNSt3__14prevB7v160006INS_16reverse_iteratorIPNS_6vectorIjNS_9allocatorIjEEEEEEEENS_9enable_ifIXsr25__is_cpp17_input_iteratorIT_EE5valueES9_E4typeES9_NS_15iterator_traitsIS9_E15difference_typeE, symObjAddr: 0x5F70, symBinAddr: 0x10000A44C, symSize: 0x60 }
  - { offsetInCU: 0x18526, offset: 0x18526, size: 0x8, addend: 0x0, symName: __ZNSt3__19__advanceB7v160006INS_16reverse_iteratorIPNS_6vectorIjNS_9allocatorIjEEEEEEEEvRT_NS_15iterator_traitsIS8_E15difference_typeENS_26random_access_iterator_tagE, symObjAddr: 0x6020, symBinAddr: 0x10000A4FC, symSize: 0x2C }
  - { offsetInCU: 0x1856F, offset: 0x1856F, size: 0x8, addend: 0x0, symName: __ZNSt3__122__make_exception_guardB7v160006INS_6vectorIjNS_9allocatorIjEEE16__destroy_vectorEEENS_28__exception_guard_exceptionsIT_EES7_, symObjAddr: 0x6474, symBinAddr: 0x10000A950, symSize: 0x40 }
  - { offsetInCU: 0x185A4, offset: 0x185A4, size: 0x8, addend: 0x0, symName: __ZNSt3__119__allocate_at_leastB7v160006INS_9allocatorIjEEEENS_19__allocation_resultINS_16allocator_traitsIT_E7pointerEEERS5_m, symObjAddr: 0x684C, symBinAddr: 0x10000AD28, symSize: 0x40 }
  - { offsetInCU: 0x185E7, offset: 0x185E7, size: 0x8, addend: 0x0, symName: __ZNSt3__112__to_addressB7v160006IjEEPT_S2_, symObjAddr: 0x6AA0, symBinAddr: 0x10000AF7C, symSize: 0x14 }
  - { offsetInCU: 0x18641, offset: 0x18641, size: 0x8, addend: 0x0, symName: __ZNSt3__112construct_atB7v160006IjJRKjEPjEEPT_S5_DpOT0_, symObjAddr: 0x6BF0, symBinAddr: 0x10000B0CC, symSize: 0x2C }
  - { offsetInCU: 0x186B1, offset: 0x186B1, size: 0x8, addend: 0x0, symName: __ZNSt3__118__debug_db_erase_cB7v160006INS_6vectorIjNS_9allocatorIjEEEEEEvPT_, symObjAddr: 0x6DE0, symBinAddr: 0x10000B2BC, symSize: 0x10 }
  - { offsetInCU: 0x186E2, offset: 0x186E2, size: 0x8, addend: 0x0, symName: __ZNSt3__110destroy_atB7v160006IjLi0EEEvPT_, symObjAddr: 0x6F00, symBinAddr: 0x10000B3DC, symSize: 0x24 }
  - { offsetInCU: 0x18719, offset: 0x18719, size: 0x8, addend: 0x0, symName: __ZNSt3__112__destroy_atB7v160006IjLi0EEEvPT_, symObjAddr: 0x6F24, symBinAddr: 0x10000B400, symSize: 0x10 }
  - { offsetInCU: 0x18750, offset: 0x18750, size: 0x8, addend: 0x0, symName: __ZNSt3__112__to_addressB7v160006INS_6vectorIbNS_9allocatorIbEEEEEEPT_S6_, symObjAddr: 0x7214, symBinAddr: 0x10000B6F0, symSize: 0x14 }
  - { offsetInCU: 0x187AA, offset: 0x187AA, size: 0x8, addend: 0x0, symName: __ZNSt3__112construct_atB7v160006INS_6vectorIbNS_9allocatorIbEEEEJS4_EPS4_EEPT_S7_DpOT0_, symObjAddr: 0x72A0, symBinAddr: 0x10000B77C, symSize: 0x3C }
  - { offsetInCU: 0x1881A, offset: 0x1881A, size: 0x8, addend: 0x0, symName: __ZNSt3__119__allocate_at_leastB7v160006INS_9allocatorINS_6vectorIbNS1_IbEEEEEEEENS_19__allocation_resultINS_16allocator_traitsIT_E7pointerEEERS8_m, symObjAddr: 0x7934, symBinAddr: 0x10000BE10, symSize: 0x40 }
  - { offsetInCU: 0x1885D, offset: 0x1885D, size: 0x8, addend: 0x0, symName: __ZNSt3__142__uninitialized_allocator_move_if_noexceptB7v160006INS_9allocatorINS_6vectorIbNS1_IbEEEEEENS_16reverse_iteratorIPS4_EES8_S8_EET2_RT_T0_T1_S9_, symObjAddr: 0x7BC0, symBinAddr: 0x10000C09C, symSize: 0x12C }
  - { offsetInCU: 0x188FD, offset: 0x188FD, size: 0x8, addend: 0x0, symName: __ZNSt3__14swapB7v160006IPNS_6vectorIbNS_9allocatorIbEEEEEENS_9enable_ifIXaasr21is_move_constructibleIT_EE5valuesr18is_move_assignableIS7_EE5valueEvE4typeERS7_SA_, symObjAddr: 0x7D38, symBinAddr: 0x10000C214, symSize: 0x3C }
  - { offsetInCU: 0x1894E, offset: 0x1894E, size: 0x8, addend: 0x0, symName: __ZNSt3__125__debug_db_invalidate_allB7v160006INS_6vectorINS1_IbNS_9allocatorIbEEEENS2_IS4_EEEEEEvPT_, symObjAddr: 0x7E3C, symBinAddr: 0x10000C318, symSize: 0x10 }
  - { offsetInCU: 0x1897F, offset: 0x1897F, size: 0x8, addend: 0x0, symName: __ZNSt3__122__make_exception_guardB7v160006INS_29_AllocatorDestroyRangeReverseINS_9allocatorINS_6vectorIbNS2_IbEEEEEENS_16reverse_iteratorIPS5_EEEEEENS_28__exception_guard_exceptionsIT_EESC_, symObjAddr: 0x7E94, symBinAddr: 0x10000C370, symSize: 0x4C }
  - { offsetInCU: 0x189B5, offset: 0x189B5, size: 0x8, addend: 0x0, symName: __ZNSt3__1neB7v160006IPNS_6vectorIbNS_9allocatorIbEEEES5_EEbRKNS_16reverse_iteratorIT_EERKNS6_IT0_EE, symObjAddr: 0x7F24, symBinAddr: 0x10000C400, symSize: 0x48 }
  - { offsetInCU: 0x18A01, offset: 0x18A01, size: 0x8, addend: 0x0, symName: __ZNSt3__112__to_addressB7v160006INS_16reverse_iteratorIPNS_6vectorIbNS_9allocatorIbEEEEEEvEENS_5decayIDTclsr19__to_address_helperIT_EE6__callclsr3stdE7declvalIRKS9_EEEEE4typeESB_, symObjAddr: 0x7F6C, symBinAddr: 0x10000C448, symSize: 0x24 }
  - { offsetInCU: 0x18A60, offset: 0x18A60, size: 0x8, addend: 0x0, symName: __ZNSt3__14prevB7v160006IPNS_6vectorIbNS_9allocatorIbEEEEEENS_9enable_ifIXsr25__is_cpp17_input_iteratorIT_EE5valueES7_E4typeES7_NS_15iterator_traitsIS7_E15difference_typeE, symObjAddr: 0x8120, symBinAddr: 0x10000C5FC, symSize: 0x50 }
  - { offsetInCU: 0x18AA3, offset: 0x18AA3, size: 0x8, addend: 0x0, symName: __ZNSt3__19__advanceB7v160006IPNS_6vectorIbNS_9allocatorIbEEEEEEvRT_NS_15iterator_traitsIS6_E15difference_typeENS_26random_access_iterator_tagE, symObjAddr: 0x81C0, symBinAddr: 0x10000C69C, symSize: 0x30 }
  - { offsetInCU: 0x18AEC, offset: 0x18AEC, size: 0x8, addend: 0x0, symName: __ZNSt3__119__allocator_destroyB7v160006INS_9allocatorINS_6vectorIbNS1_IbEEEEEENS_16reverse_iteratorINS6_IPS4_EEEES9_EEvRT_T0_T1_, symObjAddr: 0x82F4, symBinAddr: 0x10000C7D0, symSize: 0x70 }
  - { offsetInCU: 0x18B51, offset: 0x18B51, size: 0x8, addend: 0x0, symName: __ZNSt3__1neB7v160006INS_16reverse_iteratorIPNS_6vectorIbNS_9allocatorIbEEEEEES7_EEbRKNS1_IT_EERKNS1_IT0_EE, symObjAddr: 0x83A0, symBinAddr: 0x10000C87C, symSize: 0x60 }
  - { offsetInCU: 0x18B9D, offset: 0x18B9D, size: 0x8, addend: 0x0, symName: __ZNSt3__112__to_addressB7v160006INS_16reverse_iteratorINS1_IPNS_6vectorIbNS_9allocatorIbEEEEEEEEvEENS_5decayIDTclsr19__to_address_helperIT_EE6__callclsr3stdE7declvalIRKSA_EEEEE4typeESC_, symObjAddr: 0x8428, symBinAddr: 0x10000C904, symSize: 0x24 }
  - { offsetInCU: 0x18BD3, offset: 0x18BD3, size: 0x8, addend: 0x0, symName: __ZNSt3__110destroy_atB7v160006INS_6vectorIbNS_9allocatorIbEEEELi0EEEvPT_, symObjAddr: 0x84A0, symBinAddr: 0x10000C97C, symSize: 0x24 }
  - { offsetInCU: 0x18C0A, offset: 0x18C0A, size: 0x8, addend: 0x0, symName: __ZNSt3__112__destroy_atB7v160006INS_6vectorIbNS_9allocatorIbEEEELi0EEEvPT_, symObjAddr: 0x84C4, symBinAddr: 0x10000C9A0, symSize: 0x24 }
  - { offsetInCU: 0x18C6A, offset: 0x18C6A, size: 0x8, addend: 0x0, symName: __ZNSt3__14prevB7v160006INS_16reverse_iteratorIPNS_6vectorIbNS_9allocatorIbEEEEEEEENS_9enable_ifIXsr25__is_cpp17_input_iteratorIT_EE5valueES9_E4typeES9_NS_15iterator_traitsIS9_E15difference_typeE, symObjAddr: 0x856C, symBinAddr: 0x10000CA48, symSize: 0x60 }
  - { offsetInCU: 0x18CAD, offset: 0x18CAD, size: 0x8, addend: 0x0, symName: __ZNSt3__19__advanceB7v160006INS_16reverse_iteratorIPNS_6vectorIbNS_9allocatorIbEEEEEEEEvRT_NS_15iterator_traitsIS8_E15difference_typeENS_26random_access_iterator_tagE, symObjAddr: 0x861C, symBinAddr: 0x10000CAF8, symSize: 0x2C }
  - { offsetInCU: 0x18CF6, offset: 0x18CF6, size: 0x8, addend: 0x0, symName: __ZNSt3__119__allocate_at_leastB7v160006INS_9allocatorImEEEENS_19__allocation_resultINS_16allocator_traitsIT_E7pointerEEERS5_m, symObjAddr: 0x8D2C, symBinAddr: 0x10000D208, symSize: 0x40 }
  - { offsetInCU: 0x18D39, offset: 0x18D39, size: 0x8, addend: 0x0, symName: __ZNSt3__16fill_nB7v160006INS_6vectorIbNS_9allocatorIbEEEEEEvNS_14__bit_iteratorIT_Lb0EXLi0EEEENS6_9size_typeEb, symObjAddr: 0x8EE8, symBinAddr: 0x10000D3C4, symSize: 0x94 }
  - { offsetInCU: 0x18D8B, offset: 0x18D8B, size: 0x8, addend: 0x0, symName: __ZNSt3__16fill_nB7v160006IPmmmEET_S2_T0_RKT1_, symObjAddr: 0x92D0, symBinAddr: 0x10000D7AC, symSize: 0x44 }
  - { offsetInCU: 0x18DEE, offset: 0x18DEE, size: 0x8, addend: 0x0, symName: __ZNSt3__112__to_addressB7v160006ImEEPT_S2_, symObjAddr: 0x9314, symBinAddr: 0x10000D7F0, symSize: 0x14 }
  - { offsetInCU: 0x18E23, offset: 0x18E23, size: 0x8, addend: 0x0, symName: __ZNSt3__18__fill_nB7v160006IPmmmEET_S2_T0_RKT1_, symObjAddr: 0x9328, symBinAddr: 0x10000D804, symSize: 0x64 }
  - { offsetInCU: 0x18E86, offset: 0x18E86, size: 0x8, addend: 0x0, symName: __ZNSt3__121__convert_to_integralB7v160006Em, symObjAddr: 0x938C, symBinAddr: 0x10000D868, symSize: 0x14 }
  - { offsetInCU: 0x18EB2, offset: 0x18EB2, size: 0x8, addend: 0x0, symName: __ZNSt3__16fill_nB7v160006IPmmiEET_S2_T0_RKT1_, symObjAddr: 0x93D0, symBinAddr: 0x10000D8AC, symSize: 0x44 }
  - { offsetInCU: 0x18F15, offset: 0x18F15, size: 0x8, addend: 0x0, symName: __ZNSt3__18__fill_nB7v160006IPmmiEET_S2_T0_RKT1_, symObjAddr: 0x9414, symBinAddr: 0x10000D8F0, symSize: 0x64 }
  - { offsetInCU: 0x18F78, offset: 0x18F78, size: 0x8, addend: 0x0, symName: __ZNSt3__125__debug_db_invalidate_allB7v160006INS_6vectorIbNS_9allocatorIbEEE16__destroy_vectorEEEvPT_, symObjAddr: 0x9630, symBinAddr: 0x10000DB0C, symSize: 0x10 }
  - { offsetInCU: 0x18FA9, offset: 0x18FA9, size: 0x8, addend: 0x0, symName: __ZNSt3__119__debug_db_insert_cB7v160006INS_6vectorINS_4pairIttEENS_9allocatorIS3_EEEEEEvPT_, symObjAddr: 0x9748, symBinAddr: 0x10000DC24, symSize: 0x10 }
  - { offsetInCU: 0x18FDA, offset: 0x18FDA, size: 0x8, addend: 0x0, symName: __ZNSt3__118__debug_db_erase_cB7v160006INS_6vectorINS_4pairIttEENS_9allocatorIS3_EEEEEEvPT_, symObjAddr: 0x99E4, symBinAddr: 0x10000DEC0, symSize: 0x10 }
  - { offsetInCU: 0x1900B, offset: 0x1900B, size: 0x8, addend: 0x0, symName: __ZNSt3__118__debug_db_erase_cB7v160006INS_6vectorINS1_IbNS_9allocatorIbEEEENS2_IS4_EEEEEEvPT_, symObjAddr: 0x9BDC, symBinAddr: 0x10000E0B8, symSize: 0x10 }
  - { offsetInCU: 0x1903C, offset: 0x1903C, size: 0x8, addend: 0x0, symName: __ZNSt3__118__debug_db_erase_cB7v160006INS_6vectorINS1_IjNS_9allocatorIjEEEENS2_IS4_EEEEEEvPT_, symObjAddr: 0x9DD4, symBinAddr: 0x10000E2B0, symSize: 0x10 }
  - { offsetInCU: 0x1906D, offset: 0x1906D, size: 0x8, addend: 0x0, symName: __ZNSt3__17getlineB7v160006IcNS_11char_traitsIcEENS_9allocatorIcEEEERNS_13basic_istreamIT_T0_EES9_RNS_12basic_stringIS6_S7_T1_EES6_, symObjAddr: 0xA1D4, symBinAddr: 0x10000E6B0, symSize: 0x238 }
  - { offsetInCU: 0x1912B, offset: 0x1912B, size: 0x8, addend: 0x0, symName: __ZNSt3__125__debug_db_invalidate_allB7v160006INS_12basic_stringIcNS_11char_traitsIcEENS_9allocatorIcEEEEEEvPT_, symObjAddr: 0xA7C0, symBinAddr: 0x10000EC9C, symSize: 0x10 }
  - { offsetInCU: 0x1915C, offset: 0x1915C, size: 0x8, addend: 0x0, symName: __ZNSt3__19use_facetB7v160006INS_5ctypeIcEEEERKT_RKNS_6localeE, symObjAddr: 0xAA9C, symBinAddr: 0x10000EF78, symSize: 0x2C }
  - { offsetInCU: 0x19E1A, offset: 0x19E1A, size: 0x8, addend: 0x0, symName: __ZSt28__throw_bad_array_new_lengthB7v160006v, symObjAddr: 0x3288, symBinAddr: 0x100007764, symSize: 0x34 }
  - { offsetInCU: 0x1ABCB, offset: 0x1ABCB, size: 0x8, addend: 0x0, symName: __ZNSt3__16vectorINS_4pairIttEENS_9allocatorIS2_EEE26__swap_out_circular_bufferERNS_14__split_bufferIS2_RS4_EE, symObjAddr: 0x2AC8, symBinAddr: 0x100006FA4, symSize: 0x118 }
  - { offsetInCU: 0x1AC63, offset: 0x1AC63, size: 0x8, addend: 0x0, symName: __ZNSt3__16vectorINS0_IjNS_9allocatorIjEEEENS1_IS3_EEE26__swap_out_circular_bufferERNS_14__split_bufferIS3_RS4_EE, symObjAddr: 0x4F34, symBinAddr: 0x100009410, symSize: 0x118 }
  - { offsetInCU: 0x1AFDA, offset: 0x1AFDA, size: 0x8, addend: 0x0, symName: __ZNSt3__16vectorINS0_IbNS_9allocatorIbEEEENS1_IS3_EEE26__swap_out_circular_bufferERNS_14__split_bufferIS3_RS4_EE, symObjAddr: 0x7530, symBinAddr: 0x10000BA0C, symSize: 0x118 }
  - { offsetInCU: 0x1D2A9, offset: 0x1D2A9, size: 0x8, addend: 0x0, symName: __Z24map_min_distances_from_ERNSt3__16vectorINS0_IjNS_9allocatorIjEEEENS1_IS3_EEEERNS0_INS0_IbNS1_IbEEEENS1_IS8_EEEEtttj, symObjAddr: 0x0, symBinAddr: 0x1000044DC, symSize: 0x468 }
  - { offsetInCU: 0x1D318, offset: 0x1D318, size: 0x8, addend: 0x0, symName: __ZNSt3__16vectorINS0_IjNS_9allocatorIjEEEENS1_IS3_EEE2atEm, symObjAddr: 0x468, symBinAddr: 0x100004944, symSize: 0x68 }
  - { offsetInCU: 0x1D34F, offset: 0x1D34F, size: 0x8, addend: 0x0, symName: __ZNSt3__16vectorIjNS_9allocatorIjEEE2atEm, symObjAddr: 0x4D0, symBinAddr: 0x1000049AC, symSize: 0x60 }
  - { offsetInCU: 0x1D386, offset: 0x1D386, size: 0x8, addend: 0x0, symName: __ZNSt3__114numeric_limitsIjE3maxB7v160006Ev, symObjAddr: 0x530, symBinAddr: 0x100004A0C, symSize: 0x14 }
  - { offsetInCU: 0x1D39A, offset: 0x1D39A, size: 0x8, addend: 0x0, symName: __ZNSt3__16vectorINS0_IbNS_9allocatorIbEEEENS1_IS3_EEE2atEm, symObjAddr: 0x544, symBinAddr: 0x100004A20, symSize: 0x68 }
  - { offsetInCU: 0x1D3D1, offset: 0x1D3D1, size: 0x8, addend: 0x0, symName: __ZNSt3__16vectorIbNS_9allocatorIbEEE2atEm, symObjAddr: 0x5AC, symBinAddr: 0x100004A88, symSize: 0x6C }
  - { offsetInCU: 0x1D408, offset: 0x1D408, size: 0x8, addend: 0x0, symName: __ZNKSt3__115__bit_referenceINS_6vectorIbNS_9allocatorIbEEEELb1EEcvbB7v160006Ev, symObjAddr: 0x618, symBinAddr: 0x100004AF4, symSize: 0x2C }
  - { offsetInCU: 0x1D42D, offset: 0x1D42D, size: 0x8, addend: 0x0, symName: __Z11beats_scoreRNSt3__16vectorINS0_IjNS_9allocatorIjEEEENS1_IS3_EEEERNS0_INS0_IbNS1_IbEEEENS1_IS8_EEEEtttt, symObjAddr: 0x644, symBinAddr: 0x100004B20, symSize: 0x738 }
  - { offsetInCU: 0x1D49F, offset: 0x1D49F, size: 0x8, addend: 0x0, symName: __Z8map_pathRNSt3__16vectorINS0_IjNS_9allocatorIjEEEENS1_IS3_EEEEtttRNS0_INS_4pairIttEENS1_IS8_EEEE, symObjAddr: 0xD7C, symBinAddr: 0x100005258, symSize: 0x340 }
  - { offsetInCU: 0x1D500, offset: 0x1D500, size: 0x8, addend: 0x0, symName: __ZNSt3__16vectorINS_4pairIttEENS_9allocatorIS2_EEE9push_backB7v160006EOS2_, symObjAddr: 0x10BC, symBinAddr: 0x100005598, symSize: 0x6C }
  - { offsetInCU: 0x1D53D, offset: 0x1D53D, size: 0x8, addend: 0x0, symName: __ZNSt3__14pairIttEC1B7v160006IRtS3_LPv0EEEOT_OT0_, symObjAddr: 0x1128, symBinAddr: 0x100005604, symSize: 0x3C }
  - { offsetInCU: 0x1D59B, offset: 0x1D59B, size: 0x8, addend: 0x0, symName: _main, symObjAddr: 0x1164, symBinAddr: 0x100005640, symSize: 0xC18 }
  - { offsetInCU: 0x1D767, offset: 0x1D767, size: 0x8, addend: 0x0, symName: __ZNSt3__112basic_stringIcNS_11char_traitsIcEENS_9allocatorIcEEEC1B7v160006Ev, symObjAddr: 0x1D7C, symBinAddr: 0x100006258, symSize: 0x2C }
  - { offsetInCU: 0x1D93D, offset: 0x1D93D, size: 0x8, addend: 0x0, symName: __ZNSt3__114basic_ifstreamIcNS_11char_traitsIcEEEC1EPKcj, symObjAddr: 0x1DA8, symBinAddr: 0x100006284, symSize: 0x16C }
  - { offsetInCU: 0x1D987, offset: 0x1D987, size: 0x8, addend: 0x0, symName: __ZNSt3__16vectorINS0_IjNS_9allocatorIjEEEENS1_IS3_EEEC1B7v160006Ev, symObjAddr: 0x1F14, symBinAddr: 0x1000063F0, symSize: 0x2C }
  - { offsetInCU: 0x1D9B1, offset: 0x1D9B1, size: 0x8, addend: 0x0, symName: __ZNSt3__16vectorINS0_IbNS_9allocatorIbEEEENS1_IS3_EEEC1B7v160006Ev, symObjAddr: 0x1F40, symBinAddr: 0x10000641C, symSize: 0x2C }
  - { offsetInCU: 0x1D9DB, offset: 0x1D9DB, size: 0x8, addend: 0x0, symName: __ZNSt3__14pairIttEC1B7v160006ILb1ELPv0EEEv, symObjAddr: 0x1F6C, symBinAddr: 0x100006448, symSize: 0x2C }
  - { offsetInCU: 0x1DA15, offset: 0x1DA15, size: 0x8, addend: 0x0, symName: __ZNKSt3__19basic_iosIcNS_11char_traitsIcEEEcvbB7v160006Ev, symObjAddr: 0x1FF4, symBinAddr: 0x1000064D0, symSize: 0x2C }
  - { offsetInCU: 0x1DA3B, offset: 0x1DA3B, size: 0x8, addend: 0x0, symName: __ZNSt3__16vectorINS0_IjNS_9allocatorIjEEEENS1_IS3_EEE9push_backB7v160006EOS3_, symObjAddr: 0x2020, symBinAddr: 0x1000064FC, symSize: 0x6C }
  - { offsetInCU: 0x1DA72, offset: 0x1DA72, size: 0x8, addend: 0x0, symName: __ZNSt3__16vectorIjNS_9allocatorIjEEEC1EmRKj, symObjAddr: 0x208C, symBinAddr: 0x100006568, symSize: 0x3C }
  - { offsetInCU: 0x1DABC, offset: 0x1DABC, size: 0x8, addend: 0x0, symName: __ZNSt3__16vectorIjNS_9allocatorIjEEED1B7v160006Ev, symObjAddr: 0x20C8, symBinAddr: 0x1000065A4, symSize: 0x2C }
  - { offsetInCU: 0x1DAE6, offset: 0x1DAE6, size: 0x8, addend: 0x0, symName: __ZNSt3__16vectorINS0_IbNS_9allocatorIbEEEENS1_IS3_EEE9push_backB7v160006EOS3_, symObjAddr: 0x20F4, symBinAddr: 0x1000065D0, symSize: 0x6C }
  - { offsetInCU: 0x1DB1D, offset: 0x1DB1D, size: 0x8, addend: 0x0, symName: __ZNSt3__16vectorIbNS_9allocatorIbEEEC1EmRKb, symObjAddr: 0x2160, symBinAddr: 0x10000663C, symSize: 0x3C }
  - { offsetInCU: 0x1DB67, offset: 0x1DB67, size: 0x8, addend: 0x0, symName: __ZNSt3__16vectorIbNS_9allocatorIbEEED1B7v160006Ev, symObjAddr: 0x219C, symBinAddr: 0x100006678, symSize: 0x2C }
  - { offsetInCU: 0x1DB91, offset: 0x1DB91, size: 0x8, addend: 0x0, symName: __ZNSt3__16vectorINS0_IbNS_9allocatorIbEEEENS1_IS3_EEE4backB7v160006Ev, symObjAddr: 0x21C8, symBinAddr: 0x1000066A4, symSize: 0x1C }
  - { offsetInCU: 0x1DBB7, offset: 0x1DBB7, size: 0x8, addend: 0x0, symName: __ZNSt3__115__bit_referenceINS_6vectorIbNS_9allocatorIbEEEELb1EEaSB7v160006Eb, symObjAddr: 0x21E4, symBinAddr: 0x1000066C0, symSize: 0x6C }
  - { offsetInCU: 0x1DBEB, offset: 0x1DBEB, size: 0x8, addend: 0x0, symName: __ZNKSt3__16vectorINS0_IbNS_9allocatorIbEEEENS1_IS3_EEE4sizeB7v160006Ev, symObjAddr: 0x2250, symBinAddr: 0x10000672C, symSize: 0x28 }
  - { offsetInCU: 0x1DC17, offset: 0x1DC17, size: 0x8, addend: 0x0, symName: __ZNSt3__14pairIttEC1B7v160006ImRtLPv0EEEOT_OT0_, symObjAddr: 0x2278, symBinAddr: 0x100006754, symSize: 0x3C }
  - { offsetInCU: 0x1DC75, offset: 0x1DC75, size: 0x8, addend: 0x0, symName: __ZNSt3__14pairIttEaSB7v160006EOS1_, symObjAddr: 0x22B4, symBinAddr: 0x100006790, symSize: 0x30 }
  - { offsetInCU: 0x1DCAA, offset: 0x1DCAA, size: 0x8, addend: 0x0, symName: __ZNSt3__16vectorINS_4pairIttEENS_9allocatorIS2_EEEC1B7v160006Ev, symObjAddr: 0x22E4, symBinAddr: 0x1000067C0, symSize: 0x2C }
  - { offsetInCU: 0x1DCD4, offset: 0x1DCD4, size: 0x8, addend: 0x0, symName: __ZNSt3__16vectorINS_4pairIttEENS_9allocatorIS2_EEE5beginB7v160006Ev, symObjAddr: 0x2310, symBinAddr: 0x1000067EC, symSize: 0x30 }
  - { offsetInCU: 0x1DCFC, offset: 0x1DCFC, size: 0x8, addend: 0x0, symName: __ZNSt3__16vectorINS_4pairIttEENS_9allocatorIS2_EEE3endB7v160006Ev, symObjAddr: 0x2388, symBinAddr: 0x100006864, symSize: 0x30 }
  - { offsetInCU: 0x1DD24, offset: 0x1DD24, size: 0x8, addend: 0x0, symName: __ZNKSt3__111__wrap_iterIPNS_4pairIttEEEdeB7v160006Ev, symObjAddr: 0x23B8, symBinAddr: 0x100006894, symSize: 0x18 }
  - { offsetInCU: 0x1DD4A, offset: 0x1DD4A, size: 0x8, addend: 0x0, symName: __ZNSt3__111__wrap_iterIPNS_4pairIttEEEppB7v160006Ev, symObjAddr: 0x23D0, symBinAddr: 0x1000068AC, symSize: 0x20 }
  - { offsetInCU: 0x1DD70, offset: 0x1DD70, size: 0x8, addend: 0x0, symName: __ZNSt3__16vectorINS_4pairIttEENS_9allocatorIS2_EEED1B7v160006Ev, symObjAddr: 0x23F0, symBinAddr: 0x1000068CC, symSize: 0x2C }
  - { offsetInCU: 0x1DD9A, offset: 0x1DD9A, size: 0x8, addend: 0x0, symName: __ZNSt3__16vectorINS0_IbNS_9allocatorIbEEEENS1_IS3_EEED1B7v160006Ev, symObjAddr: 0x241C, symBinAddr: 0x1000068F8, symSize: 0x2C }
  - { offsetInCU: 0x1DDC4, offset: 0x1DDC4, size: 0x8, addend: 0x0, symName: __ZNSt3__16vectorINS0_IjNS_9allocatorIjEEEENS1_IS3_EEED1B7v160006Ev, symObjAddr: 0x2448, symBinAddr: 0x100006924, symSize: 0x2C }
  - { offsetInCU: 0x1DDF3, offset: 0x1DDF3, size: 0x8, addend: 0x0, symName: __ZNSt3__114basic_ifstreamIcNS_11char_traitsIcEEED1Ev, symObjAddr: 0x2474, symBinAddr: 0x100006950, symSize: 0x40 }
  - { offsetInCU: 0x1DE20, offset: 0x1DE20, size: 0x8, addend: 0x0, symName: __ZNKSt3__16vectorINS0_IjNS_9allocatorIjEEEENS1_IS3_EEE4sizeB7v160006Ev, symObjAddr: 0x24B4, symBinAddr: 0x100006990, symSize: 0x28 }
  - { offsetInCU: 0x1DE46, offset: 0x1DE46, size: 0x8, addend: 0x0, symName: __ZNKSt3__16vectorINS0_IjNS_9allocatorIjEEEENS1_IS3_EEE20__throw_out_of_rangeB7v160006Ev, symObjAddr: 0x24DC, symBinAddr: 0x1000069B8, symSize: 0x1C }
  - { offsetInCU: 0x1DE6C, offset: 0x1DE6C, size: 0x8, addend: 0x0, symName: __ZNSt12out_of_rangeC1B7v160006EPKc, symObjAddr: 0x255C, symBinAddr: 0x100006A38, symSize: 0x34 }
  - { offsetInCU: 0x1DEA4, offset: 0x1DEA4, size: 0x8, addend: 0x0, symName: __ZNSt12out_of_rangeC2B7v160006EPKc, symObjAddr: 0x2590, symBinAddr: 0x100006A6C, symSize: 0x4C }
  - { offsetInCU: 0x1DEDC, offset: 0x1DEDC, size: 0x8, addend: 0x0, symName: __ZNKSt3__16vectorIjNS_9allocatorIjEEE4sizeB7v160006Ev, symObjAddr: 0x25DC, symBinAddr: 0x100006AB8, symSize: 0x28 }
  - { offsetInCU: 0x1DF02, offset: 0x1DF02, size: 0x8, addend: 0x0, symName: __ZNKSt3__16vectorIjNS_9allocatorIjEEE20__throw_out_of_rangeB7v160006Ev, symObjAddr: 0x2604, symBinAddr: 0x100006AE0, symSize: 0x1C }
  - { offsetInCU: 0x1DF28, offset: 0x1DF28, size: 0x8, addend: 0x0, symName: __ZNSt3__123__libcpp_numeric_limitsIjLb1EE3maxB7v160006Ev, symObjAddr: 0x2620, symBinAddr: 0x100006AFC, symSize: 0x8 }
  - { offsetInCU: 0x1DF3C, offset: 0x1DF3C, size: 0x8, addend: 0x0, symName: __ZNKSt3__16vectorINS0_IbNS_9allocatorIbEEEENS1_IS3_EEE20__throw_out_of_rangeB7v160006Ev, symObjAddr: 0x2628, symBinAddr: 0x100006B04, symSize: 0x1C }
  - { offsetInCU: 0x1DF62, offset: 0x1DF62, size: 0x8, addend: 0x0, symName: __ZNSt3__16vectorINS_4pairIttEENS_9allocatorIS2_EEE9__end_capB7v160006Ev, symObjAddr: 0x2644, symBinAddr: 0x100006B20, symSize: 0x28 }
  - { offsetInCU: 0x1DF88, offset: 0x1DF88, size: 0x8, addend: 0x0, symName: __ZNSt3__16vectorINS_4pairIttEENS_9allocatorIS2_EEE22__construct_one_at_endB7v160006IJS2_EEEvDpOT_, symObjAddr: 0x266C, symBinAddr: 0x100006B48, symSize: 0x90 }
  - { offsetInCU: 0x1DFD7, offset: 0x1DFD7, size: 0x8, addend: 0x0, symName: __ZNSt3__16vectorINS_4pairIttEENS_9allocatorIS2_EEE21__push_back_slow_pathIS2_EEvOT_, symObjAddr: 0x26FC, symBinAddr: 0x100006BD8, symSize: 0xD8 }
  - { offsetInCU: 0x1E035, offset: 0x1E035, size: 0x8, addend: 0x0, symName: __ZNSt3__117__compressed_pairIPNS_4pairIttEENS_9allocatorIS2_EEE5firstB7v160006Ev, symObjAddr: 0x27D4, symBinAddr: 0x100006CB0, symSize: 0x24 }
  - { offsetInCU: 0x1E05B, offset: 0x1E05B, size: 0x8, addend: 0x0, symName: __ZNSt3__122__compressed_pair_elemIPNS_4pairIttEELi0ELb0EE5__getB7v160006Ev, symObjAddr: 0x27F8, symBinAddr: 0x100006CD4, symSize: 0x14 }
  - { offsetInCU: 0x1E09C, offset: 0x1E09C, size: 0x8, addend: 0x0, symName: __ZNSt3__16vectorINS_4pairIttEENS_9allocatorIS2_EEE21_ConstructTransactionC1B7v160006ERS5_m, symObjAddr: 0x280C, symBinAddr: 0x100006CE8, symSize: 0x3C }
  - { offsetInCU: 0x1E0E4, offset: 0x1E0E4, size: 0x8, addend: 0x0, symName: __ZNSt3__116allocator_traitsINS_9allocatorINS_4pairIttEEEEE9constructB7v160006IS3_JS3_EvvEEvRS4_PT_DpOT0_, symObjAddr: 0x2848, symBinAddr: 0x100006D24, symSize: 0x30 }
  - { offsetInCU: 0x1E139, offset: 0x1E139, size: 0x8, addend: 0x0, symName: __ZNSt3__16vectorINS_4pairIttEENS_9allocatorIS2_EEE7__allocB7v160006Ev, symObjAddr: 0x2878, symBinAddr: 0x100006D54, symSize: 0x28 }
  - { offsetInCU: 0x1E15F, offset: 0x1E15F, size: 0x8, addend: 0x0, symName: __ZNSt3__16vectorINS_4pairIttEENS_9allocatorIS2_EEE21_ConstructTransactionD1B7v160006Ev, symObjAddr: 0x28B4, symBinAddr: 0x100006D90, symSize: 0x2C }
  - { offsetInCU: 0x1E189, offset: 0x1E189, size: 0x8, addend: 0x0, symName: __ZNSt3__16vectorINS_4pairIttEENS_9allocatorIS2_EEE21_ConstructTransactionC2B7v160006ERS5_m, symObjAddr: 0x28E0, symBinAddr: 0x100006DBC, symSize: 0x44 }
  - { offsetInCU: 0x1E1D1, offset: 0x1E1D1, size: 0x8, addend: 0x0, symName: __ZNSt3__117__compressed_pairIPNS_4pairIttEENS_9allocatorIS2_EEE6secondB7v160006Ev, symObjAddr: 0x2950, symBinAddr: 0x100006E2C, symSize: 0x24 }
  - { offsetInCU: 0x1E1F7, offset: 0x1E1F7, size: 0x8, addend: 0x0, symName: __ZNSt3__122__compressed_pair_elemINS_9allocatorINS_4pairIttEEEELi1ELb1EE5__getB7v160006Ev, symObjAddr: 0x2974, symBinAddr: 0x100006E50, symSize: 0x14 }
  - { offsetInCU: 0x1E21D, offset: 0x1E21D, size: 0x8, addend: 0x0, symName: __ZNSt3__16vectorINS_4pairIttEENS_9allocatorIS2_EEE21_ConstructTransactionD2B7v160006Ev, symObjAddr: 0x2988, symBinAddr: 0x100006E64, symSize: 0x20 }
  - { offsetInCU: 0x1E247, offset: 0x1E247, size: 0x8, addend: 0x0, symName: __ZNKSt3__16vectorINS_4pairIttEENS_9allocatorIS2_EEE11__recommendB7v160006Em, symObjAddr: 0x29A8, symBinAddr: 0x100006E84, symSize: 0xB4 }
  - { offsetInCU: 0x1E29C, offset: 0x1E29C, size: 0x8, addend: 0x0, symName: __ZNKSt3__16vectorINS_4pairIttEENS_9allocatorIS2_EEE4sizeB7v160006Ev, symObjAddr: 0x2A5C, symBinAddr: 0x100006F38, symSize: 0x28 }
  - { offsetInCU: 0x1E2C2, offset: 0x1E2C2, size: 0x8, addend: 0x0, symName: __ZNSt3__114__split_bufferINS_4pairIttEERNS_9allocatorIS2_EEEC1EmmS5_, symObjAddr: 0x2A84, symBinAddr: 0x100006F60, symSize: 0x44 }
  - { offsetInCU: 0x1E318, offset: 0x1E318, size: 0x8, addend: 0x0, symName: __ZNSt3__114__split_bufferINS_4pairIttEERNS_9allocatorIS2_EEED1Ev, symObjAddr: 0x2BE0, symBinAddr: 0x1000070BC, symSize: 0x2C }
  - { offsetInCU: 0x1E344, offset: 0x1E344, size: 0x8, addend: 0x0, symName: __ZNKSt3__16vectorINS_4pairIttEENS_9allocatorIS2_EEE8max_sizeEv, symObjAddr: 0x2C0C, symBinAddr: 0x1000070E8, symSize: 0x60 }
  - { offsetInCU: 0x1E36C, offset: 0x1E36C, size: 0x8, addend: 0x0, symName: __ZNKSt3__16vectorINS_4pairIttEENS_9allocatorIS2_EEE20__throw_length_errorB7v160006Ev, symObjAddr: 0x2C6C, symBinAddr: 0x100007148, symSize: 0x1C }
  - { offsetInCU: 0x1E392, offset: 0x1E392, size: 0x8, addend: 0x0, symName: __ZNKSt3__16vectorINS_4pairIttEENS_9allocatorIS2_EEE8capacityB7v160006Ev, symObjAddr: 0x2C88, symBinAddr: 0x100007164, symSize: 0x40 }
  - { offsetInCU: 0x1E3C3, offset: 0x1E3C3, size: 0x8, addend: 0x0, symName: __ZNSt3__116allocator_traitsINS_9allocatorINS_4pairIttEEEEE8max_sizeB7v160006IS4_vvEEmRKS4_, symObjAddr: 0x2D20, symBinAddr: 0x1000071FC, symSize: 0x28 }
  - { offsetInCU: 0x1E3EF, offset: 0x1E3EF, size: 0x8, addend: 0x0, symName: __ZNKSt3__16vectorINS_4pairIttEENS_9allocatorIS2_EEE7__allocB7v160006Ev, symObjAddr: 0x2D48, symBinAddr: 0x100007224, symSize: 0x28 }
  - { offsetInCU: 0x1E415, offset: 0x1E415, size: 0x8, addend: 0x0, symName: __ZNSt3__114numeric_limitsIlE3maxB7v160006Ev, symObjAddr: 0x2D70, symBinAddr: 0x10000724C, symSize: 0x14 }
  - { offsetInCU: 0x1E433, offset: 0x1E433, size: 0x8, addend: 0x0, symName: __ZNKSt3__16__lessImmEclB7v160006ERKmS3_, symObjAddr: 0x2DE4, symBinAddr: 0x1000072C0, symSize: 0x34 }
  - { offsetInCU: 0x1E475, offset: 0x1E475, size: 0x8, addend: 0x0, symName: __ZNSt3__114numeric_limitsImE3maxB7v160006Ev, symObjAddr: 0x2E18, symBinAddr: 0x1000072F4, symSize: 0x14 }
  - { offsetInCU: 0x1E489, offset: 0x1E489, size: 0x8, addend: 0x0, symName: __ZNSt3__123__libcpp_numeric_limitsImLb1EE3maxB7v160006Ev, symObjAddr: 0x2E2C, symBinAddr: 0x100007308, symSize: 0x8 }
  - { offsetInCU: 0x1E49D, offset: 0x1E49D, size: 0x8, addend: 0x0, symName: __ZNKSt3__117__compressed_pairIPNS_4pairIttEENS_9allocatorIS2_EEE6secondB7v160006Ev, symObjAddr: 0x2E34, symBinAddr: 0x100007310, symSize: 0x24 }
  - { offsetInCU: 0x1E4C3, offset: 0x1E4C3, size: 0x8, addend: 0x0, symName: __ZNKSt3__122__compressed_pair_elemINS_9allocatorINS_4pairIttEEEELi1ELb1EE5__getB7v160006Ev, symObjAddr: 0x2E58, symBinAddr: 0x100007334, symSize: 0x14 }
  - { offsetInCU: 0x1E4E9, offset: 0x1E4E9, size: 0x8, addend: 0x0, symName: __ZNSt3__123__libcpp_numeric_limitsIlLb1EE3maxB7v160006Ev, symObjAddr: 0x2E6C, symBinAddr: 0x100007348, symSize: 0x8 }
  - { offsetInCU: 0x1E4FD, offset: 0x1E4FD, size: 0x8, addend: 0x0, symName: __ZNSt12length_errorC1B7v160006EPKc, symObjAddr: 0x2ED8, symBinAddr: 0x1000073B4, symSize: 0x34 }
  - { offsetInCU: 0x1E535, offset: 0x1E535, size: 0x8, addend: 0x0, symName: __ZNSt12length_errorC2B7v160006EPKc, symObjAddr: 0x2F0C, symBinAddr: 0x1000073E8, symSize: 0x4C }
  - { offsetInCU: 0x1E56D, offset: 0x1E56D, size: 0x8, addend: 0x0, symName: __ZNKSt3__16vectorINS_4pairIttEENS_9allocatorIS2_EEE9__end_capB7v160006Ev, symObjAddr: 0x2F58, symBinAddr: 0x100007434, symSize: 0x28 }
  - { offsetInCU: 0x1E593, offset: 0x1E593, size: 0x8, addend: 0x0, symName: __ZNKSt3__117__compressed_pairIPNS_4pairIttEENS_9allocatorIS2_EEE5firstB7v160006Ev, symObjAddr: 0x2F80, symBinAddr: 0x10000745C, symSize: 0x24 }
  - { offsetInCU: 0x1E5B9, offset: 0x1E5B9, size: 0x8, addend: 0x0, symName: __ZNKSt3__122__compressed_pair_elemIPNS_4pairIttEELi0ELb0EE5__getB7v160006Ev, symObjAddr: 0x2FA4, symBinAddr: 0x100007480, symSize: 0x14 }
  - { offsetInCU: 0x1E5DF, offset: 0x1E5DF, size: 0x8, addend: 0x0, symName: __ZNSt3__114__split_bufferINS_4pairIttEERNS_9allocatorIS2_EEEC2EmmS5_, symObjAddr: 0x300C, symBinAddr: 0x1000074E8, symSize: 0xD4 }
  - { offsetInCU: 0x1E658, offset: 0x1E658, size: 0x8, addend: 0x0, symName: __ZNSt3__117__compressed_pairIPNS_4pairIttEERNS_9allocatorIS2_EEEC1B7v160006IDnS6_EEOT_OT0_, symObjAddr: 0x30E0, symBinAddr: 0x1000075BC, symSize: 0x3C }
  - { offsetInCU: 0x1E6B0, offset: 0x1E6B0, size: 0x8, addend: 0x0, symName: __ZNSt3__114__split_bufferINS_4pairIttEERNS_9allocatorIS2_EEE7__allocB7v160006Ev, symObjAddr: 0x315C, symBinAddr: 0x100007638, symSize: 0x28 }
  - { offsetInCU: 0x1E6D6, offset: 0x1E6D6, size: 0x8, addend: 0x0, symName: __ZNSt3__114__split_bufferINS_4pairIttEERNS_9allocatorIS2_EEE9__end_capB7v160006Ev, symObjAddr: 0x3184, symBinAddr: 0x100007660, symSize: 0x28 }
  - { offsetInCU: 0x1E6FC, offset: 0x1E6FC, size: 0x8, addend: 0x0, symName: __ZNSt3__117__compressed_pairIPNS_4pairIttEERNS_9allocatorIS2_EEEC2B7v160006IDnS6_EEOT_OT0_, symObjAddr: 0x31AC, symBinAddr: 0x100007688, symSize: 0x48 }
  - { offsetInCU: 0x1E754, offset: 0x1E754, size: 0x8, addend: 0x0, symName: __ZNSt3__122__compressed_pair_elemIPNS_4pairIttEELi0ELb0EEC2B7v160006IDnvEEOT_, symObjAddr: 0x31F4, symBinAddr: 0x1000076D0, symSize: 0x1C }
  - { offsetInCU: 0x1E796, offset: 0x1E796, size: 0x8, addend: 0x0, symName: __ZNSt3__122__compressed_pair_elemIRNS_9allocatorINS_4pairIttEEEELi1ELb0EEC2B7v160006IS5_vEEOT_, symObjAddr: 0x3210, symBinAddr: 0x1000076EC, symSize: 0x20 }
  - { offsetInCU: 0x1E7D8, offset: 0x1E7D8, size: 0x8, addend: 0x0, symName: __ZNSt3__19allocatorINS_4pairIttEEE8allocateB7v160006Em, symObjAddr: 0x3230, symBinAddr: 0x10000770C, symSize: 0x58 }
  - { offsetInCU: 0x1E80C, offset: 0x1E80C, size: 0x8, addend: 0x0, symName: __ZNSt3__117__compressed_pairIPNS_4pairIttEERNS_9allocatorIS2_EEE6secondB7v160006Ev, symObjAddr: 0x338C, symBinAddr: 0x100007868, symSize: 0x28 }
  - { offsetInCU: 0x1E832, offset: 0x1E832, size: 0x8, addend: 0x0, symName: __ZNSt3__122__compressed_pair_elemIRNS_9allocatorINS_4pairIttEEEELi1ELb0EE5__getB7v160006Ev, symObjAddr: 0x33B4, symBinAddr: 0x100007890, symSize: 0x18 }
  - { offsetInCU: 0x1E858, offset: 0x1E858, size: 0x8, addend: 0x0, symName: __ZNSt3__117__compressed_pairIPNS_4pairIttEERNS_9allocatorIS2_EEE5firstB7v160006Ev, symObjAddr: 0x33CC, symBinAddr: 0x1000078A8, symSize: 0x24 }
  - { offsetInCU: 0x1E87E, offset: 0x1E87E, size: 0x8, addend: 0x0, symName: __ZNKSt3__16vectorINS_4pairIttEENS_9allocatorIS2_EEE17__annotate_deleteB7v160006Ev, symObjAddr: 0x33F0, symBinAddr: 0x1000078CC, symSize: 0xB8 }
  - { offsetInCU: 0x1E8A4, offset: 0x1E8A4, size: 0x8, addend: 0x0, symName: __ZNSt3__116reverse_iteratorIPNS_4pairIttEEEC1B7v160006ES3_, symObjAddr: 0x35D4, symBinAddr: 0x100007AB0, symSize: 0x34 }
  - { offsetInCU: 0x1E8DC, offset: 0x1E8DC, size: 0x8, addend: 0x0, symName: __ZNKSt3__116reverse_iteratorIPNS_4pairIttEEE4baseB7v160006Ev, symObjAddr: 0x3608, symBinAddr: 0x100007AE4, symSize: 0x18 }
  - { offsetInCU: 0x1E902, offset: 0x1E902, size: 0x8, addend: 0x0, symName: __ZNKSt3__16vectorINS_4pairIttEENS_9allocatorIS2_EEE14__annotate_newB7v160006Em, symObjAddr: 0x365C, symBinAddr: 0x100007B38, symSize: 0xAC }
  - { offsetInCU: 0x1E937, offset: 0x1E937, size: 0x8, addend: 0x0, symName: __ZNKSt3__16vectorINS_4pairIttEENS_9allocatorIS2_EEE31__annotate_contiguous_containerB7v160006EPKvS7_S7_S7_, symObjAddr: 0x3718, symBinAddr: 0x100007BF4, symSize: 0x20 }
  - { offsetInCU: 0x1E98D, offset: 0x1E98D, size: 0x8, addend: 0x0, symName: __ZNKSt3__16vectorINS_4pairIttEENS_9allocatorIS2_EEE4dataB7v160006Ev, symObjAddr: 0x3738, symBinAddr: 0x100007C14, symSize: 0x28 }
  - { offsetInCU: 0x1E9B3, offset: 0x1E9B3, size: 0x8, addend: 0x0, symName: __ZNSt3__129_AllocatorDestroyRangeReverseINS_9allocatorINS_4pairIttEEEENS_16reverse_iteratorIPS3_EEEC1B7v160006ERS4_RS7_SA_, symObjAddr: 0x37AC, symBinAddr: 0x100007C88, symSize: 0x44 }
  - { offsetInCU: 0x1EA0A, offset: 0x1EA0A, size: 0x8, addend: 0x0, symName: __ZNKSt3__116reverse_iteratorIPNS_4pairIttEEEdeB7v160006Ev, symObjAddr: 0x385C, symBinAddr: 0x100007D38, symSize: 0x28 }
  - { offsetInCU: 0x1EA3E, offset: 0x1EA3E, size: 0x8, addend: 0x0, symName: __ZNSt3__116reverse_iteratorIPNS_4pairIttEEEppB7v160006Ev, symObjAddr: 0x3884, symBinAddr: 0x100007D60, symSize: 0x20 }
  - { offsetInCU: 0x1EA64, offset: 0x1EA64, size: 0x8, addend: 0x0, symName: __ZNSt3__128__exception_guard_exceptionsINS_29_AllocatorDestroyRangeReverseINS_9allocatorINS_4pairIttEEEENS_16reverse_iteratorIPS4_EEEEE10__completeB7v160006Ev, symObjAddr: 0x38A4, symBinAddr: 0x100007D80, symSize: 0x1C }
  - { offsetInCU: 0x1EA8A, offset: 0x1EA8A, size: 0x8, addend: 0x0, symName: __ZNSt3__128__exception_guard_exceptionsINS_29_AllocatorDestroyRangeReverseINS_9allocatorINS_4pairIttEEEENS_16reverse_iteratorIPS4_EEEEED1B7v160006Ev, symObjAddr: 0x38C0, symBinAddr: 0x100007D9C, symSize: 0x2C }
  - { offsetInCU: 0x1EAB4, offset: 0x1EAB4, size: 0x8, addend: 0x0, symName: __ZNSt3__128__exception_guard_exceptionsINS_29_AllocatorDestroyRangeReverseINS_9allocatorINS_4pairIttEEEENS_16reverse_iteratorIPS4_EEEEEC1B7v160006ES9_, symObjAddr: 0x38EC, symBinAddr: 0x100007DC8, symSize: 0x34 }
  - { offsetInCU: 0x1EAED, offset: 0x1EAED, size: 0x8, addend: 0x0, symName: __ZNSt3__128__exception_guard_exceptionsINS_29_AllocatorDestroyRangeReverseINS_9allocatorINS_4pairIttEEEENS_16reverse_iteratorIPS4_EEEEEC2B7v160006ES9_, symObjAddr: 0x3920, symBinAddr: 0x100007DFC, symSize: 0x30 }
  - { offsetInCU: 0x1EB26, offset: 0x1EB26, size: 0x8, addend: 0x0, symName: __ZNSt3__129_AllocatorDestroyRangeReverseINS_9allocatorINS_4pairIttEEEENS_16reverse_iteratorIPS3_EEEC2B7v160006ERS4_RS7_SA_, symObjAddr: 0x3950, symBinAddr: 0x100007E2C, symSize: 0x38 }
  - { offsetInCU: 0x1EB83, offset: 0x1EB83, size: 0x8, addend: 0x0, symName: __ZNSt3__119__to_address_helperINS_16reverse_iteratorIPNS_4pairIttEEEEvE6__callB7v160006ERKS5_, symObjAddr: 0x3988, symBinAddr: 0x100007E64, symSize: 0x38 }
  - { offsetInCU: 0x1EBA6, offset: 0x1EBA6, size: 0x8, addend: 0x0, symName: __ZNKSt3__116reverse_iteratorIPNS_4pairIttEEEptB7v160006Ev, symObjAddr: 0x39C0, symBinAddr: 0x100007E9C, symSize: 0x2C }
  - { offsetInCU: 0x1EBCC, offset: 0x1EBCC, size: 0x8, addend: 0x0, symName: __ZNSt3__128__exception_guard_exceptionsINS_29_AllocatorDestroyRangeReverseINS_9allocatorINS_4pairIttEEEENS_16reverse_iteratorIPS4_EEEEED2B7v160006Ev, symObjAddr: 0x3AC8, symBinAddr: 0x100007FA4, symSize: 0x50 }
  - { offsetInCU: 0x1EBF6, offset: 0x1EBF6, size: 0x8, addend: 0x0, symName: __ZNKSt3__129_AllocatorDestroyRangeReverseINS_9allocatorINS_4pairIttEEEENS_16reverse_iteratorIPS3_EEEclB7v160006Ev, symObjAddr: 0x3B18, symBinAddr: 0x100007FF4, symSize: 0xB4 }
  - { offsetInCU: 0x1EC1D, offset: 0x1EC1D, size: 0x8, addend: 0x0, symName: __ZNSt3__116reverse_iteratorINS0_IPNS_4pairIttEEEEEC1B7v160006ES4_, symObjAddr: 0x3C3C, symBinAddr: 0x100008118, symSize: 0x3C }
  - { offsetInCU: 0x1EC55, offset: 0x1EC55, size: 0x8, addend: 0x0, symName: __ZNSt3__116allocator_traitsINS_9allocatorINS_4pairIttEEEEE7destroyB7v160006IS3_vvEEvRS4_PT_, symObjAddr: 0x3CD8, symBinAddr: 0x1000081B4, symSize: 0x28 }
  - { offsetInCU: 0x1EC90, offset: 0x1EC90, size: 0x8, addend: 0x0, symName: __ZNSt3__116reverse_iteratorINS0_IPNS_4pairIttEEEEEppB7v160006Ev, symObjAddr: 0x3D24, symBinAddr: 0x100008200, symSize: 0x30 }
  - { offsetInCU: 0x1ECB6, offset: 0x1ECB6, size: 0x8, addend: 0x0, symName: __ZNKSt3__116reverse_iteratorINS0_IPNS_4pairIttEEEEE4baseB7v160006Ev, symObjAddr: 0x3D54, symBinAddr: 0x100008230, symSize: 0x24 }
  - { offsetInCU: 0x1ECE2, offset: 0x1ECE2, size: 0x8, addend: 0x0, symName: __ZNSt3__119__to_address_helperINS_16reverse_iteratorINS1_IPNS_4pairIttEEEEEEvE6__callB7v160006ERKS6_, symObjAddr: 0x3DAC, symBinAddr: 0x100008288, symSize: 0x38 }
  - { offsetInCU: 0x1ED05, offset: 0x1ED05, size: 0x8, addend: 0x0, symName: __ZNKSt3__116reverse_iteratorINS0_IPNS_4pairIttEEEEEptB7v160006Ev, symObjAddr: 0x3DE4, symBinAddr: 0x1000082C0, symSize: 0x4C }
  - { offsetInCU: 0x1ED2B, offset: 0x1ED2B, size: 0x8, addend: 0x0, symName: __ZNSt3__116reverse_iteratorIPNS_4pairIttEEEpLB7v160006El, symObjAddr: 0x3F0C, symBinAddr: 0x1000083E8, symSize: 0x30 }
  - { offsetInCU: 0x1ED5F, offset: 0x1ED5F, size: 0x8, addend: 0x0, symName: __ZNSt3__116reverse_iteratorIPNS_4pairIttEEEmmB7v160006Ev, symObjAddr: 0x3F3C, symBinAddr: 0x100008418, symSize: 0x20 }
  - { offsetInCU: 0x1ED85, offset: 0x1ED85, size: 0x8, addend: 0x0, symName: __ZNSt3__116reverse_iteratorINS0_IPNS_4pairIttEEEEEC2B7v160006ES4_, symObjAddr: 0x3F5C, symBinAddr: 0x100008438, symSize: 0x2C }
  - { offsetInCU: 0x1EDBD, offset: 0x1EDBD, size: 0x8, addend: 0x0, symName: __ZNSt3__116reverse_iteratorIPNS_4pairIttEEEC2B7v160006ES3_, symObjAddr: 0x3F88, symBinAddr: 0x100008464, symSize: 0x28 }
  - { offsetInCU: 0x1EDF5, offset: 0x1EDF5, size: 0x8, addend: 0x0, symName: __ZNSt3__114__split_bufferINS_4pairIttEERNS_9allocatorIS2_EEED2Ev, symObjAddr: 0x3FB0, symBinAddr: 0x10000848C, symSize: 0x8C }
  - { offsetInCU: 0x1EE21, offset: 0x1EE21, size: 0x8, addend: 0x0, symName: __ZNSt3__114__split_bufferINS_4pairIttEERNS_9allocatorIS2_EEE5clearB7v160006Ev, symObjAddr: 0x403C, symBinAddr: 0x100008518, symSize: 0x28 }
  - { offsetInCU: 0x1EE47, offset: 0x1EE47, size: 0x8, addend: 0x0, symName: __ZNSt3__116allocator_traitsINS_9allocatorINS_4pairIttEEEEE10deallocateB7v160006ERS4_PS3_m, symObjAddr: 0x4064, symBinAddr: 0x100008540, symSize: 0x34 }
  - { offsetInCU: 0x1EE89, offset: 0x1EE89, size: 0x8, addend: 0x0, symName: __ZNKSt3__114__split_bufferINS_4pairIttEERNS_9allocatorIS2_EEE8capacityB7v160006Ev, symObjAddr: 0x4098, symBinAddr: 0x100008574, symSize: 0x40 }
  - { offsetInCU: 0x1EEAF, offset: 0x1EEAF, size: 0x8, addend: 0x0, symName: __ZNSt3__114__split_bufferINS_4pairIttEERNS_9allocatorIS2_EEE17__destruct_at_endB7v160006EPS2_, symObjAddr: 0x40D8, symBinAddr: 0x1000085B4, symSize: 0x2C }
  - { offsetInCU: 0x1EEE3, offset: 0x1EEE3, size: 0x8, addend: 0x0, symName: __ZNSt3__114__split_bufferINS_4pairIttEERNS_9allocatorIS2_EEE17__destruct_at_endB7v160006EPS2_NS_17integral_constantIbLb0EEE, symObjAddr: 0x4104, symBinAddr: 0x1000085E0, symSize: 0x80 }
  - { offsetInCU: 0x1EF23, offset: 0x1EF23, size: 0x8, addend: 0x0, symName: __ZNSt3__19allocatorINS_4pairIttEEE10deallocateB7v160006EPS2_m, symObjAddr: 0x4184, symBinAddr: 0x100008660, symSize: 0x40 }
  - { offsetInCU: 0x1EF65, offset: 0x1EF65, size: 0x8, addend: 0x0, symName: __ZNKSt3__114__split_bufferINS_4pairIttEERNS_9allocatorIS2_EEE9__end_capB7v160006Ev, symObjAddr: 0x42CC, symBinAddr: 0x1000087A8, symSize: 0x28 }
  - { offsetInCU: 0x1EF8B, offset: 0x1EF8B, size: 0x8, addend: 0x0, symName: __ZNKSt3__117__compressed_pairIPNS_4pairIttEERNS_9allocatorIS2_EEE5firstB7v160006Ev, symObjAddr: 0x42F4, symBinAddr: 0x1000087D0, symSize: 0x24 }
  - { offsetInCU: 0x1EFB1, offset: 0x1EFB1, size: 0x8, addend: 0x0, symName: __ZNSt3__14pairIttEC2B7v160006IRtS3_LPv0EEEOT_OT0_, symObjAddr: 0x4318, symBinAddr: 0x1000087F4, symSize: 0x34 }
  - { offsetInCU: 0x1F00F, offset: 0x1F00F, size: 0x8, addend: 0x0, symName: __ZNSt3__112basic_stringIcNS_11char_traitsIcEENS_9allocatorIcEEEC2B7v160006Ev, symObjAddr: 0x434C, symBinAddr: 0x100008828, symSize: 0x54 }
  - { offsetInCU: 0x1F03F, offset: 0x1F03F, size: 0x8, addend: 0x0, symName: __ZNSt3__117__compressed_pairINS_12basic_stringIcNS_11char_traitsIcEENS_9allocatorIcEEE5__repES5_EC1B7v160006INS_18__default_init_tagESA_EEOT_OT0_, symObjAddr: 0x43A0, symBinAddr: 0x10000887C, symSize: 0x3C }
  - { offsetInCU: 0x1F097, offset: 0x1F097, size: 0x8, addend: 0x0, symName: __ZNSt3__112basic_stringIcNS_11char_traitsIcEENS_9allocatorIcEEE14__default_initB7v160006Ev, symObjAddr: 0x43EC, symBinAddr: 0x1000088C8, symSize: 0x40 }
  - { offsetInCU: 0x1F0BD, offset: 0x1F0BD, size: 0x8, addend: 0x0, symName: __ZNSt3__117__compressed_pairINS_12basic_stringIcNS_11char_traitsIcEENS_9allocatorIcEEE5__repES5_EC2B7v160006INS_18__default_init_tagESA_EEOT_OT0_, symObjAddr: 0x442C, symBinAddr: 0x100008908, symSize: 0x3C }
  - { offsetInCU: 0x1F115, offset: 0x1F115, size: 0x8, addend: 0x0, symName: __ZNSt3__122__compressed_pair_elemINS_12basic_stringIcNS_11char_traitsIcEENS_9allocatorIcEEE5__repELi0ELb0EEC2B7v160006ENS_18__default_init_tagE, symObjAddr: 0x4468, symBinAddr: 0x100008944, symSize: 0x14 }
  - { offsetInCU: 0x1F149, offset: 0x1F149, size: 0x8, addend: 0x0, symName: __ZNSt3__122__compressed_pair_elemINS_9allocatorIcEELi1ELb1EEC2B7v160006ENS_18__default_init_tagE, symObjAddr: 0x447C, symBinAddr: 0x100008958, symSize: 0x2C }
  - { offsetInCU: 0x1F17D, offset: 0x1F17D, size: 0x8, addend: 0x0, symName: __ZNSt3__19allocatorIcEC2B7v160006Ev, symObjAddr: 0x44A8, symBinAddr: 0x100008984, symSize: 0x2C }
  - { offsetInCU: 0x1F1A7, offset: 0x1F1A7, size: 0x8, addend: 0x0, symName: __ZNSt3__116__non_trivial_ifILb1ENS_9allocatorIcEEEC2B7v160006Ev, symObjAddr: 0x44D4, symBinAddr: 0x1000089B0, symSize: 0x14 }
  - { offsetInCU: 0x1F1D1, offset: 0x1F1D1, size: 0x8, addend: 0x0, symName: __ZNSt3__117__compressed_pairINS_12basic_stringIcNS_11char_traitsIcEENS_9allocatorIcEEE5__repES5_E5firstB7v160006Ev, symObjAddr: 0x44E8, symBinAddr: 0x1000089C4, symSize: 0x24 }
  - { offsetInCU: 0x1F1F7, offset: 0x1F1F7, size: 0x8, addend: 0x0, symName: __ZNSt3__122__compressed_pair_elemINS_12basic_stringIcNS_11char_traitsIcEENS_9allocatorIcEEE5__repELi0ELb0EE5__getB7v160006Ev, symObjAddr: 0x450C, symBinAddr: 0x1000089E8, symSize: 0x14 }
  - { offsetInCU: 0x1F21D, offset: 0x1F21D, size: 0x8, addend: 0x0, symName: __ZNSt3__16vectorINS0_IjNS_9allocatorIjEEEENS1_IS3_EEEC2B7v160006Ev, symObjAddr: 0x4520, symBinAddr: 0x1000089FC, symSize: 0x58 }
  - { offsetInCU: 0x1F247, offset: 0x1F247, size: 0x8, addend: 0x0, symName: __ZNSt3__117__compressed_pairIPNS_6vectorIjNS_9allocatorIjEEEENS2_IS4_EEEC1B7v160006IDnNS_18__default_init_tagEEEOT_OT0_, symObjAddr: 0x4578, symBinAddr: 0x100008A54, symSize: 0x3C }
  - { offsetInCU: 0x1F29F, offset: 0x1F29F, size: 0x8, addend: 0x0, symName: __ZNSt3__117__compressed_pairIPNS_6vectorIjNS_9allocatorIjEEEENS2_IS4_EEEC2B7v160006IDnNS_18__default_init_tagEEEOT_OT0_, symObjAddr: 0x45C4, symBinAddr: 0x100008AA0, symSize: 0x40 }
  - { offsetInCU: 0x1F2F7, offset: 0x1F2F7, size: 0x8, addend: 0x0, symName: __ZNSt3__122__compressed_pair_elemIPNS_6vectorIjNS_9allocatorIjEEEELi0ELb0EEC2B7v160006IDnvEEOT_, symObjAddr: 0x4604, symBinAddr: 0x100008AE0, symSize: 0x1C }
  - { offsetInCU: 0x1F339, offset: 0x1F339, size: 0x8, addend: 0x0, symName: __ZNSt3__122__compressed_pair_elemINS_9allocatorINS_6vectorIjNS1_IjEEEEEELi1ELb1EEC2B7v160006ENS_18__default_init_tagE, symObjAddr: 0x4620, symBinAddr: 0x100008AFC, symSize: 0x2C }
  - { offsetInCU: 0x1F36D, offset: 0x1F36D, size: 0x8, addend: 0x0, symName: __ZNSt3__19allocatorINS_6vectorIjNS0_IjEEEEEC2B7v160006Ev, symObjAddr: 0x464C, symBinAddr: 0x100008B28, symSize: 0x2C }
  - { offsetInCU: 0x1F397, offset: 0x1F397, size: 0x8, addend: 0x0, symName: __ZNSt3__116__non_trivial_ifILb1ENS_9allocatorINS_6vectorIjNS1_IjEEEEEEEC2B7v160006Ev, symObjAddr: 0x4678, symBinAddr: 0x100008B54, symSize: 0x14 }
  - { offsetInCU: 0x1F3C1, offset: 0x1F3C1, size: 0x8, addend: 0x0, symName: __ZNSt3__16vectorINS0_IbNS_9allocatorIbEEEENS1_IS3_EEEC2B7v160006Ev, symObjAddr: 0x468C, symBinAddr: 0x100008B68, symSize: 0x58 }
  - { offsetInCU: 0x1F3EB, offset: 0x1F3EB, size: 0x8, addend: 0x0, symName: __ZNSt3__117__compressed_pairIPNS_6vectorIbNS_9allocatorIbEEEENS2_IS4_EEEC1B7v160006IDnNS_18__default_init_tagEEEOT_OT0_, symObjAddr: 0x46E4, symBinAddr: 0x100008BC0, symSize: 0x3C }
  - { offsetInCU: 0x1F443, offset: 0x1F443, size: 0x8, addend: 0x0, symName: __ZNSt3__117__compressed_pairIPNS_6vectorIbNS_9allocatorIbEEEENS2_IS4_EEEC2B7v160006IDnNS_18__default_init_tagEEEOT_OT0_, symObjAddr: 0x4730, symBinAddr: 0x100008C0C, symSize: 0x40 }
  - { offsetInCU: 0x1F49B, offset: 0x1F49B, size: 0x8, addend: 0x0, symName: __ZNSt3__122__compressed_pair_elemIPNS_6vectorIbNS_9allocatorIbEEEELi0ELb0EEC2B7v160006IDnvEEOT_, symObjAddr: 0x4770, symBinAddr: 0x100008C4C, symSize: 0x1C }
  - { offsetInCU: 0x1F4DD, offset: 0x1F4DD, size: 0x8, addend: 0x0, symName: __ZNSt3__122__compressed_pair_elemINS_9allocatorINS_6vectorIbNS1_IbEEEEEELi1ELb1EEC2B7v160006ENS_18__default_init_tagE, symObjAddr: 0x478C, symBinAddr: 0x100008C68, symSize: 0x2C }
  - { offsetInCU: 0x1F511, offset: 0x1F511, size: 0x8, addend: 0x0, symName: __ZNSt3__19allocatorINS_6vectorIbNS0_IbEEEEEC2B7v160006Ev, symObjAddr: 0x47B8, symBinAddr: 0x100008C94, symSize: 0x2C }
  - { offsetInCU: 0x1F53B, offset: 0x1F53B, size: 0x8, addend: 0x0, symName: __ZNSt3__116__non_trivial_ifILb1ENS_9allocatorINS_6vectorIbNS1_IbEEEEEEEC2B7v160006Ev, symObjAddr: 0x47E4, symBinAddr: 0x100008CC0, symSize: 0x14 }
  - { offsetInCU: 0x1F565, offset: 0x1F565, size: 0x8, addend: 0x0, symName: __ZNSt3__14pairIttEC2B7v160006ILb1ELPv0EEEv, symObjAddr: 0x47F8, symBinAddr: 0x100008CD4, symSize: 0x1C }
  - { offsetInCU: 0x1F59F, offset: 0x1F59F, size: 0x8, addend: 0x0, symName: __ZNSt3__16vectorINS0_IjNS_9allocatorIjEEEENS1_IS3_EEE9__end_capB7v160006Ev, symObjAddr: 0x4814, symBinAddr: 0x100008CF0, symSize: 0x28 }
  - { offsetInCU: 0x1F5C5, offset: 0x1F5C5, size: 0x8, addend: 0x0, symName: __ZNSt3__16vectorINS0_IjNS_9allocatorIjEEEENS1_IS3_EEE22__construct_one_at_endB7v160006IJS3_EEEvDpOT_, symObjAddr: 0x483C, symBinAddr: 0x100008D18, symSize: 0x90 }
  - { offsetInCU: 0x1F614, offset: 0x1F614, size: 0x8, addend: 0x0, symName: __ZNSt3__16vectorINS0_IjNS_9allocatorIjEEEENS1_IS3_EEE21__push_back_slow_pathIS3_EEvOT_, symObjAddr: 0x48CC, symBinAddr: 0x100008DA8, symSize: 0xD8 }
  - { offsetInCU: 0x1F672, offset: 0x1F672, size: 0x8, addend: 0x0, symName: __ZNSt3__117__compressed_pairIPNS_6vectorIjNS_9allocatorIjEEEENS2_IS4_EEE5firstB7v160006Ev, symObjAddr: 0x49A4, symBinAddr: 0x100008E80, symSize: 0x24 }
  - { offsetInCU: 0x1F698, offset: 0x1F698, size: 0x8, addend: 0x0, symName: __ZNSt3__122__compressed_pair_elemIPNS_6vectorIjNS_9allocatorIjEEEELi0ELb0EE5__getB7v160006Ev, symObjAddr: 0x49C8, symBinAddr: 0x100008EA4, symSize: 0x14 }
  - { offsetInCU: 0x1F6D9, offset: 0x1F6D9, size: 0x8, addend: 0x0, symName: __ZNSt3__16vectorINS0_IjNS_9allocatorIjEEEENS1_IS3_EEE21_ConstructTransactionC1B7v160006ERS5_m, symObjAddr: 0x49DC, symBinAddr: 0x100008EB8, symSize: 0x3C }
  - { offsetInCU: 0x1F721, offset: 0x1F721, size: 0x8, addend: 0x0, symName: __ZNSt3__116allocator_traitsINS_9allocatorINS_6vectorIjNS1_IjEEEEEEE9constructB7v160006IS4_JS4_EvvEEvRS5_PT_DpOT0_, symObjAddr: 0x4A18, symBinAddr: 0x100008EF4, symSize: 0x30 }
  - { offsetInCU: 0x1F776, offset: 0x1F776, size: 0x8, addend: 0x0, symName: __ZNSt3__16vectorINS0_IjNS_9allocatorIjEEEENS1_IS3_EEE7__allocB7v160006Ev, symObjAddr: 0x4A48, symBinAddr: 0x100008F24, symSize: 0x28 }
  - { offsetInCU: 0x1F79C, offset: 0x1F79C, size: 0x8, addend: 0x0, symName: __ZNSt3__16vectorINS0_IjNS_9allocatorIjEEEENS1_IS3_EEE21_ConstructTransactionD1B7v160006Ev, symObjAddr: 0x4A84, symBinAddr: 0x100008F60, symSize: 0x2C }
  - { offsetInCU: 0x1F7C6, offset: 0x1F7C6, size: 0x8, addend: 0x0, symName: __ZNSt3__16vectorINS0_IjNS_9allocatorIjEEEENS1_IS3_EEE21_ConstructTransactionC2B7v160006ERS5_m, symObjAddr: 0x4AB0, symBinAddr: 0x100008F8C, symSize: 0x4C }
  - { offsetInCU: 0x1F80E, offset: 0x1F80E, size: 0x8, addend: 0x0, symName: __ZNSt3__16vectorIjNS_9allocatorIjEEEC1B7v160006EOS3_, symObjAddr: 0x4B38, symBinAddr: 0x100009014, symSize: 0x34 }
  - { offsetInCU: 0x1F849, offset: 0x1F849, size: 0x8, addend: 0x0, symName: __ZNSt3__16vectorIjNS_9allocatorIjEEEC2B7v160006EOS3_, symObjAddr: 0x4B6C, symBinAddr: 0x100009048, symSize: 0xE0 }
  - { offsetInCU: 0x1F884, offset: 0x1F884, size: 0x8, addend: 0x0, symName: __ZNSt3__16vectorIjNS_9allocatorIjEEE7__allocB7v160006Ev, symObjAddr: 0x4C4C, symBinAddr: 0x100009128, symSize: 0x28 }
  - { offsetInCU: 0x1F8B0, offset: 0x1F8B0, size: 0x8, addend: 0x0, symName: __ZNSt3__117__compressed_pairIPjNS_9allocatorIjEEEC1B7v160006IDnS3_EEOT_OT0_, symObjAddr: 0x4C74, symBinAddr: 0x100009150, symSize: 0x3C }
  - { offsetInCU: 0x1F908, offset: 0x1F908, size: 0x8, addend: 0x0, symName: __ZNSt3__16vectorIjNS_9allocatorIjEEE9__end_capB7v160006Ev, symObjAddr: 0x4CD4, symBinAddr: 0x1000091B0, symSize: 0x28 }
  - { offsetInCU: 0x1F92E, offset: 0x1F92E, size: 0x8, addend: 0x0, symName: __ZNSt3__117__compressed_pairIPjNS_9allocatorIjEEE6secondB7v160006Ev, symObjAddr: 0x4CFC, symBinAddr: 0x1000091D8, symSize: 0x24 }
  - { offsetInCU: 0x1F954, offset: 0x1F954, size: 0x8, addend: 0x0, symName: __ZNSt3__122__compressed_pair_elemINS_9allocatorIjEELi1ELb1EE5__getB7v160006Ev, symObjAddr: 0x4D20, symBinAddr: 0x1000091FC, symSize: 0x14 }
  - { offsetInCU: 0x1F97A, offset: 0x1F97A, size: 0x8, addend: 0x0, symName: __ZNSt3__117__compressed_pairIPjNS_9allocatorIjEEEC2B7v160006IDnS3_EEOT_OT0_, symObjAddr: 0x4D34, symBinAddr: 0x100009210, symSize: 0x44 }
  - { offsetInCU: 0x1F9D2, offset: 0x1F9D2, size: 0x8, addend: 0x0, symName: __ZNSt3__122__compressed_pair_elemIPjLi0ELb0EEC2B7v160006IDnvEEOT_, symObjAddr: 0x4D78, symBinAddr: 0x100009254, symSize: 0x1C }
  - { offsetInCU: 0x1FA14, offset: 0x1FA14, size: 0x8, addend: 0x0, symName: __ZNSt3__122__compressed_pair_elemINS_9allocatorIjEELi1ELb1EEC2B7v160006IS2_vEEOT_, symObjAddr: 0x4D94, symBinAddr: 0x100009270, symSize: 0x18 }
  - { offsetInCU: 0x1FA56, offset: 0x1FA56, size: 0x8, addend: 0x0, symName: __ZNSt3__117__compressed_pairIPjNS_9allocatorIjEEE5firstB7v160006Ev, symObjAddr: 0x4DAC, symBinAddr: 0x100009288, symSize: 0x24 }
  - { offsetInCU: 0x1FA7C, offset: 0x1FA7C, size: 0x8, addend: 0x0, symName: __ZNSt3__122__compressed_pair_elemIPjLi0ELb0EE5__getB7v160006Ev, symObjAddr: 0x4DD0, symBinAddr: 0x1000092AC, symSize: 0x14 }
  - { offsetInCU: 0x1FAA2, offset: 0x1FAA2, size: 0x8, addend: 0x0, symName: __ZNSt3__117__compressed_pairIPNS_6vectorIjNS_9allocatorIjEEEENS2_IS4_EEE6secondB7v160006Ev, symObjAddr: 0x4DE4, symBinAddr: 0x1000092C0, symSize: 0x24 }
  - { offsetInCU: 0x1FAC8, offset: 0x1FAC8, size: 0x8, addend: 0x0, symName: __ZNSt3__122__compressed_pair_elemINS_9allocatorINS_6vectorIjNS1_IjEEEEEELi1ELb1EE5__getB7v160006Ev, symObjAddr: 0x4E08, symBinAddr: 0x1000092E4, symSize: 0x14 }
  - { offsetInCU: 0x1FAEE, offset: 0x1FAEE, size: 0x8, addend: 0x0, symName: __ZNSt3__16vectorINS0_IjNS_9allocatorIjEEEENS1_IS3_EEE21_ConstructTransactionD2B7v160006Ev, symObjAddr: 0x4E1C, symBinAddr: 0x1000092F8, symSize: 0x20 }
  - { offsetInCU: 0x1FB18, offset: 0x1FB18, size: 0x8, addend: 0x0, symName: __ZNKSt3__16vectorINS0_IjNS_9allocatorIjEEEENS1_IS3_EEE11__recommendB7v160006Em, symObjAddr: 0x4E3C, symBinAddr: 0x100009318, symSize: 0xB4 }
  - { offsetInCU: 0x1FB6D, offset: 0x1FB6D, size: 0x8, addend: 0x0, symName: __ZNSt3__114__split_bufferINS_6vectorIjNS_9allocatorIjEEEERNS2_IS4_EEEC1EmmS6_, symObjAddr: 0x4EF0, symBinAddr: 0x1000093CC, symSize: 0x44 }
  - { offsetInCU: 0x1FBC3, offset: 0x1FBC3, size: 0x8, addend: 0x0, symName: __ZNSt3__114__split_bufferINS_6vectorIjNS_9allocatorIjEEEERNS2_IS4_EEED1Ev, symObjAddr: 0x504C, symBinAddr: 0x100009528, symSize: 0x2C }
  - { offsetInCU: 0x1FBEF, offset: 0x1FBEF, size: 0x8, addend: 0x0, symName: __ZNKSt3__16vectorINS0_IjNS_9allocatorIjEEEENS1_IS3_EEE8max_sizeEv, symObjAddr: 0x5078, symBinAddr: 0x100009554, symSize: 0x60 }
  - { offsetInCU: 0x1FC17, offset: 0x1FC17, size: 0x8, addend: 0x0, symName: __ZNKSt3__16vectorINS0_IjNS_9allocatorIjEEEENS1_IS3_EEE20__throw_length_errorB7v160006Ev, symObjAddr: 0x50D8, symBinAddr: 0x1000095B4, symSize: 0x1C }
  - { offsetInCU: 0x1FC3D, offset: 0x1FC3D, size: 0x8, addend: 0x0, symName: __ZNKSt3__16vectorINS0_IjNS_9allocatorIjEEEENS1_IS3_EEE8capacityB7v160006Ev, symObjAddr: 0x50F4, symBinAddr: 0x1000095D0, symSize: 0x40 }
  - { offsetInCU: 0x1FC6E, offset: 0x1FC6E, size: 0x8, addend: 0x0, symName: __ZNSt3__116allocator_traitsINS_9allocatorINS_6vectorIjNS1_IjEEEEEEE8max_sizeB7v160006IS5_vvEEmRKS5_, symObjAddr: 0x5134, symBinAddr: 0x100009610, symSize: 0x28 }
  - { offsetInCU: 0x1FC9A, offset: 0x1FC9A, size: 0x8, addend: 0x0, symName: __ZNKSt3__16vectorINS0_IjNS_9allocatorIjEEEENS1_IS3_EEE7__allocB7v160006Ev, symObjAddr: 0x515C, symBinAddr: 0x100009638, symSize: 0x28 }
  - { offsetInCU: 0x1FCC0, offset: 0x1FCC0, size: 0x8, addend: 0x0, symName: __ZNKSt3__117__compressed_pairIPNS_6vectorIjNS_9allocatorIjEEEENS2_IS4_EEE6secondB7v160006Ev, symObjAddr: 0x5184, symBinAddr: 0x100009660, symSize: 0x24 }
  - { offsetInCU: 0x1FCE6, offset: 0x1FCE6, size: 0x8, addend: 0x0, symName: __ZNKSt3__122__compressed_pair_elemINS_9allocatorINS_6vectorIjNS1_IjEEEEEELi1ELb1EE5__getB7v160006Ev, symObjAddr: 0x51A8, symBinAddr: 0x100009684, symSize: 0x14 }
  - { offsetInCU: 0x1FD0C, offset: 0x1FD0C, size: 0x8, addend: 0x0, symName: __ZNKSt3__16vectorINS0_IjNS_9allocatorIjEEEENS1_IS3_EEE9__end_capB7v160006Ev, symObjAddr: 0x51BC, symBinAddr: 0x100009698, symSize: 0x28 }
  - { offsetInCU: 0x1FD32, offset: 0x1FD32, size: 0x8, addend: 0x0, symName: __ZNKSt3__117__compressed_pairIPNS_6vectorIjNS_9allocatorIjEEEENS2_IS4_EEE5firstB7v160006Ev, symObjAddr: 0x51E4, symBinAddr: 0x1000096C0, symSize: 0x24 }
  - { offsetInCU: 0x1FD58, offset: 0x1FD58, size: 0x8, addend: 0x0, symName: __ZNKSt3__122__compressed_pair_elemIPNS_6vectorIjNS_9allocatorIjEEEELi0ELb0EE5__getB7v160006Ev, symObjAddr: 0x5208, symBinAddr: 0x1000096E4, symSize: 0x14 }
  - { offsetInCU: 0x1FD7E, offset: 0x1FD7E, size: 0x8, addend: 0x0, symName: __ZNSt3__114__split_bufferINS_6vectorIjNS_9allocatorIjEEEERNS2_IS4_EEEC2EmmS6_, symObjAddr: 0x521C, symBinAddr: 0x1000096F8, symSize: 0xE0 }
  - { offsetInCU: 0x1FDF1, offset: 0x1FDF1, size: 0x8, addend: 0x0, symName: __ZNSt3__117__compressed_pairIPNS_6vectorIjNS_9allocatorIjEEEERNS2_IS4_EEEC1B7v160006IDnS7_EEOT_OT0_, symObjAddr: 0x52FC, symBinAddr: 0x1000097D8, symSize: 0x3C }
  - { offsetInCU: 0x1FE49, offset: 0x1FE49, size: 0x8, addend: 0x0, symName: __ZNSt3__114__split_bufferINS_6vectorIjNS_9allocatorIjEEEERNS2_IS4_EEE7__allocB7v160006Ev, symObjAddr: 0x5378, symBinAddr: 0x100009854, symSize: 0x28 }
  - { offsetInCU: 0x1FE6F, offset: 0x1FE6F, size: 0x8, addend: 0x0, symName: __ZNSt3__114__split_bufferINS_6vectorIjNS_9allocatorIjEEEERNS2_IS4_EEE9__end_capB7v160006Ev, symObjAddr: 0x53A0, symBinAddr: 0x10000987C, symSize: 0x28 }
  - { offsetInCU: 0x1FE95, offset: 0x1FE95, size: 0x8, addend: 0x0, symName: __ZNSt3__117__compressed_pairIPNS_6vectorIjNS_9allocatorIjEEEERNS2_IS4_EEEC2B7v160006IDnS7_EEOT_OT0_, symObjAddr: 0x53C8, symBinAddr: 0x1000098A4, symSize: 0x48 }
  - { offsetInCU: 0x1FEED, offset: 0x1FEED, size: 0x8, addend: 0x0, symName: __ZNSt3__122__compressed_pair_elemIRNS_9allocatorINS_6vectorIjNS1_IjEEEEEELi1ELb0EEC2B7v160006IS6_vEEOT_, symObjAddr: 0x5410, symBinAddr: 0x1000098EC, symSize: 0x20 }
  - { offsetInCU: 0x1FF2F, offset: 0x1FF2F, size: 0x8, addend: 0x0, symName: __ZNSt3__19allocatorINS_6vectorIjNS0_IjEEEEE8allocateB7v160006Em, symObjAddr: 0x5430, symBinAddr: 0x10000990C, symSize: 0x5C }
  - { offsetInCU: 0x1FF63, offset: 0x1FF63, size: 0x8, addend: 0x0, symName: __ZNSt3__117__compressed_pairIPNS_6vectorIjNS_9allocatorIjEEEERNS2_IS4_EEE6secondB7v160006Ev, symObjAddr: 0x548C, symBinAddr: 0x100009968, symSize: 0x28 }
  - { offsetInCU: 0x1FF89, offset: 0x1FF89, size: 0x8, addend: 0x0, symName: __ZNSt3__122__compressed_pair_elemIRNS_9allocatorINS_6vectorIjNS1_IjEEEEEELi1ELb0EE5__getB7v160006Ev, symObjAddr: 0x54B4, symBinAddr: 0x100009990, symSize: 0x18 }
  - { offsetInCU: 0x1FFAF, offset: 0x1FFAF, size: 0x8, addend: 0x0, symName: __ZNSt3__117__compressed_pairIPNS_6vectorIjNS_9allocatorIjEEEERNS2_IS4_EEE5firstB7v160006Ev, symObjAddr: 0x54CC, symBinAddr: 0x1000099A8, symSize: 0x24 }
  - { offsetInCU: 0x1FFD5, offset: 0x1FFD5, size: 0x8, addend: 0x0, symName: __ZNKSt3__16vectorINS0_IjNS_9allocatorIjEEEENS1_IS3_EEE17__annotate_deleteB7v160006Ev, symObjAddr: 0x54F0, symBinAddr: 0x1000099CC, symSize: 0xD4 }
  - { offsetInCU: 0x1FFFB, offset: 0x1FFFB, size: 0x8, addend: 0x0, symName: __ZNSt3__116reverse_iteratorIPNS_6vectorIjNS_9allocatorIjEEEEEC1B7v160006ES5_, symObjAddr: 0x56F0, symBinAddr: 0x100009BCC, symSize: 0x34 }
  - { offsetInCU: 0x20033, offset: 0x20033, size: 0x8, addend: 0x0, symName: __ZNKSt3__116reverse_iteratorIPNS_6vectorIjNS_9allocatorIjEEEEE4baseB7v160006Ev, symObjAddr: 0x5724, symBinAddr: 0x100009C00, symSize: 0x18 }
  - { offsetInCU: 0x20059, offset: 0x20059, size: 0x8, addend: 0x0, symName: __ZNKSt3__16vectorINS0_IjNS_9allocatorIjEEEENS1_IS3_EEE14__annotate_newB7v160006Em, symObjAddr: 0x5778, symBinAddr: 0x100009C54, symSize: 0xC8 }
  - { offsetInCU: 0x2008E, offset: 0x2008E, size: 0x8, addend: 0x0, symName: __ZNKSt3__16vectorINS0_IjNS_9allocatorIjEEEENS1_IS3_EEE31__annotate_contiguous_containerB7v160006EPKvS7_S7_S7_, symObjAddr: 0x5850, symBinAddr: 0x100009D2C, symSize: 0x20 }
  - { offsetInCU: 0x200E4, offset: 0x200E4, size: 0x8, addend: 0x0, symName: __ZNKSt3__16vectorINS0_IjNS_9allocatorIjEEEENS1_IS3_EEE4dataB7v160006Ev, symObjAddr: 0x5870, symBinAddr: 0x100009D4C, symSize: 0x28 }
  - { offsetInCU: 0x2010A, offset: 0x2010A, size: 0x8, addend: 0x0, symName: __ZNSt3__129_AllocatorDestroyRangeReverseINS_9allocatorINS_6vectorIjNS1_IjEEEEEENS_16reverse_iteratorIPS4_EEEC1B7v160006ERS5_RS8_SB_, symObjAddr: 0x58E4, symBinAddr: 0x100009DC0, symSize: 0x44 }
  - { offsetInCU: 0x20161, offset: 0x20161, size: 0x8, addend: 0x0, symName: __ZNKSt3__116reverse_iteratorIPNS_6vectorIjNS_9allocatorIjEEEEEdeB7v160006Ev, symObjAddr: 0x5994, symBinAddr: 0x100009E70, symSize: 0x28 }
  - { offsetInCU: 0x20195, offset: 0x20195, size: 0x8, addend: 0x0, symName: __ZNSt3__116reverse_iteratorIPNS_6vectorIjNS_9allocatorIjEEEEEppB7v160006Ev, symObjAddr: 0x59BC, symBinAddr: 0x100009E98, symSize: 0x20 }
  - { offsetInCU: 0x201BB, offset: 0x201BB, size: 0x8, addend: 0x0, symName: __ZNSt3__128__exception_guard_exceptionsINS_29_AllocatorDestroyRangeReverseINS_9allocatorINS_6vectorIjNS2_IjEEEEEENS_16reverse_iteratorIPS5_EEEEE10__completeB7v160006Ev, symObjAddr: 0x59DC, symBinAddr: 0x100009EB8, symSize: 0x1C }
  - { offsetInCU: 0x201E1, offset: 0x201E1, size: 0x8, addend: 0x0, symName: __ZNSt3__128__exception_guard_exceptionsINS_29_AllocatorDestroyRangeReverseINS_9allocatorINS_6vectorIjNS2_IjEEEEEENS_16reverse_iteratorIPS5_EEEEED1B7v160006Ev, symObjAddr: 0x59F8, symBinAddr: 0x100009ED4, symSize: 0x2C }
  - { offsetInCU: 0x2020B, offset: 0x2020B, size: 0x8, addend: 0x0, symName: __ZNSt3__128__exception_guard_exceptionsINS_29_AllocatorDestroyRangeReverseINS_9allocatorINS_6vectorIjNS2_IjEEEEEENS_16reverse_iteratorIPS5_EEEEEC1B7v160006ESA_, symObjAddr: 0x5A24, symBinAddr: 0x100009F00, symSize: 0x34 }
  - { offsetInCU: 0x20244, offset: 0x20244, size: 0x8, addend: 0x0, symName: __ZNSt3__128__exception_guard_exceptionsINS_29_AllocatorDestroyRangeReverseINS_9allocatorINS_6vectorIjNS2_IjEEEEEENS_16reverse_iteratorIPS5_EEEEEC2B7v160006ESA_, symObjAddr: 0x5A58, symBinAddr: 0x100009F34, symSize: 0x30 }
  - { offsetInCU: 0x2027D, offset: 0x2027D, size: 0x8, addend: 0x0, symName: __ZNSt3__129_AllocatorDestroyRangeReverseINS_9allocatorINS_6vectorIjNS1_IjEEEEEENS_16reverse_iteratorIPS4_EEEC2B7v160006ERS5_RS8_SB_, symObjAddr: 0x5A88, symBinAddr: 0x100009F64, symSize: 0x38 }
  - { offsetInCU: 0x202DA, offset: 0x202DA, size: 0x8, addend: 0x0, symName: __ZNSt3__119__to_address_helperINS_16reverse_iteratorIPNS_6vectorIjNS_9allocatorIjEEEEEEvE6__callB7v160006ERKS7_, symObjAddr: 0x5AC0, symBinAddr: 0x100009F9C, symSize: 0x38 }
  - { offsetInCU: 0x202FD, offset: 0x202FD, size: 0x8, addend: 0x0, symName: __ZNKSt3__116reverse_iteratorIPNS_6vectorIjNS_9allocatorIjEEEEEptB7v160006Ev, symObjAddr: 0x5AF8, symBinAddr: 0x100009FD4, symSize: 0x2C }
  - { offsetInCU: 0x20323, offset: 0x20323, size: 0x8, addend: 0x0, symName: __ZNSt3__128__exception_guard_exceptionsINS_29_AllocatorDestroyRangeReverseINS_9allocatorINS_6vectorIjNS2_IjEEEEEENS_16reverse_iteratorIPS5_EEEEED2B7v160006Ev, symObjAddr: 0x5BF4, symBinAddr: 0x10000A0D0, symSize: 0x50 }
  - { offsetInCU: 0x2034D, offset: 0x2034D, size: 0x8, addend: 0x0, symName: __ZNKSt3__129_AllocatorDestroyRangeReverseINS_9allocatorINS_6vectorIjNS1_IjEEEEEENS_16reverse_iteratorIPS4_EEEclB7v160006Ev, symObjAddr: 0x5C44, symBinAddr: 0x10000A120, symSize: 0xB4 }
  - { offsetInCU: 0x20374, offset: 0x20374, size: 0x8, addend: 0x0, symName: __ZNSt3__116reverse_iteratorINS0_IPNS_6vectorIjNS_9allocatorIjEEEEEEEC1B7v160006ES6_, symObjAddr: 0x5D68, symBinAddr: 0x10000A244, symSize: 0x3C }
  - { offsetInCU: 0x203AC, offset: 0x203AC, size: 0x8, addend: 0x0, symName: __ZNSt3__116allocator_traitsINS_9allocatorINS_6vectorIjNS1_IjEEEEEEE7destroyB7v160006IS4_vvEEvRS5_PT_, symObjAddr: 0x5E04, symBinAddr: 0x10000A2E0, symSize: 0x28 }
  - { offsetInCU: 0x203E7, offset: 0x203E7, size: 0x8, addend: 0x0, symName: __ZNSt3__116reverse_iteratorINS0_IPNS_6vectorIjNS_9allocatorIjEEEEEEEppB7v160006Ev, symObjAddr: 0x5E50, symBinAddr: 0x10000A32C, symSize: 0x30 }
  - { offsetInCU: 0x2040D, offset: 0x2040D, size: 0x8, addend: 0x0, symName: __ZNKSt3__116reverse_iteratorINS0_IPNS_6vectorIjNS_9allocatorIjEEEEEEE4baseB7v160006Ev, symObjAddr: 0x5E80, symBinAddr: 0x10000A35C, symSize: 0x24 }
  - { offsetInCU: 0x20439, offset: 0x20439, size: 0x8, addend: 0x0, symName: __ZNSt3__119__to_address_helperINS_16reverse_iteratorINS1_IPNS_6vectorIjNS_9allocatorIjEEEEEEEEvE6__callB7v160006ERKS8_, symObjAddr: 0x5EEC, symBinAddr: 0x10000A3C8, symSize: 0x38 }
  - { offsetInCU: 0x2045C, offset: 0x2045C, size: 0x8, addend: 0x0, symName: __ZNKSt3__116reverse_iteratorINS0_IPNS_6vectorIjNS_9allocatorIjEEEEEEEptB7v160006Ev, symObjAddr: 0x5F24, symBinAddr: 0x10000A400, symSize: 0x4C }
  - { offsetInCU: 0x20482, offset: 0x20482, size: 0x8, addend: 0x0, symName: __ZNSt3__116reverse_iteratorIPNS_6vectorIjNS_9allocatorIjEEEEEpLB7v160006El, symObjAddr: 0x604C, symBinAddr: 0x10000A528, symSize: 0x30 }
  - { offsetInCU: 0x204B6, offset: 0x204B6, size: 0x8, addend: 0x0, symName: __ZNSt3__116reverse_iteratorIPNS_6vectorIjNS_9allocatorIjEEEEEmmB7v160006Ev, symObjAddr: 0x607C, symBinAddr: 0x10000A558, symSize: 0x20 }
  - { offsetInCU: 0x204DC, offset: 0x204DC, size: 0x8, addend: 0x0, symName: __ZNSt3__116reverse_iteratorINS0_IPNS_6vectorIjNS_9allocatorIjEEEEEEEC2B7v160006ES6_, symObjAddr: 0x609C, symBinAddr: 0x10000A578, symSize: 0x2C }
  - { offsetInCU: 0x20514, offset: 0x20514, size: 0x8, addend: 0x0, symName: __ZNSt3__116reverse_iteratorIPNS_6vectorIjNS_9allocatorIjEEEEEC2B7v160006ES5_, symObjAddr: 0x60C8, symBinAddr: 0x10000A5A4, symSize: 0x28 }
  - { offsetInCU: 0x2054C, offset: 0x2054C, size: 0x8, addend: 0x0, symName: __ZNSt3__114__split_bufferINS_6vectorIjNS_9allocatorIjEEEERNS2_IS4_EEED2Ev, symObjAddr: 0x60F0, symBinAddr: 0x10000A5CC, symSize: 0x8C }
  - { offsetInCU: 0x20578, offset: 0x20578, size: 0x8, addend: 0x0, symName: __ZNSt3__114__split_bufferINS_6vectorIjNS_9allocatorIjEEEERNS2_IS4_EEE5clearB7v160006Ev, symObjAddr: 0x617C, symBinAddr: 0x10000A658, symSize: 0x28 }
  - { offsetInCU: 0x2059E, offset: 0x2059E, size: 0x8, addend: 0x0, symName: __ZNSt3__116allocator_traitsINS_9allocatorINS_6vectorIjNS1_IjEEEEEEE10deallocateB7v160006ERS5_PS4_m, symObjAddr: 0x61A4, symBinAddr: 0x10000A680, symSize: 0x34 }
  - { offsetInCU: 0x205E0, offset: 0x205E0, size: 0x8, addend: 0x0, symName: __ZNKSt3__114__split_bufferINS_6vectorIjNS_9allocatorIjEEEERNS2_IS4_EEE8capacityB7v160006Ev, symObjAddr: 0x61D8, symBinAddr: 0x10000A6B4, symSize: 0x40 }
  - { offsetInCU: 0x20606, offset: 0x20606, size: 0x8, addend: 0x0, symName: __ZNSt3__114__split_bufferINS_6vectorIjNS_9allocatorIjEEEERNS2_IS4_EEE17__destruct_at_endB7v160006EPS4_, symObjAddr: 0x6218, symBinAddr: 0x10000A6F4, symSize: 0x2C }
  - { offsetInCU: 0x2063A, offset: 0x2063A, size: 0x8, addend: 0x0, symName: __ZNSt3__114__split_bufferINS_6vectorIjNS_9allocatorIjEEEERNS2_IS4_EEE17__destruct_at_endB7v160006EPS4_NS_17integral_constantIbLb0EEE, symObjAddr: 0x6244, symBinAddr: 0x10000A720, symSize: 0x80 }
  - { offsetInCU: 0x2067A, offset: 0x2067A, size: 0x8, addend: 0x0, symName: __ZNSt3__19allocatorINS_6vectorIjNS0_IjEEEEE10deallocateB7v160006EPS3_m, symObjAddr: 0x62C4, symBinAddr: 0x10000A7A0, symSize: 0x44 }
  - { offsetInCU: 0x206BC, offset: 0x206BC, size: 0x8, addend: 0x0, symName: __ZNKSt3__114__split_bufferINS_6vectorIjNS_9allocatorIjEEEERNS2_IS4_EEE9__end_capB7v160006Ev, symObjAddr: 0x6308, symBinAddr: 0x10000A7E4, symSize: 0x28 }
  - { offsetInCU: 0x206E2, offset: 0x206E2, size: 0x8, addend: 0x0, symName: __ZNKSt3__117__compressed_pairIPNS_6vectorIjNS_9allocatorIjEEEERNS2_IS4_EEE5firstB7v160006Ev, symObjAddr: 0x6330, symBinAddr: 0x10000A80C, symSize: 0x24 }
  - { offsetInCU: 0x20708, offset: 0x20708, size: 0x8, addend: 0x0, symName: __ZNSt3__16vectorIjNS_9allocatorIjEEEC2EmRKj, symObjAddr: 0x6354, symBinAddr: 0x10000A830, symSize: 0xE4 }
  - { offsetInCU: 0x20767, offset: 0x20767, size: 0x8, addend: 0x0, symName: __ZNSt3__117__compressed_pairIPjNS_9allocatorIjEEEC1B7v160006IDnNS_18__default_init_tagEEEOT_OT0_, symObjAddr: 0x6438, symBinAddr: 0x10000A914, symSize: 0x3C }
  - { offsetInCU: 0x207BF, offset: 0x207BF, size: 0x8, addend: 0x0, symName: __ZNSt3__16vectorIjNS_9allocatorIjEEE16__destroy_vectorC1ERS3_, symObjAddr: 0x64B4, symBinAddr: 0x10000A990, symSize: 0x34 }
  - { offsetInCU: 0x207F8, offset: 0x207F8, size: 0x8, addend: 0x0, symName: __ZNSt3__16vectorIjNS_9allocatorIjEEE11__vallocateB7v160006Em, symObjAddr: 0x64E8, symBinAddr: 0x10000A9C4, symSize: 0xAC }
  - { offsetInCU: 0x2083C, offset: 0x2083C, size: 0x8, addend: 0x0, symName: __ZNSt3__16vectorIjNS_9allocatorIjEEE18__construct_at_endEmRKj, symObjAddr: 0x6594, symBinAddr: 0x10000AA70, symSize: 0xD0 }
  - { offsetInCU: 0x208BD, offset: 0x208BD, size: 0x8, addend: 0x0, symName: __ZNSt3__128__exception_guard_exceptionsINS_6vectorIjNS_9allocatorIjEEE16__destroy_vectorEE10__completeB7v160006Ev, symObjAddr: 0x6664, symBinAddr: 0x10000AB40, symSize: 0x1C }
  - { offsetInCU: 0x208E3, offset: 0x208E3, size: 0x8, addend: 0x0, symName: __ZNSt3__128__exception_guard_exceptionsINS_6vectorIjNS_9allocatorIjEEE16__destroy_vectorEED1B7v160006Ev, symObjAddr: 0x6680, symBinAddr: 0x10000AB5C, symSize: 0x2C }
  - { offsetInCU: 0x2090D, offset: 0x2090D, size: 0x8, addend: 0x0, symName: __ZNSt3__117__compressed_pairIPjNS_9allocatorIjEEEC2B7v160006IDnNS_18__default_init_tagEEEOT_OT0_, symObjAddr: 0x66AC, symBinAddr: 0x10000AB88, symSize: 0x40 }
  - { offsetInCU: 0x20965, offset: 0x20965, size: 0x8, addend: 0x0, symName: __ZNSt3__122__compressed_pair_elemINS_9allocatorIjEELi1ELb1EEC2B7v160006ENS_18__default_init_tagE, symObjAddr: 0x66EC, symBinAddr: 0x10000ABC8, symSize: 0x2C }
  - { offsetInCU: 0x20999, offset: 0x20999, size: 0x8, addend: 0x0, symName: __ZNSt3__19allocatorIjEC2B7v160006Ev, symObjAddr: 0x6718, symBinAddr: 0x10000ABF4, symSize: 0x2C }
  - { offsetInCU: 0x209C3, offset: 0x209C3, size: 0x8, addend: 0x0, symName: __ZNSt3__116__non_trivial_ifILb1ENS_9allocatorIjEEEC2B7v160006Ev, symObjAddr: 0x6744, symBinAddr: 0x10000AC20, symSize: 0x14 }
  - { offsetInCU: 0x209ED, offset: 0x209ED, size: 0x8, addend: 0x0, symName: __ZNSt3__128__exception_guard_exceptionsINS_6vectorIjNS_9allocatorIjEEE16__destroy_vectorEEC1B7v160006ES5_, symObjAddr: 0x6758, symBinAddr: 0x10000AC34, symSize: 0x34 }
  - { offsetInCU: 0x20A25, offset: 0x20A25, size: 0x8, addend: 0x0, symName: __ZNSt3__128__exception_guard_exceptionsINS_6vectorIjNS_9allocatorIjEEE16__destroy_vectorEEC2B7v160006ES5_, symObjAddr: 0x678C, symBinAddr: 0x10000AC68, symSize: 0x24 }
  - { offsetInCU: 0x20A5D, offset: 0x20A5D, size: 0x8, addend: 0x0, symName: __ZNSt3__16vectorIjNS_9allocatorIjEEE16__destroy_vectorC2ERS3_, symObjAddr: 0x67B0, symBinAddr: 0x10000AC8C, symSize: 0x20 }
  - { offsetInCU: 0x20A96, offset: 0x20A96, size: 0x8, addend: 0x0, symName: __ZNKSt3__16vectorIjNS_9allocatorIjEEE8max_sizeEv, symObjAddr: 0x67D0, symBinAddr: 0x10000ACAC, symSize: 0x60 }
  - { offsetInCU: 0x20ABE, offset: 0x20ABE, size: 0x8, addend: 0x0, symName: __ZNKSt3__16vectorIjNS_9allocatorIjEEE20__throw_length_errorB7v160006Ev, symObjAddr: 0x6830, symBinAddr: 0x10000AD0C, symSize: 0x1C }
  - { offsetInCU: 0x20AE4, offset: 0x20AE4, size: 0x8, addend: 0x0, symName: __ZNKSt3__16vectorIjNS_9allocatorIjEEE14__annotate_newB7v160006Em, symObjAddr: 0x688C, symBinAddr: 0x10000AD68, symSize: 0xAC }
  - { offsetInCU: 0x20B24, offset: 0x20B24, size: 0x8, addend: 0x0, symName: __ZNSt3__116allocator_traitsINS_9allocatorIjEEE8max_sizeB7v160006IS2_vvEEmRKS2_, symObjAddr: 0x6938, symBinAddr: 0x10000AE14, symSize: 0x28 }
  - { offsetInCU: 0x20B50, offset: 0x20B50, size: 0x8, addend: 0x0, symName: __ZNKSt3__16vectorIjNS_9allocatorIjEEE7__allocB7v160006Ev, symObjAddr: 0x6960, symBinAddr: 0x10000AE3C, symSize: 0x28 }
  - { offsetInCU: 0x20B76, offset: 0x20B76, size: 0x8, addend: 0x0, symName: __ZNKSt3__117__compressed_pairIPjNS_9allocatorIjEEE6secondB7v160006Ev, symObjAddr: 0x6988, symBinAddr: 0x10000AE64, symSize: 0x24 }
  - { offsetInCU: 0x20B9C, offset: 0x20B9C, size: 0x8, addend: 0x0, symName: __ZNKSt3__122__compressed_pair_elemINS_9allocatorIjEELi1ELb1EE5__getB7v160006Ev, symObjAddr: 0x69AC, symBinAddr: 0x10000AE88, symSize: 0x14 }
  - { offsetInCU: 0x20BC2, offset: 0x20BC2, size: 0x8, addend: 0x0, symName: __ZNSt3__19allocatorIjE8allocateB7v160006Em, symObjAddr: 0x69C0, symBinAddr: 0x10000AE9C, symSize: 0x58 }
  - { offsetInCU: 0x20BF6, offset: 0x20BF6, size: 0x8, addend: 0x0, symName: __ZNKSt3__16vectorIjNS_9allocatorIjEEE31__annotate_contiguous_containerB7v160006EPKvS5_S5_S5_, symObjAddr: 0x6A18, symBinAddr: 0x10000AEF4, symSize: 0x20 }
  - { offsetInCU: 0x20C4C, offset: 0x20C4C, size: 0x8, addend: 0x0, symName: __ZNKSt3__16vectorIjNS_9allocatorIjEEE4dataB7v160006Ev, symObjAddr: 0x6A38, symBinAddr: 0x10000AF14, symSize: 0x28 }
  - { offsetInCU: 0x20C72, offset: 0x20C72, size: 0x8, addend: 0x0, symName: __ZNKSt3__16vectorIjNS_9allocatorIjEEE8capacityB7v160006Ev, symObjAddr: 0x6A60, symBinAddr: 0x10000AF3C, symSize: 0x40 }
  - { offsetInCU: 0x20C98, offset: 0x20C98, size: 0x8, addend: 0x0, symName: __ZNKSt3__16vectorIjNS_9allocatorIjEEE9__end_capB7v160006Ev, symObjAddr: 0x6AB4, symBinAddr: 0x10000AF90, symSize: 0x28 }
  - { offsetInCU: 0x20CBE, offset: 0x20CBE, size: 0x8, addend: 0x0, symName: __ZNKSt3__117__compressed_pairIPjNS_9allocatorIjEEE5firstB7v160006Ev, symObjAddr: 0x6ADC, symBinAddr: 0x10000AFB8, symSize: 0x24 }
  - { offsetInCU: 0x20CE4, offset: 0x20CE4, size: 0x8, addend: 0x0, symName: __ZNKSt3__122__compressed_pair_elemIPjLi0ELb0EE5__getB7v160006Ev, symObjAddr: 0x6B00, symBinAddr: 0x10000AFDC, symSize: 0x14 }
  - { offsetInCU: 0x20D25, offset: 0x20D25, size: 0x8, addend: 0x0, symName: __ZNSt3__16vectorIjNS_9allocatorIjEEE21_ConstructTransactionC1B7v160006ERS3_m, symObjAddr: 0x6B14, symBinAddr: 0x10000AFF0, symSize: 0x3C }
  - { offsetInCU: 0x20D73, offset: 0x20D73, size: 0x8, addend: 0x0, symName: __ZNSt3__116allocator_traitsINS_9allocatorIjEEE9constructB7v160006IjJRKjEvvEEvRS2_PT_DpOT0_, symObjAddr: 0x6B50, symBinAddr: 0x10000B02C, symSize: 0x30 }
  - { offsetInCU: 0x20DC8, offset: 0x20DC8, size: 0x8, addend: 0x0, symName: __ZNSt3__16vectorIjNS_9allocatorIjEEE21_ConstructTransactionD1B7v160006Ev, symObjAddr: 0x6B80, symBinAddr: 0x10000B05C, symSize: 0x2C }
  - { offsetInCU: 0x20DF2, offset: 0x20DF2, size: 0x8, addend: 0x0, symName: __ZNSt3__16vectorIjNS_9allocatorIjEEE21_ConstructTransactionC2B7v160006ERS3_m, symObjAddr: 0x6BAC, symBinAddr: 0x10000B088, symSize: 0x44 }
  - { offsetInCU: 0x20E3A, offset: 0x20E3A, size: 0x8, addend: 0x0, symName: __ZNSt3__16vectorIjNS_9allocatorIjEEE21_ConstructTransactionD2B7v160006Ev, symObjAddr: 0x6C1C, symBinAddr: 0x10000B0F8, symSize: 0x20 }
  - { offsetInCU: 0x20E64, offset: 0x20E64, size: 0x8, addend: 0x0, symName: __ZNSt3__128__exception_guard_exceptionsINS_6vectorIjNS_9allocatorIjEEE16__destroy_vectorEED2B7v160006Ev, symObjAddr: 0x6C3C, symBinAddr: 0x10000B118, symSize: 0x50 }
  - { offsetInCU: 0x20E8E, offset: 0x20E8E, size: 0x8, addend: 0x0, symName: __ZNSt3__16vectorIjNS_9allocatorIjEEE16__destroy_vectorclB7v160006Ev, symObjAddr: 0x6C8C, symBinAddr: 0x10000B168, symSize: 0x9C }
  - { offsetInCU: 0x20EB4, offset: 0x20EB4, size: 0x8, addend: 0x0, symName: __ZNKSt3__16vectorIjNS_9allocatorIjEEE17__annotate_deleteB7v160006Ev, symObjAddr: 0x6D28, symBinAddr: 0x10000B204, symSize: 0xB8 }
  - { offsetInCU: 0x20EDA, offset: 0x20EDA, size: 0x8, addend: 0x0, symName: __ZNSt3__16vectorIjNS_9allocatorIjEEE7__clearB7v160006Ev, symObjAddr: 0x6DF0, symBinAddr: 0x10000B2CC, symSize: 0x28 }
  - { offsetInCU: 0x20F00, offset: 0x20F00, size: 0x8, addend: 0x0, symName: __ZNSt3__116allocator_traitsINS_9allocatorIjEEE10deallocateB7v160006ERS2_Pjm, symObjAddr: 0x6E18, symBinAddr: 0x10000B2F4, symSize: 0x34 }
  - { offsetInCU: 0x20F42, offset: 0x20F42, size: 0x8, addend: 0x0, symName: __ZNSt3__16vectorIjNS_9allocatorIjEEE22__base_destruct_at_endB7v160006EPj, symObjAddr: 0x6E4C, symBinAddr: 0x10000B328, symSize: 0x8C }
  - { offsetInCU: 0x20F86, offset: 0x20F86, size: 0x8, addend: 0x0, symName: __ZNSt3__116allocator_traitsINS_9allocatorIjEEE7destroyB7v160006IjvvEEvRS2_PT_, symObjAddr: 0x6ED8, symBinAddr: 0x10000B3B4, symSize: 0x28 }
  - { offsetInCU: 0x20FC1, offset: 0x20FC1, size: 0x8, addend: 0x0, symName: __ZNSt3__19allocatorIjE10deallocateB7v160006EPjm, symObjAddr: 0x6F34, symBinAddr: 0x10000B410, symSize: 0x40 }
  - { offsetInCU: 0x21003, offset: 0x21003, size: 0x8, addend: 0x0, symName: __ZNSt3__16vectorIjNS_9allocatorIjEEED2B7v160006Ev, symObjAddr: 0x6F74, symBinAddr: 0x10000B450, symSize: 0x44 }
  - { offsetInCU: 0x2102D, offset: 0x2102D, size: 0x8, addend: 0x0, symName: __ZNSt3__16vectorINS0_IbNS_9allocatorIbEEEENS1_IS3_EEE9__end_capB7v160006Ev, symObjAddr: 0x6FB8, symBinAddr: 0x10000B494, symSize: 0x28 }
  - { offsetInCU: 0x21053, offset: 0x21053, size: 0x8, addend: 0x0, symName: __ZNSt3__16vectorINS0_IbNS_9allocatorIbEEEENS1_IS3_EEE22__construct_one_at_endB7v160006IJS3_EEEvDpOT_, symObjAddr: 0x6FE0, symBinAddr: 0x10000B4BC, symSize: 0x90 }
  - { offsetInCU: 0x210A2, offset: 0x210A2, size: 0x8, addend: 0x0, symName: __ZNSt3__16vectorINS0_IbNS_9allocatorIbEEEENS1_IS3_EEE21__push_back_slow_pathIS3_EEvOT_, symObjAddr: 0x7070, symBinAddr: 0x10000B54C, symSize: 0xD8 }
  - { offsetInCU: 0x21100, offset: 0x21100, size: 0x8, addend: 0x0, symName: __ZNSt3__117__compressed_pairIPNS_6vectorIbNS_9allocatorIbEEEENS2_IS4_EEE5firstB7v160006Ev, symObjAddr: 0x7148, symBinAddr: 0x10000B624, symSize: 0x24 }
  - { offsetInCU: 0x21126, offset: 0x21126, size: 0x8, addend: 0x0, symName: __ZNSt3__122__compressed_pair_elemIPNS_6vectorIbNS_9allocatorIbEEEELi0ELb0EE5__getB7v160006Ev, symObjAddr: 0x716C, symBinAddr: 0x10000B648, symSize: 0x14 }
  - { offsetInCU: 0x21167, offset: 0x21167, size: 0x8, addend: 0x0, symName: __ZNSt3__16vectorINS0_IbNS_9allocatorIbEEEENS1_IS3_EEE21_ConstructTransactionC1B7v160006ERS5_m, symObjAddr: 0x7180, symBinAddr: 0x10000B65C, symSize: 0x3C }
  - { offsetInCU: 0x211AF, offset: 0x211AF, size: 0x8, addend: 0x0, symName: __ZNSt3__116allocator_traitsINS_9allocatorINS_6vectorIbNS1_IbEEEEEEE9constructB7v160006IS4_JS4_EvvEEvRS5_PT_DpOT0_, symObjAddr: 0x71BC, symBinAddr: 0x10000B698, symSize: 0x30 }
  - { offsetInCU: 0x21204, offset: 0x21204, size: 0x8, addend: 0x0, symName: __ZNSt3__16vectorINS0_IbNS_9allocatorIbEEEENS1_IS3_EEE7__allocB7v160006Ev, symObjAddr: 0x71EC, symBinAddr: 0x10000B6C8, symSize: 0x28 }
  - { offsetInCU: 0x2122A, offset: 0x2122A, size: 0x8, addend: 0x0, symName: __ZNSt3__16vectorINS0_IbNS_9allocatorIbEEEENS1_IS3_EEE21_ConstructTransactionD1B7v160006Ev, symObjAddr: 0x7228, symBinAddr: 0x10000B704, symSize: 0x2C }
  - { offsetInCU: 0x21254, offset: 0x21254, size: 0x8, addend: 0x0, symName: __ZNSt3__16vectorINS0_IbNS_9allocatorIbEEEENS1_IS3_EEE21_ConstructTransactionC2B7v160006ERS5_m, symObjAddr: 0x7254, symBinAddr: 0x10000B730, symSize: 0x4C }
  - { offsetInCU: 0x2129C, offset: 0x2129C, size: 0x8, addend: 0x0, symName: __ZNSt3__16vectorIbNS_9allocatorIbEEEC1B7v160006EOS3_, symObjAddr: 0x72DC, symBinAddr: 0x10000B7B8, symSize: 0x34 }
  - { offsetInCU: 0x212D7, offset: 0x212D7, size: 0x8, addend: 0x0, symName: __ZNSt3__16vectorIbNS_9allocatorIbEEEC2B7v160006EOS3_, symObjAddr: 0x7310, symBinAddr: 0x10000B7EC, symSize: 0x70 }
  - { offsetInCU: 0x21312, offset: 0x21312, size: 0x8, addend: 0x0, symName: __ZNSt3__16vectorIbNS_9allocatorIbEEE5__capB7v160006Ev, symObjAddr: 0x7380, symBinAddr: 0x10000B85C, symSize: 0x28 }
  - { offsetInCU: 0x21338, offset: 0x21338, size: 0x8, addend: 0x0, symName: __ZNSt3__117__compressed_pairImNS_9allocatorImEEE5firstB7v160006Ev, symObjAddr: 0x73A8, symBinAddr: 0x10000B884, symSize: 0x24 }
  - { offsetInCU: 0x2135E, offset: 0x2135E, size: 0x8, addend: 0x0, symName: __ZNSt3__122__compressed_pair_elemImLi0ELb0EE5__getB7v160006Ev, symObjAddr: 0x73CC, symBinAddr: 0x10000B8A8, symSize: 0x14 }
  - { offsetInCU: 0x21384, offset: 0x21384, size: 0x8, addend: 0x0, symName: __ZNSt3__117__compressed_pairIPNS_6vectorIbNS_9allocatorIbEEEENS2_IS4_EEE6secondB7v160006Ev, symObjAddr: 0x73E0, symBinAddr: 0x10000B8BC, symSize: 0x24 }
  - { offsetInCU: 0x213AA, offset: 0x213AA, size: 0x8, addend: 0x0, symName: __ZNSt3__122__compressed_pair_elemINS_9allocatorINS_6vectorIbNS1_IbEEEEEELi1ELb1EE5__getB7v160006Ev, symObjAddr: 0x7404, symBinAddr: 0x10000B8E0, symSize: 0x14 }
  - { offsetInCU: 0x213D0, offset: 0x213D0, size: 0x8, addend: 0x0, symName: __ZNSt3__16vectorINS0_IbNS_9allocatorIbEEEENS1_IS3_EEE21_ConstructTransactionD2B7v160006Ev, symObjAddr: 0x7418, symBinAddr: 0x10000B8F4, symSize: 0x20 }
  - { offsetInCU: 0x213FA, offset: 0x213FA, size: 0x8, addend: 0x0, symName: __ZNKSt3__16vectorINS0_IbNS_9allocatorIbEEEENS1_IS3_EEE11__recommendB7v160006Em, symObjAddr: 0x7438, symBinAddr: 0x10000B914, symSize: 0xB4 }
  - { offsetInCU: 0x2144F, offset: 0x2144F, size: 0x8, addend: 0x0, symName: __ZNSt3__114__split_bufferINS_6vectorIbNS_9allocatorIbEEEERNS2_IS4_EEEC1EmmS6_, symObjAddr: 0x74EC, symBinAddr: 0x10000B9C8, symSize: 0x44 }
  - { offsetInCU: 0x214A5, offset: 0x214A5, size: 0x8, addend: 0x0, symName: __ZNSt3__114__split_bufferINS_6vectorIbNS_9allocatorIbEEEERNS2_IS4_EEED1Ev, symObjAddr: 0x7648, symBinAddr: 0x10000BB24, symSize: 0x2C }
  - { offsetInCU: 0x214D1, offset: 0x214D1, size: 0x8, addend: 0x0, symName: __ZNKSt3__16vectorINS0_IbNS_9allocatorIbEEEENS1_IS3_EEE8max_sizeEv, symObjAddr: 0x7674, symBinAddr: 0x10000BB50, symSize: 0x60 }
  - { offsetInCU: 0x214F9, offset: 0x214F9, size: 0x8, addend: 0x0, symName: __ZNKSt3__16vectorINS0_IbNS_9allocatorIbEEEENS1_IS3_EEE20__throw_length_errorB7v160006Ev, symObjAddr: 0x76D4, symBinAddr: 0x10000BBB0, symSize: 0x1C }
  - { offsetInCU: 0x2151F, offset: 0x2151F, size: 0x8, addend: 0x0, symName: __ZNKSt3__16vectorINS0_IbNS_9allocatorIbEEEENS1_IS3_EEE8capacityB7v160006Ev, symObjAddr: 0x76F0, symBinAddr: 0x10000BBCC, symSize: 0x40 }
  - { offsetInCU: 0x21550, offset: 0x21550, size: 0x8, addend: 0x0, symName: __ZNSt3__116allocator_traitsINS_9allocatorINS_6vectorIbNS1_IbEEEEEEE8max_sizeB7v160006IS5_vvEEmRKS5_, symObjAddr: 0x7730, symBinAddr: 0x10000BC0C, symSize: 0x28 }
  - { offsetInCU: 0x2157C, offset: 0x2157C, size: 0x8, addend: 0x0, symName: __ZNKSt3__16vectorINS0_IbNS_9allocatorIbEEEENS1_IS3_EEE7__allocB7v160006Ev, symObjAddr: 0x7758, symBinAddr: 0x10000BC34, symSize: 0x28 }
  - { offsetInCU: 0x215A2, offset: 0x215A2, size: 0x8, addend: 0x0, symName: __ZNKSt3__117__compressed_pairIPNS_6vectorIbNS_9allocatorIbEEEENS2_IS4_EEE6secondB7v160006Ev, symObjAddr: 0x7780, symBinAddr: 0x10000BC5C, symSize: 0x24 }
  - { offsetInCU: 0x215C8, offset: 0x215C8, size: 0x8, addend: 0x0, symName: __ZNKSt3__122__compressed_pair_elemINS_9allocatorINS_6vectorIbNS1_IbEEEEEELi1ELb1EE5__getB7v160006Ev, symObjAddr: 0x77A4, symBinAddr: 0x10000BC80, symSize: 0x14 }
  - { offsetInCU: 0x215EE, offset: 0x215EE, size: 0x8, addend: 0x0, symName: __ZNKSt3__16vectorINS0_IbNS_9allocatorIbEEEENS1_IS3_EEE9__end_capB7v160006Ev, symObjAddr: 0x77B8, symBinAddr: 0x10000BC94, symSize: 0x28 }
  - { offsetInCU: 0x21614, offset: 0x21614, size: 0x8, addend: 0x0, symName: __ZNKSt3__117__compressed_pairIPNS_6vectorIbNS_9allocatorIbEEEENS2_IS4_EEE5firstB7v160006Ev, symObjAddr: 0x77E0, symBinAddr: 0x10000BCBC, symSize: 0x24 }
  - { offsetInCU: 0x2163A, offset: 0x2163A, size: 0x8, addend: 0x0, symName: __ZNKSt3__122__compressed_pair_elemIPNS_6vectorIbNS_9allocatorIbEEEELi0ELb0EE5__getB7v160006Ev, symObjAddr: 0x7804, symBinAddr: 0x10000BCE0, symSize: 0x14 }
  - { offsetInCU: 0x21660, offset: 0x21660, size: 0x8, addend: 0x0, symName: __ZNSt3__114__split_bufferINS_6vectorIbNS_9allocatorIbEEEERNS2_IS4_EEEC2EmmS6_, symObjAddr: 0x7818, symBinAddr: 0x10000BCF4, symSize: 0xE0 }
  - { offsetInCU: 0x216D3, offset: 0x216D3, size: 0x8, addend: 0x0, symName: __ZNSt3__117__compressed_pairIPNS_6vectorIbNS_9allocatorIbEEEERNS2_IS4_EEEC1B7v160006IDnS7_EEOT_OT0_, symObjAddr: 0x78F8, symBinAddr: 0x10000BDD4, symSize: 0x3C }
  - { offsetInCU: 0x2172B, offset: 0x2172B, size: 0x8, addend: 0x0, symName: __ZNSt3__114__split_bufferINS_6vectorIbNS_9allocatorIbEEEERNS2_IS4_EEE7__allocB7v160006Ev, symObjAddr: 0x7974, symBinAddr: 0x10000BE50, symSize: 0x28 }
  - { offsetInCU: 0x21751, offset: 0x21751, size: 0x8, addend: 0x0, symName: __ZNSt3__114__split_bufferINS_6vectorIbNS_9allocatorIbEEEERNS2_IS4_EEE9__end_capB7v160006Ev, symObjAddr: 0x799C, symBinAddr: 0x10000BE78, symSize: 0x28 }
  - { offsetInCU: 0x21777, offset: 0x21777, size: 0x8, addend: 0x0, symName: __ZNSt3__117__compressed_pairIPNS_6vectorIbNS_9allocatorIbEEEERNS2_IS4_EEEC2B7v160006IDnS7_EEOT_OT0_, symObjAddr: 0x79C4, symBinAddr: 0x10000BEA0, symSize: 0x48 }
  - { offsetInCU: 0x217CF, offset: 0x217CF, size: 0x8, addend: 0x0, symName: __ZNSt3__122__compressed_pair_elemIRNS_9allocatorINS_6vectorIbNS1_IbEEEEEELi1ELb0EEC2B7v160006IS6_vEEOT_, symObjAddr: 0x7A0C, symBinAddr: 0x10000BEE8, symSize: 0x20 }
  - { offsetInCU: 0x21811, offset: 0x21811, size: 0x8, addend: 0x0, symName: __ZNSt3__19allocatorINS_6vectorIbNS0_IbEEEEE8allocateB7v160006Em, symObjAddr: 0x7A2C, symBinAddr: 0x10000BF08, symSize: 0x5C }
  - { offsetInCU: 0x21845, offset: 0x21845, size: 0x8, addend: 0x0, symName: __ZNSt3__117__compressed_pairIPNS_6vectorIbNS_9allocatorIbEEEERNS2_IS4_EEE6secondB7v160006Ev, symObjAddr: 0x7A88, symBinAddr: 0x10000BF64, symSize: 0x28 }
  - { offsetInCU: 0x2186B, offset: 0x2186B, size: 0x8, addend: 0x0, symName: __ZNSt3__122__compressed_pair_elemIRNS_9allocatorINS_6vectorIbNS1_IbEEEEEELi1ELb0EE5__getB7v160006Ev, symObjAddr: 0x7AB0, symBinAddr: 0x10000BF8C, symSize: 0x18 }
  - { offsetInCU: 0x21891, offset: 0x21891, size: 0x8, addend: 0x0, symName: __ZNSt3__117__compressed_pairIPNS_6vectorIbNS_9allocatorIbEEEERNS2_IS4_EEE5firstB7v160006Ev, symObjAddr: 0x7AC8, symBinAddr: 0x10000BFA4, symSize: 0x24 }
  - { offsetInCU: 0x218B7, offset: 0x218B7, size: 0x8, addend: 0x0, symName: __ZNKSt3__16vectorINS0_IbNS_9allocatorIbEEEENS1_IS3_EEE17__annotate_deleteB7v160006Ev, symObjAddr: 0x7AEC, symBinAddr: 0x10000BFC8, symSize: 0xD4 }
  - { offsetInCU: 0x218DD, offset: 0x218DD, size: 0x8, addend: 0x0, symName: __ZNSt3__116reverse_iteratorIPNS_6vectorIbNS_9allocatorIbEEEEEC1B7v160006ES5_, symObjAddr: 0x7CEC, symBinAddr: 0x10000C1C8, symSize: 0x34 }
  - { offsetInCU: 0x21915, offset: 0x21915, size: 0x8, addend: 0x0, symName: __ZNKSt3__116reverse_iteratorIPNS_6vectorIbNS_9allocatorIbEEEEE4baseB7v160006Ev, symObjAddr: 0x7D20, symBinAddr: 0x10000C1FC, symSize: 0x18 }
  - { offsetInCU: 0x2193B, offset: 0x2193B, size: 0x8, addend: 0x0, symName: __ZNKSt3__16vectorINS0_IbNS_9allocatorIbEEEENS1_IS3_EEE14__annotate_newB7v160006Em, symObjAddr: 0x7D74, symBinAddr: 0x10000C250, symSize: 0xC8 }
  - { offsetInCU: 0x21970, offset: 0x21970, size: 0x8, addend: 0x0, symName: __ZNKSt3__16vectorINS0_IbNS_9allocatorIbEEEENS1_IS3_EEE31__annotate_contiguous_containerB7v160006EPKvS7_S7_S7_, symObjAddr: 0x7E4C, symBinAddr: 0x10000C328, symSize: 0x20 }
  - { offsetInCU: 0x219C6, offset: 0x219C6, size: 0x8, addend: 0x0, symName: __ZNKSt3__16vectorINS0_IbNS_9allocatorIbEEEENS1_IS3_EEE4dataB7v160006Ev, symObjAddr: 0x7E6C, symBinAddr: 0x10000C348, symSize: 0x28 }
  - { offsetInCU: 0x219EC, offset: 0x219EC, size: 0x8, addend: 0x0, symName: __ZNSt3__129_AllocatorDestroyRangeReverseINS_9allocatorINS_6vectorIbNS1_IbEEEEEENS_16reverse_iteratorIPS4_EEEC1B7v160006ERS5_RS8_SB_, symObjAddr: 0x7EE0, symBinAddr: 0x10000C3BC, symSize: 0x44 }
  - { offsetInCU: 0x21A43, offset: 0x21A43, size: 0x8, addend: 0x0, symName: __ZNKSt3__116reverse_iteratorIPNS_6vectorIbNS_9allocatorIbEEEEEdeB7v160006Ev, symObjAddr: 0x7F90, symBinAddr: 0x10000C46C, symSize: 0x28 }
  - { offsetInCU: 0x21A77, offset: 0x21A77, size: 0x8, addend: 0x0, symName: __ZNSt3__116reverse_iteratorIPNS_6vectorIbNS_9allocatorIbEEEEEppB7v160006Ev, symObjAddr: 0x7FB8, symBinAddr: 0x10000C494, symSize: 0x20 }
  - { offsetInCU: 0x21A9D, offset: 0x21A9D, size: 0x8, addend: 0x0, symName: __ZNSt3__128__exception_guard_exceptionsINS_29_AllocatorDestroyRangeReverseINS_9allocatorINS_6vectorIbNS2_IbEEEEEENS_16reverse_iteratorIPS5_EEEEE10__completeB7v160006Ev, symObjAddr: 0x7FD8, symBinAddr: 0x10000C4B4, symSize: 0x1C }
  - { offsetInCU: 0x21AC3, offset: 0x21AC3, size: 0x8, addend: 0x0, symName: __ZNSt3__128__exception_guard_exceptionsINS_29_AllocatorDestroyRangeReverseINS_9allocatorINS_6vectorIbNS2_IbEEEEEENS_16reverse_iteratorIPS5_EEEEED1B7v160006Ev, symObjAddr: 0x7FF4, symBinAddr: 0x10000C4D0, symSize: 0x2C }
  - { offsetInCU: 0x21AED, offset: 0x21AED, size: 0x8, addend: 0x0, symName: __ZNSt3__128__exception_guard_exceptionsINS_29_AllocatorDestroyRangeReverseINS_9allocatorINS_6vectorIbNS2_IbEEEEEENS_16reverse_iteratorIPS5_EEEEEC1B7v160006ESA_, symObjAddr: 0x8020, symBinAddr: 0x10000C4FC, symSize: 0x34 }
  - { offsetInCU: 0x21B26, offset: 0x21B26, size: 0x8, addend: 0x0, symName: __ZNSt3__128__exception_guard_exceptionsINS_29_AllocatorDestroyRangeReverseINS_9allocatorINS_6vectorIbNS2_IbEEEEEENS_16reverse_iteratorIPS5_EEEEEC2B7v160006ESA_, symObjAddr: 0x8054, symBinAddr: 0x10000C530, symSize: 0x30 }
  - { offsetInCU: 0x21B5F, offset: 0x21B5F, size: 0x8, addend: 0x0, symName: __ZNSt3__129_AllocatorDestroyRangeReverseINS_9allocatorINS_6vectorIbNS1_IbEEEEEENS_16reverse_iteratorIPS4_EEEC2B7v160006ERS5_RS8_SB_, symObjAddr: 0x8084, symBinAddr: 0x10000C560, symSize: 0x38 }
  - { offsetInCU: 0x21BBC, offset: 0x21BBC, size: 0x8, addend: 0x0, symName: __ZNSt3__119__to_address_helperINS_16reverse_iteratorIPNS_6vectorIbNS_9allocatorIbEEEEEEvE6__callB7v160006ERKS7_, symObjAddr: 0x80BC, symBinAddr: 0x10000C598, symSize: 0x38 }
  - { offsetInCU: 0x21BDF, offset: 0x21BDF, size: 0x8, addend: 0x0, symName: __ZNKSt3__116reverse_iteratorIPNS_6vectorIbNS_9allocatorIbEEEEEptB7v160006Ev, symObjAddr: 0x80F4, symBinAddr: 0x10000C5D0, symSize: 0x2C }
  - { offsetInCU: 0x21C05, offset: 0x21C05, size: 0x8, addend: 0x0, symName: __ZNSt3__128__exception_guard_exceptionsINS_29_AllocatorDestroyRangeReverseINS_9allocatorINS_6vectorIbNS2_IbEEEEEENS_16reverse_iteratorIPS5_EEEEED2B7v160006Ev, symObjAddr: 0x81F0, symBinAddr: 0x10000C6CC, symSize: 0x50 }
  - { offsetInCU: 0x21C2F, offset: 0x21C2F, size: 0x8, addend: 0x0, symName: __ZNKSt3__129_AllocatorDestroyRangeReverseINS_9allocatorINS_6vectorIbNS1_IbEEEEEENS_16reverse_iteratorIPS4_EEEclB7v160006Ev, symObjAddr: 0x8240, symBinAddr: 0x10000C71C, symSize: 0xB4 }
  - { offsetInCU: 0x21C56, offset: 0x21C56, size: 0x8, addend: 0x0, symName: __ZNSt3__116reverse_iteratorINS0_IPNS_6vectorIbNS_9allocatorIbEEEEEEEC1B7v160006ES6_, symObjAddr: 0x8364, symBinAddr: 0x10000C840, symSize: 0x3C }
  - { offsetInCU: 0x21C8E, offset: 0x21C8E, size: 0x8, addend: 0x0, symName: __ZNSt3__116allocator_traitsINS_9allocatorINS_6vectorIbNS1_IbEEEEEEE7destroyB7v160006IS4_vvEEvRS5_PT_, symObjAddr: 0x8400, symBinAddr: 0x10000C8DC, symSize: 0x28 }
  - { offsetInCU: 0x21CC9, offset: 0x21CC9, size: 0x8, addend: 0x0, symName: __ZNSt3__116reverse_iteratorINS0_IPNS_6vectorIbNS_9allocatorIbEEEEEEEppB7v160006Ev, symObjAddr: 0x844C, symBinAddr: 0x10000C928, symSize: 0x30 }
  - { offsetInCU: 0x21CEF, offset: 0x21CEF, size: 0x8, addend: 0x0, symName: __ZNKSt3__116reverse_iteratorINS0_IPNS_6vectorIbNS_9allocatorIbEEEEEEE4baseB7v160006Ev, symObjAddr: 0x847C, symBinAddr: 0x10000C958, symSize: 0x24 }
  - { offsetInCU: 0x21D1B, offset: 0x21D1B, size: 0x8, addend: 0x0, symName: __ZNSt3__119__to_address_helperINS_16reverse_iteratorINS1_IPNS_6vectorIbNS_9allocatorIbEEEEEEEEvE6__callB7v160006ERKS8_, symObjAddr: 0x84E8, symBinAddr: 0x10000C9C4, symSize: 0x38 }
  - { offsetInCU: 0x21D3E, offset: 0x21D3E, size: 0x8, addend: 0x0, symName: __ZNKSt3__116reverse_iteratorINS0_IPNS_6vectorIbNS_9allocatorIbEEEEEEEptB7v160006Ev, symObjAddr: 0x8520, symBinAddr: 0x10000C9FC, symSize: 0x4C }
  - { offsetInCU: 0x21D64, offset: 0x21D64, size: 0x8, addend: 0x0, symName: __ZNSt3__116reverse_iteratorIPNS_6vectorIbNS_9allocatorIbEEEEEpLB7v160006El, symObjAddr: 0x8648, symBinAddr: 0x10000CB24, symSize: 0x30 }
  - { offsetInCU: 0x21D98, offset: 0x21D98, size: 0x8, addend: 0x0, symName: __ZNSt3__116reverse_iteratorIPNS_6vectorIbNS_9allocatorIbEEEEEmmB7v160006Ev, symObjAddr: 0x8678, symBinAddr: 0x10000CB54, symSize: 0x20 }
  - { offsetInCU: 0x21DBE, offset: 0x21DBE, size: 0x8, addend: 0x0, symName: __ZNSt3__116reverse_iteratorINS0_IPNS_6vectorIbNS_9allocatorIbEEEEEEEC2B7v160006ES6_, symObjAddr: 0x8698, symBinAddr: 0x10000CB74, symSize: 0x2C }
  - { offsetInCU: 0x21DF6, offset: 0x21DF6, size: 0x8, addend: 0x0, symName: __ZNSt3__116reverse_iteratorIPNS_6vectorIbNS_9allocatorIbEEEEEC2B7v160006ES5_, symObjAddr: 0x86C4, symBinAddr: 0x10000CBA0, symSize: 0x28 }
  - { offsetInCU: 0x21E2E, offset: 0x21E2E, size: 0x8, addend: 0x0, symName: __ZNSt3__114__split_bufferINS_6vectorIbNS_9allocatorIbEEEERNS2_IS4_EEED2Ev, symObjAddr: 0x86EC, symBinAddr: 0x10000CBC8, symSize: 0x8C }
  - { offsetInCU: 0x21E5A, offset: 0x21E5A, size: 0x8, addend: 0x0, symName: __ZNSt3__114__split_bufferINS_6vectorIbNS_9allocatorIbEEEERNS2_IS4_EEE5clearB7v160006Ev, symObjAddr: 0x8778, symBinAddr: 0x10000CC54, symSize: 0x28 }
  - { offsetInCU: 0x21E80, offset: 0x21E80, size: 0x8, addend: 0x0, symName: __ZNSt3__116allocator_traitsINS_9allocatorINS_6vectorIbNS1_IbEEEEEEE10deallocateB7v160006ERS5_PS4_m, symObjAddr: 0x87A0, symBinAddr: 0x10000CC7C, symSize: 0x34 }
  - { offsetInCU: 0x21EC2, offset: 0x21EC2, size: 0x8, addend: 0x0, symName: __ZNKSt3__114__split_bufferINS_6vectorIbNS_9allocatorIbEEEERNS2_IS4_EEE8capacityB7v160006Ev, symObjAddr: 0x87D4, symBinAddr: 0x10000CCB0, symSize: 0x40 }
  - { offsetInCU: 0x21EE8, offset: 0x21EE8, size: 0x8, addend: 0x0, symName: __ZNSt3__114__split_bufferINS_6vectorIbNS_9allocatorIbEEEERNS2_IS4_EEE17__destruct_at_endB7v160006EPS4_, symObjAddr: 0x8814, symBinAddr: 0x10000CCF0, symSize: 0x2C }
  - { offsetInCU: 0x21F1C, offset: 0x21F1C, size: 0x8, addend: 0x0, symName: __ZNSt3__114__split_bufferINS_6vectorIbNS_9allocatorIbEEEERNS2_IS4_EEE17__destruct_at_endB7v160006EPS4_NS_17integral_constantIbLb0EEE, symObjAddr: 0x8840, symBinAddr: 0x10000CD1C, symSize: 0x80 }
  - { offsetInCU: 0x21F5C, offset: 0x21F5C, size: 0x8, addend: 0x0, symName: __ZNSt3__19allocatorINS_6vectorIbNS0_IbEEEEE10deallocateB7v160006EPS3_m, symObjAddr: 0x88C0, symBinAddr: 0x10000CD9C, symSize: 0x44 }
  - { offsetInCU: 0x21F9E, offset: 0x21F9E, size: 0x8, addend: 0x0, symName: __ZNKSt3__114__split_bufferINS_6vectorIbNS_9allocatorIbEEEERNS2_IS4_EEE9__end_capB7v160006Ev, symObjAddr: 0x8904, symBinAddr: 0x10000CDE0, symSize: 0x28 }
  - { offsetInCU: 0x21FC4, offset: 0x21FC4, size: 0x8, addend: 0x0, symName: __ZNKSt3__117__compressed_pairIPNS_6vectorIbNS_9allocatorIbEEEERNS2_IS4_EEE5firstB7v160006Ev, symObjAddr: 0x892C, symBinAddr: 0x10000CE08, symSize: 0x24 }
  - { offsetInCU: 0x21FEA, offset: 0x21FEA, size: 0x8, addend: 0x0, symName: __ZNSt3__16vectorIbNS_9allocatorIbEEEC2EmRKb, symObjAddr: 0x8950, symBinAddr: 0x10000CE2C, symSize: 0x90 }
  - { offsetInCU: 0x2203A, offset: 0x2203A, size: 0x8, addend: 0x0, symName: __ZNSt3__117__compressed_pairImNS_9allocatorImEEEC1B7v160006IiNS_18__default_init_tagEEEOT_OT0_, symObjAddr: 0x89E0, symBinAddr: 0x10000CEBC, symSize: 0x3C }
  - { offsetInCU: 0x22092, offset: 0x22092, size: 0x8, addend: 0x0, symName: __ZNSt3__16vectorIbNS_9allocatorIbEEE11__vallocateB7v160006Em, symObjAddr: 0x8A1C, symBinAddr: 0x10000CEF8, symSize: 0xA0 }
  - { offsetInCU: 0x220D6, offset: 0x220D6, size: 0x8, addend: 0x0, symName: __ZNSt3__16vectorIbNS_9allocatorIbEEE18__construct_at_endB7v160006Emb, symObjAddr: 0x8ABC, symBinAddr: 0x10000CF98, symSize: 0x108 }
  - { offsetInCU: 0x2212B, offset: 0x2212B, size: 0x8, addend: 0x0, symName: __ZNSt3__117__compressed_pairImNS_9allocatorImEEEC2B7v160006IiNS_18__default_init_tagEEEOT_OT0_, symObjAddr: 0x8BC4, symBinAddr: 0x10000D0A0, symSize: 0x40 }
  - { offsetInCU: 0x22183, offset: 0x22183, size: 0x8, addend: 0x0, symName: __ZNSt3__122__compressed_pair_elemImLi0ELb0EEC2B7v160006IivEEOT_, symObjAddr: 0x8C04, symBinAddr: 0x10000D0E0, symSize: 0x24 }
  - { offsetInCU: 0x221C5, offset: 0x221C5, size: 0x8, addend: 0x0, symName: __ZNSt3__122__compressed_pair_elemINS_9allocatorImEELi1ELb1EEC2B7v160006ENS_18__default_init_tagE, symObjAddr: 0x8C28, symBinAddr: 0x10000D104, symSize: 0x2C }
  - { offsetInCU: 0x221F9, offset: 0x221F9, size: 0x8, addend: 0x0, symName: __ZNSt3__19allocatorImEC2B7v160006Ev, symObjAddr: 0x8C54, symBinAddr: 0x10000D130, symSize: 0x2C }
  - { offsetInCU: 0x22223, offset: 0x22223, size: 0x8, addend: 0x0, symName: __ZNSt3__116__non_trivial_ifILb1ENS_9allocatorImEEEC2B7v160006Ev, symObjAddr: 0x8C80, symBinAddr: 0x10000D15C, symSize: 0x14 }
  - { offsetInCU: 0x2224D, offset: 0x2224D, size: 0x8, addend: 0x0, symName: __ZNKSt3__16vectorIbNS_9allocatorIbEEE8max_sizeEv, symObjAddr: 0x8C94, symBinAddr: 0x10000D170, symSize: 0x7C }
  - { offsetInCU: 0x22293, offset: 0x22293, size: 0x8, addend: 0x0, symName: __ZNKSt3__16vectorIbNS_9allocatorIbEEE20__throw_length_errorB7v160006Ev, symObjAddr: 0x8D10, symBinAddr: 0x10000D1EC, symSize: 0x1C }
  - { offsetInCU: 0x222B9, offset: 0x222B9, size: 0x8, addend: 0x0, symName: __ZNSt3__16vectorIbNS_9allocatorIbEEE7__allocB7v160006Ev, symObjAddr: 0x8D6C, symBinAddr: 0x10000D248, symSize: 0x28 }
  - { offsetInCU: 0x222DF, offset: 0x222DF, size: 0x8, addend: 0x0, symName: __ZNSt3__16vectorIbNS_9allocatorIbEEE26__external_cap_to_internalB7v160006Em, symObjAddr: 0x8D94, symBinAddr: 0x10000D270, symSize: 0x24 }
  - { offsetInCU: 0x2230E, offset: 0x2230E, size: 0x8, addend: 0x0, symName: __ZNSt3__116allocator_traitsINS_9allocatorImEEE8max_sizeB7v160006IS2_vvEEmRKS2_, symObjAddr: 0x8DB8, symBinAddr: 0x10000D294, symSize: 0x28 }
  - { offsetInCU: 0x2233A, offset: 0x2233A, size: 0x8, addend: 0x0, symName: __ZNKSt3__16vectorIbNS_9allocatorIbEEE7__allocB7v160006Ev, symObjAddr: 0x8DE0, symBinAddr: 0x10000D2BC, symSize: 0x28 }
  - { offsetInCU: 0x22360, offset: 0x22360, size: 0x8, addend: 0x0, symName: __ZNSt3__16vectorIbNS_9allocatorIbEEE26__internal_cap_to_externalB7v160006Em, symObjAddr: 0x8E08, symBinAddr: 0x10000D2E4, symSize: 0x18 }
  - { offsetInCU: 0x22384, offset: 0x22384, size: 0x8, addend: 0x0, symName: __ZNKSt3__117__compressed_pairImNS_9allocatorImEEE6secondB7v160006Ev, symObjAddr: 0x8E20, symBinAddr: 0x10000D2FC, symSize: 0x24 }
  - { offsetInCU: 0x223AA, offset: 0x223AA, size: 0x8, addend: 0x0, symName: __ZNKSt3__122__compressed_pair_elemINS_9allocatorImEELi1ELb1EE5__getB7v160006Ev, symObjAddr: 0x8E44, symBinAddr: 0x10000D320, symSize: 0x14 }
  - { offsetInCU: 0x223D0, offset: 0x223D0, size: 0x8, addend: 0x0, symName: __ZNSt3__19allocatorImE8allocateB7v160006Em, symObjAddr: 0x8E58, symBinAddr: 0x10000D334, symSize: 0x58 }
  - { offsetInCU: 0x22404, offset: 0x22404, size: 0x8, addend: 0x0, symName: __ZNSt3__117__compressed_pairImNS_9allocatorImEEE6secondB7v160006Ev, symObjAddr: 0x8EB0, symBinAddr: 0x10000D38C, symSize: 0x24 }
  - { offsetInCU: 0x2242A, offset: 0x2242A, size: 0x8, addend: 0x0, symName: __ZNSt3__122__compressed_pair_elemINS_9allocatorImEELi1ELb1EE5__getB7v160006Ev, symObjAddr: 0x8ED4, symBinAddr: 0x10000D3B0, symSize: 0x14 }
  - { offsetInCU: 0x22450, offset: 0x22450, size: 0x8, addend: 0x0, symName: __ZNSt3__16vectorIbNS_9allocatorIbEEE11__make_iterB7v160006Em, symObjAddr: 0x8F7C, symBinAddr: 0x10000D458, symSize: 0x64 }
  - { offsetInCU: 0x22485, offset: 0x22485, size: 0x8, addend: 0x0, symName: __ZNSt3__114__bit_iteratorINS_6vectorIbNS_9allocatorIbEEEELb0ELm0EEC1B7v160006ERKS5_, symObjAddr: 0x9140, symBinAddr: 0x10000D61C, symSize: 0x34 }
  - { offsetInCU: 0x224BE, offset: 0x224BE, size: 0x8, addend: 0x0, symName: __ZNSt3__114__bit_iteratorINS_6vectorIbNS_9allocatorIbEEEELb0ELm0EEC2B7v160006ERKS5_, symObjAddr: 0x93A0, symBinAddr: 0x10000D87C, symSize: 0x30 }
  - { offsetInCU: 0x224F7, offset: 0x224F7, size: 0x8, addend: 0x0, symName: __ZNSt3__114__bit_iteratorINS_6vectorIbNS_9allocatorIbEEEELb0ELm0EEC1B7v160006EPmj, symObjAddr: 0x9478, symBinAddr: 0x10000D954, symSize: 0x3C }
  - { offsetInCU: 0x2253F, offset: 0x2253F, size: 0x8, addend: 0x0, symName: __ZNSt3__114__bit_iteratorINS_6vectorIbNS_9allocatorIbEEEELb0ELm0EEC2B7v160006EPmj, symObjAddr: 0x94B4, symBinAddr: 0x10000D990, symSize: 0x2C }
  - { offsetInCU: 0x22587, offset: 0x22587, size: 0x8, addend: 0x0, symName: __ZNSt3__16vectorIbNS_9allocatorIbEEED2B7v160006Ev, symObjAddr: 0x94E0, symBinAddr: 0x10000D9BC, symSize: 0x44 }
  - { offsetInCU: 0x225B1, offset: 0x225B1, size: 0x8, addend: 0x0, symName: __ZNSt3__16vectorIbNS_9allocatorIbEEE16__destroy_vectorC1ERS3_, symObjAddr: 0x9524, symBinAddr: 0x10000DA00, symSize: 0x34 }
  - { offsetInCU: 0x225EA, offset: 0x225EA, size: 0x8, addend: 0x0, symName: __ZNSt3__16vectorIbNS_9allocatorIbEEE16__destroy_vectorclB7v160006Ev, symObjAddr: 0x9558, symBinAddr: 0x10000DA34, symSize: 0x84 }
  - { offsetInCU: 0x22610, offset: 0x22610, size: 0x8, addend: 0x0, symName: __ZNSt3__16vectorIbNS_9allocatorIbEEE16__destroy_vectorC2ERS3_, symObjAddr: 0x95DC, symBinAddr: 0x10000DAB8, symSize: 0x20 }
  - { offsetInCU: 0x22649, offset: 0x22649, size: 0x8, addend: 0x0, symName: __ZNSt3__116allocator_traitsINS_9allocatorImEEE10deallocateB7v160006ERS2_Pmm, symObjAddr: 0x95FC, symBinAddr: 0x10000DAD8, symSize: 0x34 }
  - { offsetInCU: 0x2268B, offset: 0x2268B, size: 0x8, addend: 0x0, symName: __ZNSt3__19allocatorImE10deallocateB7v160006EPmm, symObjAddr: 0x9640, symBinAddr: 0x10000DB1C, symSize: 0x40 }
  - { offsetInCU: 0x226CD, offset: 0x226CD, size: 0x8, addend: 0x0, symName: __ZNSt3__14pairIttEC2B7v160006ImRtLPv0EEEOT_OT0_, symObjAddr: 0x9680, symBinAddr: 0x10000DB5C, symSize: 0x34 }
  - { offsetInCU: 0x2272B, offset: 0x2272B, size: 0x8, addend: 0x0, symName: __ZNSt3__16vectorINS_4pairIttEENS_9allocatorIS2_EEEC2B7v160006Ev, symObjAddr: 0x96B4, symBinAddr: 0x10000DB90, symSize: 0x58 }
  - { offsetInCU: 0x22755, offset: 0x22755, size: 0x8, addend: 0x0, symName: __ZNSt3__117__compressed_pairIPNS_4pairIttEENS_9allocatorIS2_EEEC1B7v160006IDnNS_18__default_init_tagEEEOT_OT0_, symObjAddr: 0x970C, symBinAddr: 0x10000DBE8, symSize: 0x3C }
  - { offsetInCU: 0x227AD, offset: 0x227AD, size: 0x8, addend: 0x0, symName: __ZNSt3__117__compressed_pairIPNS_4pairIttEENS_9allocatorIS2_EEEC2B7v160006IDnNS_18__default_init_tagEEEOT_OT0_, symObjAddr: 0x9758, symBinAddr: 0x10000DC34, symSize: 0x40 }
  - { offsetInCU: 0x22805, offset: 0x22805, size: 0x8, addend: 0x0, symName: __ZNSt3__122__compressed_pair_elemINS_9allocatorINS_4pairIttEEEELi1ELb1EEC2B7v160006ENS_18__default_init_tagE, symObjAddr: 0x9798, symBinAddr: 0x10000DC74, symSize: 0x2C }
  - { offsetInCU: 0x22839, offset: 0x22839, size: 0x8, addend: 0x0, symName: __ZNSt3__19allocatorINS_4pairIttEEEC2B7v160006Ev, symObjAddr: 0x97C4, symBinAddr: 0x10000DCA0, symSize: 0x2C }
  - { offsetInCU: 0x22863, offset: 0x22863, size: 0x8, addend: 0x0, symName: __ZNSt3__116__non_trivial_ifILb1ENS_9allocatorINS_4pairIttEEEEEC2B7v160006Ev, symObjAddr: 0x97F0, symBinAddr: 0x10000DCCC, symSize: 0x14 }
  - { offsetInCU: 0x2288D, offset: 0x2288D, size: 0x8, addend: 0x0, symName: __ZNSt3__16vectorINS_4pairIttEENS_9allocatorIS2_EEE11__make_iterB7v160006EPS2_, symObjAddr: 0x9804, symBinAddr: 0x10000DCE0, symSize: 0x34 }
  - { offsetInCU: 0x228C2, offset: 0x228C2, size: 0x8, addend: 0x0, symName: __ZNSt3__111__wrap_iterIPNS_4pairIttEEEC1B7v160006EPKvS3_, symObjAddr: 0x9838, symBinAddr: 0x10000DD14, symSize: 0x3C }
  - { offsetInCU: 0x22908, offset: 0x22908, size: 0x8, addend: 0x0, symName: __ZNSt3__111__wrap_iterIPNS_4pairIttEEEC2B7v160006EPKvS3_, symObjAddr: 0x9874, symBinAddr: 0x10000DD50, symSize: 0x24 }
  - { offsetInCU: 0x2294E, offset: 0x2294E, size: 0x8, addend: 0x0, symName: __ZNKSt3__111__wrap_iterIPNS_4pairIttEEE4baseB7v160006Ev, symObjAddr: 0x9898, symBinAddr: 0x10000DD74, symSize: 0x18 }
  - { offsetInCU: 0x22974, offset: 0x22974, size: 0x8, addend: 0x0, symName: __ZNSt3__16vectorINS_4pairIttEENS_9allocatorIS2_EEED2B7v160006Ev, symObjAddr: 0x98B0, symBinAddr: 0x10000DD8C, symSize: 0x44 }
  - { offsetInCU: 0x2299E, offset: 0x2299E, size: 0x8, addend: 0x0, symName: __ZNSt3__16vectorINS_4pairIttEENS_9allocatorIS2_EEE16__destroy_vectorC1ERS5_, symObjAddr: 0x98F4, symBinAddr: 0x10000DDD0, symSize: 0x34 }
  - { offsetInCU: 0x229D7, offset: 0x229D7, size: 0x8, addend: 0x0, symName: __ZNSt3__16vectorINS_4pairIttEENS_9allocatorIS2_EEE16__destroy_vectorclB7v160006Ev, symObjAddr: 0x9928, symBinAddr: 0x10000DE04, symSize: 0x9C }
  - { offsetInCU: 0x229FD, offset: 0x229FD, size: 0x8, addend: 0x0, symName: __ZNSt3__16vectorINS_4pairIttEENS_9allocatorIS2_EEE16__destroy_vectorC2ERS5_, symObjAddr: 0x99C4, symBinAddr: 0x10000DEA0, symSize: 0x20 }
  - { offsetInCU: 0x22A36, offset: 0x22A36, size: 0x8, addend: 0x0, symName: __ZNSt3__16vectorINS_4pairIttEENS_9allocatorIS2_EEE7__clearB7v160006Ev, symObjAddr: 0x99F4, symBinAddr: 0x10000DED0, symSize: 0x28 }
  - { offsetInCU: 0x22A5C, offset: 0x22A5C, size: 0x8, addend: 0x0, symName: __ZNSt3__16vectorINS_4pairIttEENS_9allocatorIS2_EEE22__base_destruct_at_endB7v160006EPS2_, symObjAddr: 0x9A1C, symBinAddr: 0x10000DEF8, symSize: 0x8C }
  - { offsetInCU: 0x22AA0, offset: 0x22AA0, size: 0x8, addend: 0x0, symName: __ZNSt3__16vectorINS0_IbNS_9allocatorIbEEEENS1_IS3_EEED2B7v160006Ev, symObjAddr: 0x9AA8, symBinAddr: 0x10000DF84, symSize: 0x44 }
  - { offsetInCU: 0x22ACA, offset: 0x22ACA, size: 0x8, addend: 0x0, symName: __ZNSt3__16vectorINS0_IbNS_9allocatorIbEEEENS1_IS3_EEE16__destroy_vectorC1ERS5_, symObjAddr: 0x9AEC, symBinAddr: 0x10000DFC8, symSize: 0x34 }
  - { offsetInCU: 0x22B03, offset: 0x22B03, size: 0x8, addend: 0x0, symName: __ZNSt3__16vectorINS0_IbNS_9allocatorIbEEEENS1_IS3_EEE16__destroy_vectorclB7v160006Ev, symObjAddr: 0x9B20, symBinAddr: 0x10000DFFC, symSize: 0x9C }
  - { offsetInCU: 0x22B29, offset: 0x22B29, size: 0x8, addend: 0x0, symName: __ZNSt3__16vectorINS0_IbNS_9allocatorIbEEEENS1_IS3_EEE16__destroy_vectorC2ERS5_, symObjAddr: 0x9BBC, symBinAddr: 0x10000E098, symSize: 0x20 }
  - { offsetInCU: 0x22B62, offset: 0x22B62, size: 0x8, addend: 0x0, symName: __ZNSt3__16vectorINS0_IbNS_9allocatorIbEEEENS1_IS3_EEE7__clearB7v160006Ev, symObjAddr: 0x9BEC, symBinAddr: 0x10000E0C8, symSize: 0x28 }
  - { offsetInCU: 0x22B88, offset: 0x22B88, size: 0x8, addend: 0x0, symName: __ZNSt3__16vectorINS0_IbNS_9allocatorIbEEEENS1_IS3_EEE22__base_destruct_at_endB7v160006EPS3_, symObjAddr: 0x9C14, symBinAddr: 0x10000E0F0, symSize: 0x8C }
  - { offsetInCU: 0x22BCC, offset: 0x22BCC, size: 0x8, addend: 0x0, symName: __ZNSt3__16vectorINS0_IjNS_9allocatorIjEEEENS1_IS3_EEED2B7v160006Ev, symObjAddr: 0x9CA0, symBinAddr: 0x10000E17C, symSize: 0x44 }
  - { offsetInCU: 0x22BF6, offset: 0x22BF6, size: 0x8, addend: 0x0, symName: __ZNSt3__16vectorINS0_IjNS_9allocatorIjEEEENS1_IS3_EEE16__destroy_vectorC1ERS5_, symObjAddr: 0x9CE4, symBinAddr: 0x10000E1C0, symSize: 0x34 }
  - { offsetInCU: 0x22C2F, offset: 0x22C2F, size: 0x8, addend: 0x0, symName: __ZNSt3__16vectorINS0_IjNS_9allocatorIjEEEENS1_IS3_EEE16__destroy_vectorclB7v160006Ev, symObjAddr: 0x9D18, symBinAddr: 0x10000E1F4, symSize: 0x9C }
  - { offsetInCU: 0x22C55, offset: 0x22C55, size: 0x8, addend: 0x0, symName: __ZNSt3__16vectorINS0_IjNS_9allocatorIjEEEENS1_IS3_EEE16__destroy_vectorC2ERS5_, symObjAddr: 0x9DB4, symBinAddr: 0x10000E290, symSize: 0x20 }
  - { offsetInCU: 0x22C8E, offset: 0x22C8E, size: 0x8, addend: 0x0, symName: __ZNSt3__16vectorINS0_IjNS_9allocatorIjEEEENS1_IS3_EEE7__clearB7v160006Ev, symObjAddr: 0x9DE4, symBinAddr: 0x10000E2C0, symSize: 0x28 }
  - { offsetInCU: 0x22CB4, offset: 0x22CB4, size: 0x8, addend: 0x0, symName: __ZNSt3__16vectorINS0_IjNS_9allocatorIjEEEENS1_IS3_EEE22__base_destruct_at_endB7v160006EPS3_, symObjAddr: 0x9E0C, symBinAddr: 0x10000E2E8, symSize: 0x8C }
  - { offsetInCU: 0x22CF8, offset: 0x22CF8, size: 0x8, addend: 0x0, symName: __ZNSt3__114basic_ifstreamIcNS_11char_traitsIcEEED2Ev, symObjAddr: 0x9E98, symBinAddr: 0x10000E374, symSize: 0x64 }
  - { offsetInCU: 0x22D32, offset: 0x22D32, size: 0x8, addend: 0x0, symName: __ZTv0_n24_NSt3__114basic_ifstreamIcNS_11char_traitsIcEEED1Ev, symObjAddr: 0x9EFC, symBinAddr: 0x10000E3D8, symSize: 0x28 }
  - { offsetInCU: 0x22D49, offset: 0x22D49, size: 0x8, addend: 0x0, symName: __ZNKSt3__16vectorIbNS_9allocatorIbEEE4sizeB7v160006Ev, symObjAddr: 0x9F24, symBinAddr: 0x10000E400, symSize: 0x18 }
  - { offsetInCU: 0x22D6F, offset: 0x22D6F, size: 0x8, addend: 0x0, symName: __ZNKSt3__16vectorIbNS_9allocatorIbEEE20__throw_out_of_rangeB7v160006Ev, symObjAddr: 0x9F3C, symBinAddr: 0x10000E418, symSize: 0x1C }
  - { offsetInCU: 0x22D95, offset: 0x22D95, size: 0x8, addend: 0x0, symName: __ZNSt3__16vectorIbNS_9allocatorIbEEEixB7v160006Em, symObjAddr: 0x9F58, symBinAddr: 0x10000E434, symSize: 0x3C }
  - { offsetInCU: 0x22DCA, offset: 0x22DCA, size: 0x8, addend: 0x0, symName: __ZNSt3__16vectorIbNS_9allocatorIbEEE10__make_refB7v160006Em, symObjAddr: 0x9F94, symBinAddr: 0x10000E470, symSize: 0x60 }
  - { offsetInCU: 0x22DFF, offset: 0x22DFF, size: 0x8, addend: 0x0, symName: __ZNSt3__115__bit_referenceINS_6vectorIbNS_9allocatorIbEEEELb1EEC1B7v160006EPmm, symObjAddr: 0x9FF4, symBinAddr: 0x10000E4D0, symSize: 0x3C }
  - { offsetInCU: 0x22E45, offset: 0x22E45, size: 0x8, addend: 0x0, symName: __ZNSt3__115__bit_referenceINS_6vectorIbNS_9allocatorIbEEEELb1EEC2B7v160006EPmm, symObjAddr: 0xA030, symBinAddr: 0x10000E50C, symSize: 0x2C }
  - { offsetInCU: 0x22E8B, offset: 0x22E8B, size: 0x8, addend: 0x0, symName: __ZNSt3__19basic_iosIcNS_11char_traitsIcEEEC2B7v160006Ev, symObjAddr: 0xA05C, symBinAddr: 0x10000E538, symSize: 0x44 }
  - { offsetInCU: 0x22EB5, offset: 0x22EB5, size: 0x8, addend: 0x0, symName: __ZNSt3__113basic_istreamIcNS_11char_traitsIcEEEC2B7v160006EPNS_15basic_streambufIcS2_EE, symObjAddr: 0xA0A0, symBinAddr: 0x10000E57C, symSize: 0x64 }
  - { offsetInCU: 0x22EFA, offset: 0x22EFA, size: 0x8, addend: 0x0, symName: __ZNSt3__19basic_iosIcNS_11char_traitsIcEEE8setstateB7v160006Ej, symObjAddr: 0xA104, symBinAddr: 0x10000E5E0, symSize: 0x2C }
  - { offsetInCU: 0x22F2F, offset: 0x22F2F, size: 0x8, addend: 0x0, symName: __ZNSt3__18ios_baseC2B7v160006Ev, symObjAddr: 0xA130, symBinAddr: 0x10000E60C, symSize: 0x24 }
  - { offsetInCU: 0x22F59, offset: 0x22F59, size: 0x8, addend: 0x0, symName: __ZNSt3__19basic_iosIcNS_11char_traitsIcEEE4initB7v160006EPNS_15basic_streambufIcS2_EE, symObjAddr: 0xA154, symBinAddr: 0x10000E630, symSize: 0x44 }
  - { offsetInCU: 0x22F90, offset: 0x22F90, size: 0x8, addend: 0x0, symName: __ZNSt3__111char_traitsIcE3eofEv, symObjAddr: 0xA198, symBinAddr: 0x10000E674, symSize: 0x8 }
  - { offsetInCU: 0x22FA4, offset: 0x22FA4, size: 0x8, addend: 0x0, symName: __ZNSt3__18ios_base8setstateB7v160006Ej, symObjAddr: 0xA1A0, symBinAddr: 0x10000E67C, symSize: 0x34 }
  - { offsetInCU: 0x22FDB, offset: 0x22FDB, size: 0x8, addend: 0x0, symName: __ZNKSt3__19basic_iosIcNS_11char_traitsIcEEE5widenB7v160006Ec, symObjAddr: 0xA40C, symBinAddr: 0x10000E8E8, symSize: 0x84 }
  - { offsetInCU: 0x23033, offset: 0x23033, size: 0x8, addend: 0x0, symName: __ZNKSt3__113basic_istreamIcNS_11char_traitsIcEEE6sentrycvbB7v160006Ev, symObjAddr: 0xA490, symBinAddr: 0x10000E96C, symSize: 0x1C }
  - { offsetInCU: 0x23059, offset: 0x23059, size: 0x8, addend: 0x0, symName: __ZNSt3__112basic_stringIcNS_11char_traitsIcEENS_9allocatorIcEEE5clearB7v160006Ev, symObjAddr: 0xA4AC, symBinAddr: 0x10000E988, symSize: 0x88 }
  - { offsetInCU: 0x23081, offset: 0x23081, size: 0x8, addend: 0x0, symName: __ZNKSt3__19basic_iosIcNS_11char_traitsIcEEE5rdbufB7v160006Ev, symObjAddr: 0xA534, symBinAddr: 0x10000EA10, symSize: 0x24 }
  - { offsetInCU: 0x230A9, offset: 0x230A9, size: 0x8, addend: 0x0, symName: __ZNSt3__115basic_streambufIcNS_11char_traitsIcEEE6sbumpcB7v160006Ev, symObjAddr: 0xA558, symBinAddr: 0x10000EA34, symSize: 0x78 }
  - { offsetInCU: 0x230CF, offset: 0x230CF, size: 0x8, addend: 0x0, symName: __ZNSt3__111char_traitsIcE11eq_int_typeEii, symObjAddr: 0xA5D0, symBinAddr: 0x10000EAAC, symSize: 0x28 }
  - { offsetInCU: 0x23100, offset: 0x23100, size: 0x8, addend: 0x0, symName: __ZNSt3__111char_traitsIcE12to_char_typeEi, symObjAddr: 0xA5F8, symBinAddr: 0x10000EAD4, symSize: 0x18 }
  - { offsetInCU: 0x23123, offset: 0x23123, size: 0x8, addend: 0x0, symName: __ZNSt3__111char_traitsIcE2eqEcc, symObjAddr: 0xA610, symBinAddr: 0x10000EAEC, symSize: 0x28 }
  - { offsetInCU: 0x23154, offset: 0x23154, size: 0x8, addend: 0x0, symName: __ZNKSt3__112basic_stringIcNS_11char_traitsIcEENS_9allocatorIcEEE4sizeB7v160006Ev, symObjAddr: 0xA638, symBinAddr: 0x10000EB14, symSize: 0x54 }
  - { offsetInCU: 0x2317A, offset: 0x2317A, size: 0x8, addend: 0x0, symName: __ZNKSt3__112basic_stringIcNS_11char_traitsIcEENS_9allocatorIcEEE8max_sizeB7v160006Ev, symObjAddr: 0xA68C, symBinAddr: 0x10000EB68, symSize: 0xAC }
  - { offsetInCU: 0x231CC, offset: 0x231CC, size: 0x8, addend: 0x0, symName: __ZNSt3__18ios_base18__setstate_nothrowB7v160006Ej, symObjAddr: 0xA738, symBinAddr: 0x10000EC14, symSize: 0x64 }
  - { offsetInCU: 0x23201, offset: 0x23201, size: 0x8, addend: 0x0, symName: __ZNKSt3__19basic_iosIcNS_11char_traitsIcEEE10exceptionsB7v160006Ev, symObjAddr: 0xA79C, symBinAddr: 0x10000EC78, symSize: 0x24 }
  - { offsetInCU: 0x23227, offset: 0x23227, size: 0x8, addend: 0x0, symName: __ZNKSt3__112basic_stringIcNS_11char_traitsIcEENS_9allocatorIcEEE9__is_longB7v160006Ev, symObjAddr: 0xA7D0, symBinAddr: 0x10000ECAC, symSize: 0x38 }
  - { offsetInCU: 0x2324D, offset: 0x2324D, size: 0x8, addend: 0x0, symName: __ZNSt3__111char_traitsIcE6assignERcRKc, symObjAddr: 0xA808, symBinAddr: 0x10000ECE4, symSize: 0x24 }
  - { offsetInCU: 0x2327E, offset: 0x2327E, size: 0x8, addend: 0x0, symName: __ZNSt3__112basic_stringIcNS_11char_traitsIcEENS_9allocatorIcEEE18__get_long_pointerB7v160006Ev, symObjAddr: 0xA82C, symBinAddr: 0x10000ED08, symSize: 0x28 }
  - { offsetInCU: 0x232A4, offset: 0x232A4, size: 0x8, addend: 0x0, symName: __ZNSt3__112basic_stringIcNS_11char_traitsIcEENS_9allocatorIcEEE15__set_long_sizeB7v160006Em, symObjAddr: 0xA854, symBinAddr: 0x10000ED30, symSize: 0x38 }
  - { offsetInCU: 0x232D9, offset: 0x232D9, size: 0x8, addend: 0x0, symName: __ZNSt3__112basic_stringIcNS_11char_traitsIcEENS_9allocatorIcEEE19__get_short_pointerB7v160006Ev, symObjAddr: 0xA88C, symBinAddr: 0x10000ED68, symSize: 0x28 }
  - { offsetInCU: 0x232FF, offset: 0x232FF, size: 0x8, addend: 0x0, symName: __ZNSt3__112basic_stringIcNS_11char_traitsIcEENS_9allocatorIcEEE16__set_short_sizeB7v160006Em, symObjAddr: 0xA8B4, symBinAddr: 0x10000ED90, symSize: 0x78 }
  - { offsetInCU: 0x23334, offset: 0x23334, size: 0x8, addend: 0x0, symName: __ZNKSt3__117__compressed_pairINS_12basic_stringIcNS_11char_traitsIcEENS_9allocatorIcEEE5__repES5_E5firstB7v160006Ev, symObjAddr: 0xA92C, symBinAddr: 0x10000EE08, symSize: 0x24 }
  - { offsetInCU: 0x2335A, offset: 0x2335A, size: 0x8, addend: 0x0, symName: __ZNKSt3__122__compressed_pair_elemINS_12basic_stringIcNS_11char_traitsIcEENS_9allocatorIcEEE5__repELi0ELb0EE5__getB7v160006Ev, symObjAddr: 0xA950, symBinAddr: 0x10000EE2C, symSize: 0x14 }
  - { offsetInCU: 0x23380, offset: 0x23380, size: 0x8, addend: 0x0, symName: __ZNSt3__114pointer_traitsIPcE10pointer_toB7v160006ERc, symObjAddr: 0xA964, symBinAddr: 0x10000EE40, symSize: 0x14 }
  - { offsetInCU: 0x233A3, offset: 0x233A3, size: 0x8, addend: 0x0, symName: __ZNKSt3__18ios_base5rdbufB7v160006Ev, symObjAddr: 0xA978, symBinAddr: 0x10000EE54, symSize: 0x18 }
  - { offsetInCU: 0x233C9, offset: 0x233C9, size: 0x8, addend: 0x0, symName: __ZNSt3__111char_traitsIcE11to_int_typeEc, symObjAddr: 0xA990, symBinAddr: 0x10000EE6C, symSize: 0x14 }
  - { offsetInCU: 0x233EC, offset: 0x233EC, size: 0x8, addend: 0x0, symName: __ZNKSt3__112basic_stringIcNS_11char_traitsIcEENS_9allocatorIcEEE15__get_long_sizeB7v160006Ev, symObjAddr: 0xA9A4, symBinAddr: 0x10000EE80, symSize: 0x28 }
  - { offsetInCU: 0x23412, offset: 0x23412, size: 0x8, addend: 0x0, symName: __ZNKSt3__112basic_stringIcNS_11char_traitsIcEENS_9allocatorIcEEE16__get_short_sizeB7v160006Ev, symObjAddr: 0xA9CC, symBinAddr: 0x10000EEA8, symSize: 0x34 }
  - { offsetInCU: 0x23443, offset: 0x23443, size: 0x8, addend: 0x0, symName: __ZNSt3__116allocator_traitsINS_9allocatorIcEEE8max_sizeB7v160006IS2_vvEEmRKS2_, symObjAddr: 0xAA00, symBinAddr: 0x10000EEDC, symSize: 0x28 }
  - { offsetInCU: 0x2346F, offset: 0x2346F, size: 0x8, addend: 0x0, symName: __ZNKSt3__112basic_stringIcNS_11char_traitsIcEENS_9allocatorIcEEE7__allocB7v160006Ev, symObjAddr: 0xAA28, symBinAddr: 0x10000EF04, symSize: 0x24 }
  - { offsetInCU: 0x23495, offset: 0x23495, size: 0x8, addend: 0x0, symName: __ZNKSt3__117__compressed_pairINS_12basic_stringIcNS_11char_traitsIcEENS_9allocatorIcEEE5__repES5_E6secondB7v160006Ev, symObjAddr: 0xAA4C, symBinAddr: 0x10000EF28, symSize: 0x24 }
  - { offsetInCU: 0x234BB, offset: 0x234BB, size: 0x8, addend: 0x0, symName: __ZNKSt3__122__compressed_pair_elemINS_9allocatorIcEELi1ELb1EE5__getB7v160006Ev, symObjAddr: 0xAA70, symBinAddr: 0x10000EF4C, symSize: 0x14 }
  - { offsetInCU: 0x234E1, offset: 0x234E1, size: 0x8, addend: 0x0, symName: __ZNKSt3__18ios_base10exceptionsB7v160006Ev, symObjAddr: 0xAA84, symBinAddr: 0x10000EF60, symSize: 0x18 }
  - { offsetInCU: 0x23540, offset: 0x23540, size: 0x8, addend: 0x0, symName: __ZNKSt3__15ctypeIcE5widenB7v160006Ec, symObjAddr: 0xAAC8, symBinAddr: 0x10000EFA4, symSize: 0x38 }
  - { offsetInCU: 0x23575, offset: 0x23575, size: 0x8, addend: 0x0, symName: __ZNKSt3__19basic_iosIcNS_11char_traitsIcEEE4failB7v160006Ev, symObjAddr: 0xAB00, symBinAddr: 0x10000EFDC, symSize: 0x28 }
  - { offsetInCU: 0x2359B, offset: 0x2359B, size: 0x8, addend: 0x0, symName: __ZNKSt3__18ios_base4failB7v160006Ev, symObjAddr: 0xAB28, symBinAddr: 0x10000F004, symSize: 0x28 }
...
