---
triple:          'arm64-apple-darwin'
binary-path:     day13
relocations:
  - { offsetInCU: 0x10BBC, offset: 0x10BBC, size: 0x8, addend: 0x0, symName: __ZNSt3__17getlineB7v160006IcNS_11char_traitsIcEENS_9allocatorIcEEEERNS_13basic_istreamIT_T0_EES9_RNS_12basic_stringIS6_S7_T1_EE, symObjAddr: 0x1410, symBinAddr: 0x100004748, symSize: 0x5C }
  - { offsetInCU: 0x10C1F, offset: 0x10C1F, size: 0x8, addend: 0x0, symName: __ZNSt3__119__debug_db_insert_cB7v160006INS_12basic_stringIcNS_11char_traitsIcEENS_9allocatorIcEEEEEEvPT_, symObjAddr: 0x172C, symBinAddr: 0x100004A64, symSize: 0x10 }
  - { offsetInCU: 0x10C50, offset: 0x10C50, size: 0x8, addend: 0x0, symName: __ZNSt3__119__debug_db_insert_cB7v160006INS_6vectorIyNS_9allocatorIyEEEEEEvPT_, symObjAddr: 0x1904, symBinAddr: 0x100004C3C, symSize: 0x10 }
  - { offsetInCU: 0x10C81, offset: 0x10C81, size: 0x8, addend: 0x0, symName: __ZNSt3__112__to_addressB7v160006IyEEPT_S2_, symObjAddr: 0x1C38, symBinAddr: 0x100004F70, symSize: 0x14 }
  - { offsetInCU: 0x10CDB, offset: 0x10CDB, size: 0x8, addend: 0x0, symName: __ZNSt3__112construct_atB7v160006IyJRKyEPyEEPT_S5_DpOT0_, symObjAddr: 0x1CBC, symBinAddr: 0x100004FF4, symSize: 0x2C }
  - { offsetInCU: 0x10D4B, offset: 0x10D4B, size: 0x8, addend: 0x0, symName: __ZNSt3__13maxB7v160006ImEERKT_S3_S3_, symObjAddr: 0x2060, symBinAddr: 0x100005398, symSize: 0x2C }
  - { offsetInCU: 0x10D8E, offset: 0x10D8E, size: 0x8, addend: 0x0, symName: __ZNSt3__13minB7v160006ImEERKT_S3_S3_, symObjAddr: 0x208C, symBinAddr: 0x1000053C4, symSize: 0x2C }
  - { offsetInCU: 0x10FBB, offset: 0x10FBB, size: 0x8, addend: 0x0, symName: __ZNSt3__13minB7v160006ImNS_6__lessImmEEEERKT_S5_S5_T0_, symObjAddr: 0x211C, symBinAddr: 0x100005454, symSize: 0x54 }
  - { offsetInCU: 0x1123C, offset: 0x1123C, size: 0x8, addend: 0x0, symName: __ZNSt3__120__throw_length_errorB7v160006EPKc, symObjAddr: 0x2200, symBinAddr: 0x100005538, symSize: 0x64 }
  - { offsetInCU: 0x11264, offset: 0x11264, size: 0x8, addend: 0x0, symName: __ZNSt3__13maxB7v160006ImNS_6__lessImmEEEERKT_S5_S5_T0_, symObjAddr: 0x2344, symBinAddr: 0x10000567C, symSize: 0x54 }
  - { offsetInCU: 0x112BE, offset: 0x112BE, size: 0x8, addend: 0x0, symName: __ZNSt3__119__allocate_at_leastB7v160006INS_9allocatorIyEEEENS_19__allocation_resultINS_16allocator_traitsIT_E7pointerEEERS5_m, symObjAddr: 0x24A8, symBinAddr: 0x1000057E0, symSize: 0x40 }
  - { offsetInCU: 0x11301, offset: 0x11301, size: 0x8, addend: 0x0, symName: __ZNSt3__117__libcpp_allocateB7v160006Emm, symObjAddr: 0x262C, symBinAddr: 0x100005964, symSize: 0x60 }
  - { offsetInCU: 0x1135B, offset: 0x1135B, size: 0x8, addend: 0x0, symName: __ZNSt3__124__is_overaligned_for_newB7v160006Em, symObjAddr: 0x268C, symBinAddr: 0x1000059C4, symSize: 0x20 }
  - { offsetInCU: 0x11389, offset: 0x11389, size: 0x8, addend: 0x0, symName: __ZNSt3__121__libcpp_operator_newB7v160006IJmSt11align_val_tEEEPvDpT_, symObjAddr: 0x26AC, symBinAddr: 0x1000059E4, symSize: 0x2C }
  - { offsetInCU: 0x113D6, offset: 0x113D6, size: 0x8, addend: 0x0, symName: __ZNSt3__121__libcpp_operator_newB7v160006IJmEEEPvDpT_, symObjAddr: 0x26D8, symBinAddr: 0x100005A10, symSize: 0x24 }
  - { offsetInCU: 0x1140F, offset: 0x1140F, size: 0x8, addend: 0x0, symName: __ZNSt3__142__uninitialized_allocator_move_if_noexceptB7v160006INS_9allocatorIyEENS_16reverse_iteratorIPyEES5_yvEET1_RT_T0_S9_S6_, symObjAddr: 0x2818, symBinAddr: 0x100005B50, symSize: 0x78 }
  - { offsetInCU: 0x1148C, offset: 0x1148C, size: 0x8, addend: 0x0, symName: __ZNSt3__14swapB7v160006IPyEENS_9enable_ifIXaasr21is_move_constructibleIT_EE5valuesr18is_move_assignableIS3_EE5valueEvE4typeERS3_S6_, symObjAddr: 0x28DC, symBinAddr: 0x100005C14, symSize: 0x3C }
  - { offsetInCU: 0x114DD, offset: 0x114DD, size: 0x8, addend: 0x0, symName: __ZNSt3__125__debug_db_invalidate_allB7v160006INS_6vectorIyNS_9allocatorIyEEEEEEvPT_, symObjAddr: 0x29C4, symBinAddr: 0x100005CFC, symSize: 0x10 }
  - { offsetInCU: 0x1150E, offset: 0x1150E, size: 0x8, addend: 0x0, symName: __ZNSt3__14moveB7v160006INS_16reverse_iteratorIPyEES3_EET0_T_S5_S4_, symObjAddr: 0x2A1C, symBinAddr: 0x100005D54, symSize: 0x78 }
  - { offsetInCU: 0x11568, offset: 0x11568, size: 0x8, addend: 0x0, symName: __ZNSt3__16__moveB7v160006INS_17_ClassicAlgPolicyENS_16reverse_iteratorIPyEES4_S4_EENS_4pairIT0_T2_EES6_T1_S7_, symObjAddr: 0x2A94, symBinAddr: 0x100005DCC, symSize: 0x64 }
  - { offsetInCU: 0x115D4, offset: 0x115D4, size: 0x8, addend: 0x0, symName: __ZNSt3__123__dispatch_copy_or_moveB7v160006INS_17_ClassicAlgPolicyENS_11__move_loopIS1_EENS_14__move_trivialENS_16reverse_iteratorIPyEES7_S7_EENS_4pairIT2_T4_EES9_T3_SA_, symObjAddr: 0x2AF8, symBinAddr: 0x100005E30, symSize: 0x64 }
  - { offsetInCU: 0x11652, offset: 0x11652, size: 0x8, addend: 0x0, symName: __ZNSt3__121__unwrap_and_dispatchB7v160006INS_10__overloadINS_11__move_loopINS_17_ClassicAlgPolicyEEENS_14__move_trivialEEENS_16reverse_iteratorIPyEES9_S9_Li0EEENS_4pairIT0_T2_EESB_T1_SC_, symObjAddr: 0x2B5C, symBinAddr: 0x100005E94, symSize: 0x12C }
  - { offsetInCU: 0x116E2, offset: 0x116E2, size: 0x8, addend: 0x0, symName: __ZNSt3__114__unwrap_rangeB7v160006INS_16reverse_iteratorIPyEES3_EEDaT_T0_, symObjAddr: 0x2C88, symBinAddr: 0x100005FC0, symSize: 0x4C }
  - { offsetInCU: 0x1185D, offset: 0x1185D, size: 0x8, addend: 0x0, symName: __ZNSt3__113__unwrap_iterB7v160006INS_16reverse_iteratorIPyEENS_18__unwrap_iter_implIS3_Lb0EEELi0EEEDTclsrT0_8__unwrapclsr3stdE7declvalIT_EEEES7_, symObjAddr: 0x2D74, symBinAddr: 0x1000060AC, symSize: 0x44 }
  - { offsetInCU: 0x118A1, offset: 0x118A1, size: 0x8, addend: 0x0, symName: __ZNSt3__19make_pairB7v160006INS_16reverse_iteratorIPyEES3_EENS_4pairINS_18__unwrap_ref_decayIT_E4typeENS5_IT0_E4typeEEEOS6_OS9_, symObjAddr: 0x2DB8, symBinAddr: 0x1000060F0, symSize: 0x38 }
  - { offsetInCU: 0x118F0, offset: 0x118F0, size: 0x8, addend: 0x0, symName: __ZNSt3__114__rewrap_rangeB7v160006INS_16reverse_iteratorIPyEES3_S3_EET0_S4_T1_, symObjAddr: 0x2DF0, symBinAddr: 0x100006128, symSize: 0x5C }
  - { offsetInCU: 0x11945, offset: 0x11945, size: 0x8, addend: 0x0, symName: __ZNSt3__113__rewrap_iterB7v160006INS_16reverse_iteratorIPyEES3_NS_18__unwrap_iter_implIS3_Lb0EEEEET_S6_T0_, symObjAddr: 0x2E4C, symBinAddr: 0x100006184, symSize: 0x74 }
  - { offsetInCU: 0x119EA, offset: 0x119EA, size: 0x8, addend: 0x0, symName: __ZNSt3__1neB7v160006IPyS1_EEbRKNS_16reverse_iteratorIT_EERKNS2_IT0_EE, symObjAddr: 0x2FB4, symBinAddr: 0x1000062EC, symSize: 0x48 }
  - { offsetInCU: 0x11AE8, offset: 0x11AE8, size: 0x8, addend: 0x0, symName: __ZNSt3__110destroy_atB7v160006IyLi0EEEvPT_, symObjAddr: 0x3340, symBinAddr: 0x100006678, symSize: 0x24 }
  - { offsetInCU: 0x11B1F, offset: 0x11B1F, size: 0x8, addend: 0x0, symName: __ZNSt3__112__destroy_atB7v160006IyLi0EEEvPT_, symObjAddr: 0x3364, symBinAddr: 0x10000669C, symSize: 0x10 }
  - { offsetInCU: 0x11B56, offset: 0x11B56, size: 0x8, addend: 0x0, symName: __ZNSt3__119__libcpp_deallocateB7v160006EPvmm, symObjAddr: 0x33B4, symBinAddr: 0x1000066EC, symSize: 0x60 }
  - { offsetInCU: 0x11BBB, offset: 0x11BBB, size: 0x8, addend: 0x0, symName: __ZNSt3__127__do_deallocate_handle_sizeB7v160006IJSt11align_val_tEEEvPvmDpT_, symObjAddr: 0x3414, symBinAddr: 0x10000674C, symSize: 0x30 }
  - { offsetInCU: 0x11C0E, offset: 0x11C0E, size: 0x8, addend: 0x0, symName: __ZNSt3__127__do_deallocate_handle_sizeB7v160006IJEEEvPvmDpT_, symObjAddr: 0x3444, symBinAddr: 0x10000677C, symSize: 0x28 }
  - { offsetInCU: 0x11C4C, offset: 0x11C4C, size: 0x8, addend: 0x0, symName: __ZNSt3__124__libcpp_operator_deleteB7v160006IJPvSt11align_val_tEEEvDpT_, symObjAddr: 0x346C, symBinAddr: 0x1000067A4, symSize: 0x2C }
  - { offsetInCU: 0x11C95, offset: 0x11C95, size: 0x8, addend: 0x0, symName: __ZNSt3__124__libcpp_operator_deleteB7v160006IJPvEEEvDpT_, symObjAddr: 0x3498, symBinAddr: 0x1000067D0, symSize: 0x24 }
  - { offsetInCU: 0x11CCA, offset: 0x11CCA, size: 0x8, addend: 0x0, symName: __ZNSt3__112construct_atB7v160006IyJyEPyEEPT_S3_DpOT0_, symObjAddr: 0x376C, symBinAddr: 0x100006AA4, symSize: 0x2C }
  - { offsetInCU: 0x11D3A, offset: 0x11D3A, size: 0x8, addend: 0x0, symName: __ZNSt3__120__throw_out_of_rangeB7v160006EPKc, symObjAddr: 0x37B4, symBinAddr: 0x100006AEC, symSize: 0x64 }
  - { offsetInCU: 0x11D64, offset: 0x11D64, size: 0x8, addend: 0x0, symName: __ZNSt3__118__debug_db_erase_cB7v160006INS_6vectorIyNS_9allocatorIyEEEEEEvPT_, symObjAddr: 0x39CC, symBinAddr: 0x100006D04, symSize: 0x10 }
  - { offsetInCU: 0x11D95, offset: 0x11D95, size: 0x8, addend: 0x0, symName: __ZNSt3__17getlineB7v160006IcNS_11char_traitsIcEENS_9allocatorIcEEEERNS_13basic_istreamIT_T0_EES9_RNS_12basic_stringIS6_S7_T1_EES6_, symObjAddr: 0x3C94, symBinAddr: 0x100006FCC, symSize: 0x238 }
  - { offsetInCU: 0x11E53, offset: 0x11E53, size: 0x8, addend: 0x0, symName: __ZNSt3__125__debug_db_invalidate_allB7v160006INS_12basic_stringIcNS_11char_traitsIcEENS_9allocatorIcEEEEEEvPT_, symObjAddr: 0x422C, symBinAddr: 0x100007564, symSize: 0x10 }
  - { offsetInCU: 0x11E84, offset: 0x11E84, size: 0x8, addend: 0x0, symName: __ZNSt3__19use_facetB7v160006INS_5ctypeIcEEEERKT_RKNS_6localeE, symObjAddr: 0x443C, symBinAddr: 0x100007774, symSize: 0x2C }
  - { offsetInCU: 0x128AB, offset: 0x128AB, size: 0x8, addend: 0x0, symName: __ZSt28__throw_bad_array_new_lengthB7v160006v, symObjAddr: 0x25F8, symBinAddr: 0x100005930, symSize: 0x34 }
  - { offsetInCU: 0x13342, offset: 0x13342, size: 0x8, addend: 0x0, symName: __ZNSt3__16vectorIyNS_9allocatorIyEEE26__swap_out_circular_bufferERNS_14__split_bufferIyRS2_EE, symObjAddr: 0x1E60, symBinAddr: 0x100005198, symSize: 0x118 }
  - { offsetInCU: 0x1559F, offset: 0x1559F, size: 0x8, addend: 0x0, symName: _main, symObjAddr: 0x0, symBinAddr: 0x100003338, symSize: 0x124C }
  - { offsetInCU: 0x1574D, offset: 0x1574D, size: 0x8, addend: 0x0, symName: __ZNSt3__112basic_stringIcNS_11char_traitsIcEENS_9allocatorIcEEEC1B7v160006Ev, symObjAddr: 0x124C, symBinAddr: 0x100004584, symSize: 0x2C }
  - { offsetInCU: 0x15915, offset: 0x15915, size: 0x8, addend: 0x0, symName: __ZNSt3__114basic_ifstreamIcNS_11char_traitsIcEEEC1EPKcj, symObjAddr: 0x1278, symBinAddr: 0x1000045B0, symSize: 0x16C }
  - { offsetInCU: 0x1595F, offset: 0x1595F, size: 0x8, addend: 0x0, symName: __ZNSt3__16vectorIyNS_9allocatorIyEEEC1B7v160006Ev, symObjAddr: 0x13E4, symBinAddr: 0x10000471C, symSize: 0x2C }
  - { offsetInCU: 0x15989, offset: 0x15989, size: 0x8, addend: 0x0, symName: __ZNKSt3__19basic_iosIcNS_11char_traitsIcEEEcvbB7v160006Ev, symObjAddr: 0x146C, symBinAddr: 0x1000047A4, symSize: 0x2C }
  - { offsetInCU: 0x159AF, offset: 0x159AF, size: 0x8, addend: 0x0, symName: __ZNSt3__16vectorIyNS_9allocatorIyEEE9push_backB7v160006ERKy, symObjAddr: 0x1498, symBinAddr: 0x1000047D0, symSize: 0x6C }
  - { offsetInCU: 0x159E6, offset: 0x159E6, size: 0x8, addend: 0x0, symName: __ZNKSt3__112basic_stringIcNS_11char_traitsIcEENS_9allocatorIcEEE4sizeB7v160006Ev, symObjAddr: 0x1504, symBinAddr: 0x10000483C, symSize: 0x54 }
  - { offsetInCU: 0x15A0C, offset: 0x15A0C, size: 0x8, addend: 0x0, symName: __ZNSt3__16vectorIyNS_9allocatorIyEEE9push_backB7v160006EOy, symObjAddr: 0x1558, symBinAddr: 0x100004890, symSize: 0x6C }
  - { offsetInCU: 0x15A43, offset: 0x15A43, size: 0x8, addend: 0x0, symName: __ZNSt3__16vectorIyNS_9allocatorIyEEE2atEm, symObjAddr: 0x15C4, symBinAddr: 0x1000048FC, symSize: 0x60 }
  - { offsetInCU: 0x15A7A, offset: 0x15A7A, size: 0x8, addend: 0x0, symName: __ZNSt3__16vectorIyNS_9allocatorIyEEED1B7v160006Ev, symObjAddr: 0x1624, symBinAddr: 0x10000495C, symSize: 0x2C }
  - { offsetInCU: 0x15AA9, offset: 0x15AA9, size: 0x8, addend: 0x0, symName: __ZNSt3__114basic_ifstreamIcNS_11char_traitsIcEEED1Ev, symObjAddr: 0x1650, symBinAddr: 0x100004988, symSize: 0x40 }
  - { offsetInCU: 0x15AD6, offset: 0x15AD6, size: 0x8, addend: 0x0, symName: __ZNSt3__112basic_stringIcNS_11char_traitsIcEENS_9allocatorIcEEEC2B7v160006Ev, symObjAddr: 0x1690, symBinAddr: 0x1000049C8, symSize: 0x54 }
  - { offsetInCU: 0x15B06, offset: 0x15B06, size: 0x8, addend: 0x0, symName: __ZNSt3__117__compressed_pairINS_12basic_stringIcNS_11char_traitsIcEENS_9allocatorIcEEE5__repES5_EC1B7v160006INS_18__default_init_tagESA_EEOT_OT0_, symObjAddr: 0x16E4, symBinAddr: 0x100004A1C, symSize: 0x3C }
  - { offsetInCU: 0x15B5E, offset: 0x15B5E, size: 0x8, addend: 0x0, symName: __ZNSt3__112basic_stringIcNS_11char_traitsIcEENS_9allocatorIcEEE14__default_initB7v160006Ev, symObjAddr: 0x173C, symBinAddr: 0x100004A74, symSize: 0x40 }
  - { offsetInCU: 0x15B84, offset: 0x15B84, size: 0x8, addend: 0x0, symName: __ZNSt3__117__compressed_pairINS_12basic_stringIcNS_11char_traitsIcEENS_9allocatorIcEEE5__repES5_EC2B7v160006INS_18__default_init_tagESA_EEOT_OT0_, symObjAddr: 0x177C, symBinAddr: 0x100004AB4, symSize: 0x3C }
  - { offsetInCU: 0x15BDC, offset: 0x15BDC, size: 0x8, addend: 0x0, symName: __ZNSt3__122__compressed_pair_elemINS_12basic_stringIcNS_11char_traitsIcEENS_9allocatorIcEEE5__repELi0ELb0EEC2B7v160006ENS_18__default_init_tagE, symObjAddr: 0x17B8, symBinAddr: 0x100004AF0, symSize: 0x14 }
  - { offsetInCU: 0x15C11, offset: 0x15C11, size: 0x8, addend: 0x0, symName: __ZNSt3__122__compressed_pair_elemINS_9allocatorIcEELi1ELb1EEC2B7v160006ENS_18__default_init_tagE, symObjAddr: 0x17CC, symBinAddr: 0x100004B04, symSize: 0x2C }
  - { offsetInCU: 0x15C46, offset: 0x15C46, size: 0x8, addend: 0x0, symName: __ZNSt3__19allocatorIcEC2B7v160006Ev, symObjAddr: 0x17F8, symBinAddr: 0x100004B30, symSize: 0x2C }
  - { offsetInCU: 0x15C70, offset: 0x15C70, size: 0x8, addend: 0x0, symName: __ZNSt3__116__non_trivial_ifILb1ENS_9allocatorIcEEEC2B7v160006Ev, symObjAddr: 0x1824, symBinAddr: 0x100004B5C, symSize: 0x14 }
  - { offsetInCU: 0x15C9A, offset: 0x15C9A, size: 0x8, addend: 0x0, symName: __ZNSt3__117__compressed_pairINS_12basic_stringIcNS_11char_traitsIcEENS_9allocatorIcEEE5__repES5_E5firstB7v160006Ev, symObjAddr: 0x1838, symBinAddr: 0x100004B70, symSize: 0x24 }
  - { offsetInCU: 0x15CC0, offset: 0x15CC0, size: 0x8, addend: 0x0, symName: __ZNSt3__122__compressed_pair_elemINS_12basic_stringIcNS_11char_traitsIcEENS_9allocatorIcEEE5__repELi0ELb0EE5__getB7v160006Ev, symObjAddr: 0x185C, symBinAddr: 0x100004B94, symSize: 0x14 }
  - { offsetInCU: 0x15CE6, offset: 0x15CE6, size: 0x8, addend: 0x0, symName: __ZNSt3__16vectorIyNS_9allocatorIyEEEC2B7v160006Ev, symObjAddr: 0x1870, symBinAddr: 0x100004BA8, symSize: 0x58 }
  - { offsetInCU: 0x15D16, offset: 0x15D16, size: 0x8, addend: 0x0, symName: __ZNSt3__117__compressed_pairIPyNS_9allocatorIyEEEC1B7v160006IDnNS_18__default_init_tagEEEOT_OT0_, symObjAddr: 0x18C8, symBinAddr: 0x100004C00, symSize: 0x3C }
  - { offsetInCU: 0x15D6E, offset: 0x15D6E, size: 0x8, addend: 0x0, symName: __ZNSt3__117__compressed_pairIPyNS_9allocatorIyEEEC2B7v160006IDnNS_18__default_init_tagEEEOT_OT0_, symObjAddr: 0x1914, symBinAddr: 0x100004C4C, symSize: 0x40 }
  - { offsetInCU: 0x15DC6, offset: 0x15DC6, size: 0x8, addend: 0x0, symName: __ZNSt3__122__compressed_pair_elemIPyLi0ELb0EEC2B7v160006IDnvEEOT_, symObjAddr: 0x1954, symBinAddr: 0x100004C8C, symSize: 0x1C }
  - { offsetInCU: 0x15E08, offset: 0x15E08, size: 0x8, addend: 0x0, symName: __ZNSt3__122__compressed_pair_elemINS_9allocatorIyEELi1ELb1EEC2B7v160006ENS_18__default_init_tagE, symObjAddr: 0x1970, symBinAddr: 0x100004CA8, symSize: 0x2C }
  - { offsetInCU: 0x15E3D, offset: 0x15E3D, size: 0x8, addend: 0x0, symName: __ZNSt3__19allocatorIyEC2B7v160006Ev, symObjAddr: 0x199C, symBinAddr: 0x100004CD4, symSize: 0x2C }
  - { offsetInCU: 0x15E67, offset: 0x15E67, size: 0x8, addend: 0x0, symName: __ZNSt3__116__non_trivial_ifILb1ENS_9allocatorIyEEEC2B7v160006Ev, symObjAddr: 0x19C8, symBinAddr: 0x100004D00, symSize: 0x14 }
  - { offsetInCU: 0x15E91, offset: 0x15E91, size: 0x8, addend: 0x0, symName: __ZNSt3__16vectorIyNS_9allocatorIyEEE9__end_capB7v160006Ev, symObjAddr: 0x19DC, symBinAddr: 0x100004D14, symSize: 0x28 }
  - { offsetInCU: 0x15EBC, offset: 0x15EBC, size: 0x8, addend: 0x0, symName: __ZNSt3__16vectorIyNS_9allocatorIyEEE22__construct_one_at_endB7v160006IJRKyEEEvDpOT_, symObjAddr: 0x1A04, symBinAddr: 0x100004D3C, symSize: 0x90 }
  - { offsetInCU: 0x15F0B, offset: 0x15F0B, size: 0x8, addend: 0x0, symName: __ZNSt3__16vectorIyNS_9allocatorIyEEE21__push_back_slow_pathIRKyEEvOT_, symObjAddr: 0x1A94, symBinAddr: 0x100004DCC, symSize: 0xD8 }
  - { offsetInCU: 0x15F69, offset: 0x15F69, size: 0x8, addend: 0x0, symName: __ZNSt3__117__compressed_pairIPyNS_9allocatorIyEEE5firstB7v160006Ev, symObjAddr: 0x1B6C, symBinAddr: 0x100004EA4, symSize: 0x24 }
  - { offsetInCU: 0x15F8F, offset: 0x15F8F, size: 0x8, addend: 0x0, symName: __ZNSt3__122__compressed_pair_elemIPyLi0ELb0EE5__getB7v160006Ev, symObjAddr: 0x1B90, symBinAddr: 0x100004EC8, symSize: 0x14 }
  - { offsetInCU: 0x15FCE, offset: 0x15FCE, size: 0x8, addend: 0x0, symName: __ZNSt3__16vectorIyNS_9allocatorIyEEE21_ConstructTransactionC1B7v160006ERS3_m, symObjAddr: 0x1BA4, symBinAddr: 0x100004EDC, symSize: 0x3C }
  - { offsetInCU: 0x16016, offset: 0x16016, size: 0x8, addend: 0x0, symName: __ZNSt3__116allocator_traitsINS_9allocatorIyEEE9constructB7v160006IyJRKyEvvEEvRS2_PT_DpOT0_, symObjAddr: 0x1BE0, symBinAddr: 0x100004F18, symSize: 0x30 }
  - { offsetInCU: 0x1606A, offset: 0x1606A, size: 0x8, addend: 0x0, symName: __ZNSt3__16vectorIyNS_9allocatorIyEEE7__allocB7v160006Ev, symObjAddr: 0x1C10, symBinAddr: 0x100004F48, symSize: 0x28 }
  - { offsetInCU: 0x16090, offset: 0x16090, size: 0x8, addend: 0x0, symName: __ZNSt3__16vectorIyNS_9allocatorIyEEE21_ConstructTransactionD1B7v160006Ev, symObjAddr: 0x1C4C, symBinAddr: 0x100004F84, symSize: 0x2C }
  - { offsetInCU: 0x160BA, offset: 0x160BA, size: 0x8, addend: 0x0, symName: __ZNSt3__16vectorIyNS_9allocatorIyEEE21_ConstructTransactionC2B7v160006ERS3_m, symObjAddr: 0x1C78, symBinAddr: 0x100004FB0, symSize: 0x44 }
  - { offsetInCU: 0x16102, offset: 0x16102, size: 0x8, addend: 0x0, symName: __ZNSt3__117__compressed_pairIPyNS_9allocatorIyEEE6secondB7v160006Ev, symObjAddr: 0x1CE8, symBinAddr: 0x100005020, symSize: 0x24 }
  - { offsetInCU: 0x16128, offset: 0x16128, size: 0x8, addend: 0x0, symName: __ZNSt3__122__compressed_pair_elemINS_9allocatorIyEELi1ELb1EE5__getB7v160006Ev, symObjAddr: 0x1D0C, symBinAddr: 0x100005044, symSize: 0x14 }
  - { offsetInCU: 0x1614E, offset: 0x1614E, size: 0x8, addend: 0x0, symName: __ZNSt3__16vectorIyNS_9allocatorIyEEE21_ConstructTransactionD2B7v160006Ev, symObjAddr: 0x1D20, symBinAddr: 0x100005058, symSize: 0x20 }
  - { offsetInCU: 0x16178, offset: 0x16178, size: 0x8, addend: 0x0, symName: __ZNKSt3__16vectorIyNS_9allocatorIyEEE11__recommendB7v160006Em, symObjAddr: 0x1D40, symBinAddr: 0x100005078, symSize: 0xB4 }
  - { offsetInCU: 0x161CD, offset: 0x161CD, size: 0x8, addend: 0x0, symName: __ZNKSt3__16vectorIyNS_9allocatorIyEEE4sizeB7v160006Ev, symObjAddr: 0x1DF4, symBinAddr: 0x10000512C, symSize: 0x28 }
  - { offsetInCU: 0x161F3, offset: 0x161F3, size: 0x8, addend: 0x0, symName: __ZNSt3__114__split_bufferIyRNS_9allocatorIyEEEC1EmmS3_, symObjAddr: 0x1E1C, symBinAddr: 0x100005154, symSize: 0x44 }
  - { offsetInCU: 0x16249, offset: 0x16249, size: 0x8, addend: 0x0, symName: __ZNSt3__114__split_bufferIyRNS_9allocatorIyEEED1Ev, symObjAddr: 0x1F78, symBinAddr: 0x1000052B0, symSize: 0x2C }
  - { offsetInCU: 0x16275, offset: 0x16275, size: 0x8, addend: 0x0, symName: __ZNKSt3__16vectorIyNS_9allocatorIyEEE8max_sizeEv, symObjAddr: 0x1FA4, symBinAddr: 0x1000052DC, symSize: 0x60 }
  - { offsetInCU: 0x1629D, offset: 0x1629D, size: 0x8, addend: 0x0, symName: __ZNKSt3__16vectorIyNS_9allocatorIyEEE20__throw_length_errorB7v160006Ev, symObjAddr: 0x2004, symBinAddr: 0x10000533C, symSize: 0x1C }
  - { offsetInCU: 0x162C3, offset: 0x162C3, size: 0x8, addend: 0x0, symName: __ZNKSt3__16vectorIyNS_9allocatorIyEEE8capacityB7v160006Ev, symObjAddr: 0x2020, symBinAddr: 0x100005358, symSize: 0x40 }
  - { offsetInCU: 0x162F3, offset: 0x162F3, size: 0x8, addend: 0x0, symName: __ZNSt3__116allocator_traitsINS_9allocatorIyEEE8max_sizeB7v160006IS2_vvEEmRKS2_, symObjAddr: 0x20B8, symBinAddr: 0x1000053F0, symSize: 0x28 }
  - { offsetInCU: 0x1631E, offset: 0x1631E, size: 0x8, addend: 0x0, symName: __ZNKSt3__16vectorIyNS_9allocatorIyEEE7__allocB7v160006Ev, symObjAddr: 0x20E0, symBinAddr: 0x100005418, symSize: 0x28 }
  - { offsetInCU: 0x16344, offset: 0x16344, size: 0x8, addend: 0x0, symName: __ZNSt3__114numeric_limitsIlE3maxB7v160006Ev, symObjAddr: 0x2108, symBinAddr: 0x100005440, symSize: 0x14 }
  - { offsetInCU: 0x1636C, offset: 0x1636C, size: 0x8, addend: 0x0, symName: __ZNKSt3__16__lessImmEclB7v160006ERKmS3_, symObjAddr: 0x2170, symBinAddr: 0x1000054A8, symSize: 0x34 }
  - { offsetInCU: 0x163AE, offset: 0x163AE, size: 0x8, addend: 0x0, symName: __ZNSt3__114numeric_limitsImE3maxB7v160006Ev, symObjAddr: 0x21A4, symBinAddr: 0x1000054DC, symSize: 0x14 }
  - { offsetInCU: 0x163C2, offset: 0x163C2, size: 0x8, addend: 0x0, symName: __ZNSt3__123__libcpp_numeric_limitsImLb1EE3maxB7v160006Ev, symObjAddr: 0x21B8, symBinAddr: 0x1000054F0, symSize: 0x8 }
  - { offsetInCU: 0x163D6, offset: 0x163D6, size: 0x8, addend: 0x0, symName: __ZNKSt3__117__compressed_pairIPyNS_9allocatorIyEEE6secondB7v160006Ev, symObjAddr: 0x21C0, symBinAddr: 0x1000054F8, symSize: 0x24 }
  - { offsetInCU: 0x163FC, offset: 0x163FC, size: 0x8, addend: 0x0, symName: __ZNKSt3__122__compressed_pair_elemINS_9allocatorIyEELi1ELb1EE5__getB7v160006Ev, symObjAddr: 0x21E4, symBinAddr: 0x10000551C, symSize: 0x14 }
  - { offsetInCU: 0x16422, offset: 0x16422, size: 0x8, addend: 0x0, symName: __ZNSt3__123__libcpp_numeric_limitsIlLb1EE3maxB7v160006Ev, symObjAddr: 0x21F8, symBinAddr: 0x100005530, symSize: 0x8 }
  - { offsetInCU: 0x16436, offset: 0x16436, size: 0x8, addend: 0x0, symName: __ZNSt12length_errorC1B7v160006EPKc, symObjAddr: 0x2264, symBinAddr: 0x10000559C, symSize: 0x34 }
  - { offsetInCU: 0x1646E, offset: 0x1646E, size: 0x8, addend: 0x0, symName: __ZNSt12length_errorC2B7v160006EPKc, symObjAddr: 0x2298, symBinAddr: 0x1000055D0, symSize: 0x4C }
  - { offsetInCU: 0x164A6, offset: 0x164A6, size: 0x8, addend: 0x0, symName: __ZNKSt3__16vectorIyNS_9allocatorIyEEE9__end_capB7v160006Ev, symObjAddr: 0x22E4, symBinAddr: 0x10000561C, symSize: 0x28 }
  - { offsetInCU: 0x164CC, offset: 0x164CC, size: 0x8, addend: 0x0, symName: __ZNKSt3__117__compressed_pairIPyNS_9allocatorIyEEE5firstB7v160006Ev, symObjAddr: 0x230C, symBinAddr: 0x100005644, symSize: 0x24 }
  - { offsetInCU: 0x164F2, offset: 0x164F2, size: 0x8, addend: 0x0, symName: __ZNKSt3__122__compressed_pair_elemIPyLi0ELb0EE5__getB7v160006Ev, symObjAddr: 0x2330, symBinAddr: 0x100005668, symSize: 0x14 }
  - { offsetInCU: 0x16518, offset: 0x16518, size: 0x8, addend: 0x0, symName: __ZNSt3__114__split_bufferIyRNS_9allocatorIyEEEC2EmmS3_, symObjAddr: 0x2398, symBinAddr: 0x1000056D0, symSize: 0xD4 }
  - { offsetInCU: 0x1658B, offset: 0x1658B, size: 0x8, addend: 0x0, symName: __ZNSt3__117__compressed_pairIPyRNS_9allocatorIyEEEC1B7v160006IDnS4_EEOT_OT0_, symObjAddr: 0x246C, symBinAddr: 0x1000057A4, symSize: 0x3C }
  - { offsetInCU: 0x165E3, offset: 0x165E3, size: 0x8, addend: 0x0, symName: __ZNSt3__114__split_bufferIyRNS_9allocatorIyEEE7__allocB7v160006Ev, symObjAddr: 0x24E8, symBinAddr: 0x100005820, symSize: 0x28 }
  - { offsetInCU: 0x16609, offset: 0x16609, size: 0x8, addend: 0x0, symName: __ZNSt3__114__split_bufferIyRNS_9allocatorIyEEE9__end_capB7v160006Ev, symObjAddr: 0x2510, symBinAddr: 0x100005848, symSize: 0x28 }
  - { offsetInCU: 0x1662F, offset: 0x1662F, size: 0x8, addend: 0x0, symName: __ZNSt3__117__compressed_pairIPyRNS_9allocatorIyEEEC2B7v160006IDnS4_EEOT_OT0_, symObjAddr: 0x2538, symBinAddr: 0x100005870, symSize: 0x48 }
  - { offsetInCU: 0x16687, offset: 0x16687, size: 0x8, addend: 0x0, symName: __ZNSt3__122__compressed_pair_elemIRNS_9allocatorIyEELi1ELb0EEC2B7v160006IS3_vEEOT_, symObjAddr: 0x2580, symBinAddr: 0x1000058B8, symSize: 0x20 }
  - { offsetInCU: 0x166C9, offset: 0x166C9, size: 0x8, addend: 0x0, symName: __ZNSt3__19allocatorIyE8allocateB7v160006Em, symObjAddr: 0x25A0, symBinAddr: 0x1000058D8, symSize: 0x58 }
  - { offsetInCU: 0x166FD, offset: 0x166FD, size: 0x8, addend: 0x0, symName: __ZNSt3__117__compressed_pairIPyRNS_9allocatorIyEEE6secondB7v160006Ev, symObjAddr: 0x26FC, symBinAddr: 0x100005A34, symSize: 0x28 }
  - { offsetInCU: 0x16723, offset: 0x16723, size: 0x8, addend: 0x0, symName: __ZNSt3__122__compressed_pair_elemIRNS_9allocatorIyEELi1ELb0EE5__getB7v160006Ev, symObjAddr: 0x2724, symBinAddr: 0x100005A5C, symSize: 0x18 }
  - { offsetInCU: 0x16749, offset: 0x16749, size: 0x8, addend: 0x0, symName: __ZNSt3__117__compressed_pairIPyRNS_9allocatorIyEEE5firstB7v160006Ev, symObjAddr: 0x273C, symBinAddr: 0x100005A74, symSize: 0x24 }
  - { offsetInCU: 0x1676F, offset: 0x1676F, size: 0x8, addend: 0x0, symName: __ZNKSt3__16vectorIyNS_9allocatorIyEEE17__annotate_deleteB7v160006Ev, symObjAddr: 0x2760, symBinAddr: 0x100005A98, symSize: 0xB8 }
  - { offsetInCU: 0x16795, offset: 0x16795, size: 0x8, addend: 0x0, symName: __ZNSt3__116reverse_iteratorIPyEC1B7v160006ES1_, symObjAddr: 0x2890, symBinAddr: 0x100005BC8, symSize: 0x34 }
  - { offsetInCU: 0x167CD, offset: 0x167CD, size: 0x8, addend: 0x0, symName: __ZNKSt3__116reverse_iteratorIPyE4baseB7v160006Ev, symObjAddr: 0x28C4, symBinAddr: 0x100005BFC, symSize: 0x18 }
  - { offsetInCU: 0x167F3, offset: 0x167F3, size: 0x8, addend: 0x0, symName: __ZNKSt3__16vectorIyNS_9allocatorIyEEE14__annotate_newB7v160006Em, symObjAddr: 0x2918, symBinAddr: 0x100005C50, symSize: 0xAC }
  - { offsetInCU: 0x16828, offset: 0x16828, size: 0x8, addend: 0x0, symName: __ZNKSt3__16vectorIyNS_9allocatorIyEEE31__annotate_contiguous_containerB7v160006EPKvS5_S5_S5_, symObjAddr: 0x29D4, symBinAddr: 0x100005D0C, symSize: 0x20 }
  - { offsetInCU: 0x1687A, offset: 0x1687A, size: 0x8, addend: 0x0, symName: __ZNKSt3__16vectorIyNS_9allocatorIyEEE4dataB7v160006Ev, symObjAddr: 0x29F4, symBinAddr: 0x100005D2C, symSize: 0x28 }
  - { offsetInCU: 0x168C4, offset: 0x168C4, size: 0x8, addend: 0x0, symName: __ZNKSt3__111__move_loopINS_17_ClassicAlgPolicyEEclB7v160006INS_16reverse_iteratorIPyEES6_S6_EENS_4pairIT_T1_EES8_T0_S9_, symObjAddr: 0x2CD4, symBinAddr: 0x10000600C, symSize: 0xA0 }
  - { offsetInCU: 0x1692F, offset: 0x1692F, size: 0x8, addend: 0x0, symName: __ZNSt3__119__unwrap_range_implINS_16reverse_iteratorIPyEES3_E8__unwrapB7v160006ES3_S3_, symObjAddr: 0x2EC0, symBinAddr: 0x1000061F8, symSize: 0x84 }
  - { offsetInCU: 0x16966, offset: 0x16966, size: 0x8, addend: 0x0, symName: __ZNSt3__14pairINS_16reverse_iteratorIPyEES3_EC1B7v160006IS3_S3_LPv0EEEOT_OT0_, symObjAddr: 0x2F44, symBinAddr: 0x10000627C, symSize: 0x3C }
  - { offsetInCU: 0x169C4, offset: 0x169C4, size: 0x8, addend: 0x0, symName: __ZNSt3__14pairINS_16reverse_iteratorIPyEES3_EC2B7v160006IS3_S3_LPv0EEEOT_OT0_, symObjAddr: 0x2F80, symBinAddr: 0x1000062B8, symSize: 0x34 }
  - { offsetInCU: 0x16A28, offset: 0x16A28, size: 0x8, addend: 0x0, symName: __ZNSt3__18_IterOpsINS_17_ClassicAlgPolicyEE11__iter_moveB7v160006IRNS_16reverse_iteratorIPyEEEENS_9enable_ifIXsr12is_referenceIDTdeclsr3stdE7declvalIRT_EEEEE5valueEDTclsr3stdE4movedeclsr3stdE7declvalISA_EEEEE4typeEOS9_, symObjAddr: 0x2FFC, symBinAddr: 0x100006334, symSize: 0x28 }
  - { offsetInCU: 0x16A54, offset: 0x16A54, size: 0x8, addend: 0x0, symName: __ZNKSt3__116reverse_iteratorIPyEdeB7v160006Ev, symObjAddr: 0x3024, symBinAddr: 0x10000635C, symSize: 0x28 }
  - { offsetInCU: 0x16A88, offset: 0x16A88, size: 0x8, addend: 0x0, symName: __ZNSt3__116reverse_iteratorIPyEppB7v160006Ev, symObjAddr: 0x304C, symBinAddr: 0x100006384, symSize: 0x20 }
  - { offsetInCU: 0x16AAE, offset: 0x16AAE, size: 0x8, addend: 0x0, symName: __ZNSt3__18_IterOpsINS_17_ClassicAlgPolicyEE25__validate_iter_referenceB7v160006IRNS_16reverse_iteratorIPyEEEEvv, symObjAddr: 0x306C, symBinAddr: 0x1000063A4, symSize: 0x4 }
  - { offsetInCU: 0x16ACC, offset: 0x16ACC, size: 0x8, addend: 0x0, symName: __ZNSt3__118__unwrap_iter_implINS_16reverse_iteratorIPyEELb0EE8__unwrapB7v160006ES3_, symObjAddr: 0x3070, symBinAddr: 0x1000063A8, symSize: 0x24 }
  - { offsetInCU: 0x16AEF, offset: 0x16AEF, size: 0x8, addend: 0x0, symName: __ZNSt3__119__unwrap_range_implINS_16reverse_iteratorIPyEES3_E8__rewrapB7v160006ES3_S3_, symObjAddr: 0x3094, symBinAddr: 0x1000063CC, symSize: 0x5C }
  - { offsetInCU: 0x16B20, offset: 0x16B20, size: 0x8, addend: 0x0, symName: __ZNSt3__118__unwrap_iter_implINS_16reverse_iteratorIPyEELb0EE8__rewrapB7v160006ES3_S3_, symObjAddr: 0x30F0, symBinAddr: 0x100006428, symSize: 0x2C }
  - { offsetInCU: 0x16B4E, offset: 0x16B4E, size: 0x8, addend: 0x0, symName: __ZNSt3__116reverse_iteratorIPyEC2B7v160006ES1_, symObjAddr: 0x311C, symBinAddr: 0x100006454, symSize: 0x28 }
  - { offsetInCU: 0x16B86, offset: 0x16B86, size: 0x8, addend: 0x0, symName: __ZNSt3__114__split_bufferIyRNS_9allocatorIyEEED2Ev, symObjAddr: 0x3144, symBinAddr: 0x10000647C, symSize: 0x8C }
  - { offsetInCU: 0x16BB2, offset: 0x16BB2, size: 0x8, addend: 0x0, symName: __ZNSt3__114__split_bufferIyRNS_9allocatorIyEEE5clearB7v160006Ev, symObjAddr: 0x31D0, symBinAddr: 0x100006508, symSize: 0x28 }
  - { offsetInCU: 0x16BD8, offset: 0x16BD8, size: 0x8, addend: 0x0, symName: __ZNSt3__116allocator_traitsINS_9allocatorIyEEE10deallocateB7v160006ERS2_Pym, symObjAddr: 0x31F8, symBinAddr: 0x100006530, symSize: 0x34 }
  - { offsetInCU: 0x16C1A, offset: 0x16C1A, size: 0x8, addend: 0x0, symName: __ZNKSt3__114__split_bufferIyRNS_9allocatorIyEEE8capacityB7v160006Ev, symObjAddr: 0x322C, symBinAddr: 0x100006564, symSize: 0x40 }
  - { offsetInCU: 0x16C40, offset: 0x16C40, size: 0x8, addend: 0x0, symName: __ZNSt3__114__split_bufferIyRNS_9allocatorIyEEE17__destruct_at_endB7v160006EPy, symObjAddr: 0x326C, symBinAddr: 0x1000065A4, symSize: 0x2C }
  - { offsetInCU: 0x16C74, offset: 0x16C74, size: 0x8, addend: 0x0, symName: __ZNSt3__114__split_bufferIyRNS_9allocatorIyEEE17__destruct_at_endB7v160006EPyNS_17integral_constantIbLb0EEE, symObjAddr: 0x3298, symBinAddr: 0x1000065D0, symSize: 0x80 }
  - { offsetInCU: 0x16CB5, offset: 0x16CB5, size: 0x8, addend: 0x0, symName: __ZNSt3__116allocator_traitsINS_9allocatorIyEEE7destroyB7v160006IyvvEEvRS2_PT_, symObjAddr: 0x3318, symBinAddr: 0x100006650, symSize: 0x28 }
  - { offsetInCU: 0x16CEF, offset: 0x16CEF, size: 0x8, addend: 0x0, symName: __ZNSt3__19allocatorIyE10deallocateB7v160006EPym, symObjAddr: 0x3374, symBinAddr: 0x1000066AC, symSize: 0x40 }
  - { offsetInCU: 0x16D31, offset: 0x16D31, size: 0x8, addend: 0x0, symName: __ZNKSt3__114__split_bufferIyRNS_9allocatorIyEEE9__end_capB7v160006Ev, symObjAddr: 0x34BC, symBinAddr: 0x1000067F4, symSize: 0x28 }
  - { offsetInCU: 0x16D57, offset: 0x16D57, size: 0x8, addend: 0x0, symName: __ZNKSt3__117__compressed_pairIPyRNS_9allocatorIyEEE5firstB7v160006Ev, symObjAddr: 0x34E4, symBinAddr: 0x10000681C, symSize: 0x24 }
  - { offsetInCU: 0x16D7D, offset: 0x16D7D, size: 0x8, addend: 0x0, symName: __ZNKSt3__112basic_stringIcNS_11char_traitsIcEENS_9allocatorIcEEE9__is_longB7v160006Ev, symObjAddr: 0x3508, symBinAddr: 0x100006840, symSize: 0x38 }
  - { offsetInCU: 0x16DA3, offset: 0x16DA3, size: 0x8, addend: 0x0, symName: __ZNKSt3__112basic_stringIcNS_11char_traitsIcEENS_9allocatorIcEEE15__get_long_sizeB7v160006Ev, symObjAddr: 0x3540, symBinAddr: 0x100006878, symSize: 0x28 }
  - { offsetInCU: 0x16DC9, offset: 0x16DC9, size: 0x8, addend: 0x0, symName: __ZNKSt3__112basic_stringIcNS_11char_traitsIcEENS_9allocatorIcEEE16__get_short_sizeB7v160006Ev, symObjAddr: 0x3568, symBinAddr: 0x1000068A0, symSize: 0x34 }
  - { offsetInCU: 0x16DEF, offset: 0x16DEF, size: 0x8, addend: 0x0, symName: __ZNKSt3__117__compressed_pairINS_12basic_stringIcNS_11char_traitsIcEENS_9allocatorIcEEE5__repES5_E5firstB7v160006Ev, symObjAddr: 0x359C, symBinAddr: 0x1000068D4, symSize: 0x24 }
  - { offsetInCU: 0x16E15, offset: 0x16E15, size: 0x8, addend: 0x0, symName: __ZNKSt3__122__compressed_pair_elemINS_12basic_stringIcNS_11char_traitsIcEENS_9allocatorIcEEE5__repELi0ELb0EE5__getB7v160006Ev, symObjAddr: 0x35C0, symBinAddr: 0x1000068F8, symSize: 0x14 }
  - { offsetInCU: 0x16E3B, offset: 0x16E3B, size: 0x8, addend: 0x0, symName: __ZNSt3__16vectorIyNS_9allocatorIyEEE22__construct_one_at_endB7v160006IJyEEEvDpOT_, symObjAddr: 0x35D4, symBinAddr: 0x10000690C, symSize: 0x90 }
  - { offsetInCU: 0x16E8A, offset: 0x16E8A, size: 0x8, addend: 0x0, symName: __ZNSt3__16vectorIyNS_9allocatorIyEEE21__push_back_slow_pathIyEEvOT_, symObjAddr: 0x3664, symBinAddr: 0x10000699C, symSize: 0xD8 }
  - { offsetInCU: 0x16EE8, offset: 0x16EE8, size: 0x8, addend: 0x0, symName: __ZNSt3__116allocator_traitsINS_9allocatorIyEEE9constructB7v160006IyJyEvvEEvRS2_PT_DpOT0_, symObjAddr: 0x373C, symBinAddr: 0x100006A74, symSize: 0x30 }
  - { offsetInCU: 0x16F3C, offset: 0x16F3C, size: 0x8, addend: 0x0, symName: __ZNKSt3__16vectorIyNS_9allocatorIyEEE20__throw_out_of_rangeB7v160006Ev, symObjAddr: 0x3798, symBinAddr: 0x100006AD0, symSize: 0x1C }
  - { offsetInCU: 0x16F62, offset: 0x16F62, size: 0x8, addend: 0x0, symName: __ZNSt12out_of_rangeC1B7v160006EPKc, symObjAddr: 0x3818, symBinAddr: 0x100006B50, symSize: 0x34 }
  - { offsetInCU: 0x16F9A, offset: 0x16F9A, size: 0x8, addend: 0x0, symName: __ZNSt12out_of_rangeC2B7v160006EPKc, symObjAddr: 0x384C, symBinAddr: 0x100006B84, symSize: 0x4C }
  - { offsetInCU: 0x16FD2, offset: 0x16FD2, size: 0x8, addend: 0x0, symName: __ZNSt3__16vectorIyNS_9allocatorIyEEED2B7v160006Ev, symObjAddr: 0x3898, symBinAddr: 0x100006BD0, symSize: 0x44 }
  - { offsetInCU: 0x16FFC, offset: 0x16FFC, size: 0x8, addend: 0x0, symName: __ZNSt3__16vectorIyNS_9allocatorIyEEE16__destroy_vectorC1ERS3_, symObjAddr: 0x38DC, symBinAddr: 0x100006C14, symSize: 0x34 }
  - { offsetInCU: 0x17035, offset: 0x17035, size: 0x8, addend: 0x0, symName: __ZNSt3__16vectorIyNS_9allocatorIyEEE16__destroy_vectorclB7v160006Ev, symObjAddr: 0x3910, symBinAddr: 0x100006C48, symSize: 0x9C }
  - { offsetInCU: 0x1705B, offset: 0x1705B, size: 0x8, addend: 0x0, symName: __ZNSt3__16vectorIyNS_9allocatorIyEEE16__destroy_vectorC2ERS3_, symObjAddr: 0x39AC, symBinAddr: 0x100006CE4, symSize: 0x20 }
  - { offsetInCU: 0x17094, offset: 0x17094, size: 0x8, addend: 0x0, symName: __ZNSt3__16vectorIyNS_9allocatorIyEEE7__clearB7v160006Ev, symObjAddr: 0x39DC, symBinAddr: 0x100006D14, symSize: 0x28 }
  - { offsetInCU: 0x170BA, offset: 0x170BA, size: 0x8, addend: 0x0, symName: __ZNSt3__16vectorIyNS_9allocatorIyEEE22__base_destruct_at_endB7v160006EPy, symObjAddr: 0x3A04, symBinAddr: 0x100006D3C, symSize: 0x8C }
  - { offsetInCU: 0x170FE, offset: 0x170FE, size: 0x8, addend: 0x0, symName: __ZNSt3__114basic_ifstreamIcNS_11char_traitsIcEEED2Ev, symObjAddr: 0x3A90, symBinAddr: 0x100006DC8, symSize: 0x64 }
  - { offsetInCU: 0x17138, offset: 0x17138, size: 0x8, addend: 0x0, symName: __ZTv0_n24_NSt3__114basic_ifstreamIcNS_11char_traitsIcEEED1Ev, symObjAddr: 0x3AF4, symBinAddr: 0x100006E2C, symSize: 0x28 }
  - { offsetInCU: 0x1714F, offset: 0x1714F, size: 0x8, addend: 0x0, symName: __ZNSt3__19basic_iosIcNS_11char_traitsIcEEEC2B7v160006Ev, symObjAddr: 0x3B1C, symBinAddr: 0x100006E54, symSize: 0x44 }
  - { offsetInCU: 0x17179, offset: 0x17179, size: 0x8, addend: 0x0, symName: __ZNSt3__113basic_istreamIcNS_11char_traitsIcEEEC2B7v160006EPNS_15basic_streambufIcS2_EE, symObjAddr: 0x3B60, symBinAddr: 0x100006E98, symSize: 0x64 }
  - { offsetInCU: 0x171BE, offset: 0x171BE, size: 0x8, addend: 0x0, symName: __ZNSt3__19basic_iosIcNS_11char_traitsIcEEE8setstateB7v160006Ej, symObjAddr: 0x3BC4, symBinAddr: 0x100006EFC, symSize: 0x2C }
  - { offsetInCU: 0x171F3, offset: 0x171F3, size: 0x8, addend: 0x0, symName: __ZNSt3__18ios_baseC2B7v160006Ev, symObjAddr: 0x3BF0, symBinAddr: 0x100006F28, symSize: 0x24 }
  - { offsetInCU: 0x1721D, offset: 0x1721D, size: 0x8, addend: 0x0, symName: __ZNSt3__19basic_iosIcNS_11char_traitsIcEEE4initB7v160006EPNS_15basic_streambufIcS2_EE, symObjAddr: 0x3C14, symBinAddr: 0x100006F4C, symSize: 0x44 }
  - { offsetInCU: 0x17254, offset: 0x17254, size: 0x8, addend: 0x0, symName: __ZNSt3__111char_traitsIcE3eofEv, symObjAddr: 0x3C58, symBinAddr: 0x100006F90, symSize: 0x8 }
  - { offsetInCU: 0x17268, offset: 0x17268, size: 0x8, addend: 0x0, symName: __ZNSt3__18ios_base8setstateB7v160006Ej, symObjAddr: 0x3C60, symBinAddr: 0x100006F98, symSize: 0x34 }
  - { offsetInCU: 0x1729F, offset: 0x1729F, size: 0x8, addend: 0x0, symName: __ZNKSt3__19basic_iosIcNS_11char_traitsIcEEE5widenB7v160006Ec, symObjAddr: 0x3ECC, symBinAddr: 0x100007204, symSize: 0x84 }
  - { offsetInCU: 0x172F4, offset: 0x172F4, size: 0x8, addend: 0x0, symName: __ZNKSt3__113basic_istreamIcNS_11char_traitsIcEEE6sentrycvbB7v160006Ev, symObjAddr: 0x3F50, symBinAddr: 0x100007288, symSize: 0x1C }
  - { offsetInCU: 0x1731A, offset: 0x1731A, size: 0x8, addend: 0x0, symName: __ZNSt3__112basic_stringIcNS_11char_traitsIcEENS_9allocatorIcEEE5clearB7v160006Ev, symObjAddr: 0x3F6C, symBinAddr: 0x1000072A4, symSize: 0x88 }
  - { offsetInCU: 0x17342, offset: 0x17342, size: 0x8, addend: 0x0, symName: __ZNKSt3__19basic_iosIcNS_11char_traitsIcEEE5rdbufB7v160006Ev, symObjAddr: 0x3FF4, symBinAddr: 0x10000732C, symSize: 0x24 }
  - { offsetInCU: 0x1736A, offset: 0x1736A, size: 0x8, addend: 0x0, symName: __ZNSt3__115basic_streambufIcNS_11char_traitsIcEEE6sbumpcB7v160006Ev, symObjAddr: 0x4018, symBinAddr: 0x100007350, symSize: 0x78 }
  - { offsetInCU: 0x17390, offset: 0x17390, size: 0x8, addend: 0x0, symName: __ZNSt3__111char_traitsIcE11eq_int_typeEii, symObjAddr: 0x4090, symBinAddr: 0x1000073C8, symSize: 0x28 }
  - { offsetInCU: 0x173C1, offset: 0x173C1, size: 0x8, addend: 0x0, symName: __ZNSt3__111char_traitsIcE12to_char_typeEi, symObjAddr: 0x40B8, symBinAddr: 0x1000073F0, symSize: 0x18 }
  - { offsetInCU: 0x173E4, offset: 0x173E4, size: 0x8, addend: 0x0, symName: __ZNSt3__111char_traitsIcE2eqEcc, symObjAddr: 0x40D0, symBinAddr: 0x100007408, symSize: 0x28 }
  - { offsetInCU: 0x17415, offset: 0x17415, size: 0x8, addend: 0x0, symName: __ZNKSt3__112basic_stringIcNS_11char_traitsIcEENS_9allocatorIcEEE8max_sizeB7v160006Ev, symObjAddr: 0x40F8, symBinAddr: 0x100007430, symSize: 0xAC }
  - { offsetInCU: 0x17467, offset: 0x17467, size: 0x8, addend: 0x0, symName: __ZNSt3__18ios_base18__setstate_nothrowB7v160006Ej, symObjAddr: 0x41A4, symBinAddr: 0x1000074DC, symSize: 0x64 }
  - { offsetInCU: 0x1749C, offset: 0x1749C, size: 0x8, addend: 0x0, symName: __ZNKSt3__19basic_iosIcNS_11char_traitsIcEEE10exceptionsB7v160006Ev, symObjAddr: 0x4208, symBinAddr: 0x100007540, symSize: 0x24 }
  - { offsetInCU: 0x174C2, offset: 0x174C2, size: 0x8, addend: 0x0, symName: __ZNSt3__111char_traitsIcE6assignERcRKc, symObjAddr: 0x423C, symBinAddr: 0x100007574, symSize: 0x24 }
  - { offsetInCU: 0x174F3, offset: 0x174F3, size: 0x8, addend: 0x0, symName: __ZNSt3__112basic_stringIcNS_11char_traitsIcEENS_9allocatorIcEEE18__get_long_pointerB7v160006Ev, symObjAddr: 0x4260, symBinAddr: 0x100007598, symSize: 0x28 }
  - { offsetInCU: 0x17519, offset: 0x17519, size: 0x8, addend: 0x0, symName: __ZNSt3__112basic_stringIcNS_11char_traitsIcEENS_9allocatorIcEEE15__set_long_sizeB7v160006Em, symObjAddr: 0x4288, symBinAddr: 0x1000075C0, symSize: 0x38 }
  - { offsetInCU: 0x1754E, offset: 0x1754E, size: 0x8, addend: 0x0, symName: __ZNSt3__112basic_stringIcNS_11char_traitsIcEENS_9allocatorIcEEE19__get_short_pointerB7v160006Ev, symObjAddr: 0x42C0, symBinAddr: 0x1000075F8, symSize: 0x28 }
  - { offsetInCU: 0x17574, offset: 0x17574, size: 0x8, addend: 0x0, symName: __ZNSt3__112basic_stringIcNS_11char_traitsIcEENS_9allocatorIcEEE16__set_short_sizeB7v160006Em, symObjAddr: 0x42E8, symBinAddr: 0x100007620, symSize: 0x78 }
  - { offsetInCU: 0x175A9, offset: 0x175A9, size: 0x8, addend: 0x0, symName: __ZNSt3__114pointer_traitsIPcE10pointer_toB7v160006ERc, symObjAddr: 0x4360, symBinAddr: 0x100007698, symSize: 0x14 }
  - { offsetInCU: 0x175CC, offset: 0x175CC, size: 0x8, addend: 0x0, symName: __ZNKSt3__18ios_base5rdbufB7v160006Ev, symObjAddr: 0x4374, symBinAddr: 0x1000076AC, symSize: 0x18 }
  - { offsetInCU: 0x175F2, offset: 0x175F2, size: 0x8, addend: 0x0, symName: __ZNSt3__111char_traitsIcE11to_int_typeEc, symObjAddr: 0x438C, symBinAddr: 0x1000076C4, symSize: 0x14 }
  - { offsetInCU: 0x1761F, offset: 0x1761F, size: 0x8, addend: 0x0, symName: __ZNSt3__116allocator_traitsINS_9allocatorIcEEE8max_sizeB7v160006IS2_vvEEmRKS2_, symObjAddr: 0x43A0, symBinAddr: 0x1000076D8, symSize: 0x28 }
  - { offsetInCU: 0x1764A, offset: 0x1764A, size: 0x8, addend: 0x0, symName: __ZNKSt3__112basic_stringIcNS_11char_traitsIcEENS_9allocatorIcEEE7__allocB7v160006Ev, symObjAddr: 0x43C8, symBinAddr: 0x100007700, symSize: 0x24 }
  - { offsetInCU: 0x17670, offset: 0x17670, size: 0x8, addend: 0x0, symName: __ZNKSt3__117__compressed_pairINS_12basic_stringIcNS_11char_traitsIcEENS_9allocatorIcEEE5__repES5_E6secondB7v160006Ev, symObjAddr: 0x43EC, symBinAddr: 0x100007724, symSize: 0x24 }
  - { offsetInCU: 0x17696, offset: 0x17696, size: 0x8, addend: 0x0, symName: __ZNKSt3__122__compressed_pair_elemINS_9allocatorIcEELi1ELb1EE5__getB7v160006Ev, symObjAddr: 0x4410, symBinAddr: 0x100007748, symSize: 0x14 }
  - { offsetInCU: 0x176BC, offset: 0x176BC, size: 0x8, addend: 0x0, symName: __ZNKSt3__18ios_base10exceptionsB7v160006Ev, symObjAddr: 0x4424, symBinAddr: 0x10000775C, symSize: 0x18 }
  - { offsetInCU: 0x1771B, offset: 0x1771B, size: 0x8, addend: 0x0, symName: __ZNKSt3__15ctypeIcE5widenB7v160006Ec, symObjAddr: 0x4468, symBinAddr: 0x1000077A0, symSize: 0x38 }
  - { offsetInCU: 0x17750, offset: 0x17750, size: 0x8, addend: 0x0, symName: __ZNKSt3__19basic_iosIcNS_11char_traitsIcEEE4failB7v160006Ev, symObjAddr: 0x44A0, symBinAddr: 0x1000077D8, symSize: 0x28 }
  - { offsetInCU: 0x17776, offset: 0x17776, size: 0x8, addend: 0x0, symName: __ZNKSt3__18ios_base4failB7v160006Ev, symObjAddr: 0x44C8, symBinAddr: 0x100007800, symSize: 0x28 }
...
