---
triple:          'arm64-apple-darwin'
binary-path:     day22
relocations:
  - { offsetInCU: 0x56, offset: 0x56, size: 0x8, addend: 0x0, symName: __ZNSt3__115strong_ordering5equalE, symObjAddr: 0x8B87, symBinAddr: 0x10000B95B, symSize: 0x0 }
  - { offsetInCU: 0x229, offset: 0x229, size: 0x8, addend: 0x0, symName: __ZNSt3__117__synth_three_wayB7v160006E, symObjAddr: 0x8B88, symBinAddr: 0x10000B95C, symSize: 0x0 }
  - { offsetInCU: 0x27A, offset: 0x27A, size: 0x8, addend: 0x0, symName: __ZNSt3__1L19piecewise_constructE, symObjAddr: 0x8B86, symBinAddr: 0x10000B95A, symSize: 0x0 }
  - { offsetInCU: 0x17242, offset: 0x17242, size: 0x8, addend: 0x0, symName: __ZNSt3__17getlineB7v160006IcNS_11char_traitsIcEENS_9allocatorIcEEEERNS_13basic_istreamIT_T0_EES9_RNS_12basic_stringIS6_S7_T1_EE, symObjAddr: 0x94C, symBinAddr: 0x100003444, symSize: 0x5C }
  - { offsetInCU: 0x1729A, offset: 0x1729A, size: 0x8, addend: 0x0, symName: __ZNSt3__1neB7v160006ERKNS_14__map_iteratorINS_15__tree_iteratorINS_12__value_typeINS_5tupleIJssssEEEyEEPNS_11__tree_nodeIS5_PvEElEEEESD_, symObjAddr: 0xE34, symBinAddr: 0x10000392C, symSize: 0x30 }
  - { offsetInCU: 0x172D7, offset: 0x172D7, size: 0x8, addend: 0x0, symName: __ZNSt3__1ltB7v160006IPyEEbRKNS_11__wrap_iterIT_EES6_, symObjAddr: 0xEE8, symBinAddr: 0x1000039E0, symSize: 0x48 }
  - { offsetInCU: 0x17325, offset: 0x17325, size: 0x8, addend: 0x0, symName: __ZNSt3__119__debug_db_insert_cB7v160006INS_6vectorIyNS_9allocatorIyEEEEEEvPT_, symObjAddr: 0x1128, symBinAddr: 0x100003C20, symSize: 0x10 }
  - { offsetInCU: 0x17356, offset: 0x17356, size: 0x8, addend: 0x0, symName: __ZNSt3__119__debug_db_insert_cB7v160006INS_6vectorINS1_IyNS_9allocatorIyEEEENS2_IS4_EEEEEEvPT_, symObjAddr: 0x1294, symBinAddr: 0x100003D8C, symSize: 0x10 }
  - { offsetInCU: 0x17387, offset: 0x17387, size: 0x8, addend: 0x0, symName: __ZNSt3__119__debug_db_insert_cB7v160006INS_6vectorINS1_IsNS_9allocatorIsEEEENS2_IS4_EEEEEEvPT_, symObjAddr: 0x1400, symBinAddr: 0x100003EF8, symSize: 0x10 }
  - { offsetInCU: 0x173B8, offset: 0x173B8, size: 0x8, addend: 0x0, symName: __ZNSt3__119__debug_db_insert_cB7v160006INS_12basic_stringIcNS_11char_traitsIcEENS_9allocatorIcEEEEEEvPT_, symObjAddr: 0x1568, symBinAddr: 0x100004060, symSize: 0x10 }
  - { offsetInCU: 0x173E9, offset: 0x173E9, size: 0x8, addend: 0x0, symName: __ZNSt3__112__to_addressB7v160006IyEEPT_S2_, symObjAddr: 0x1908, symBinAddr: 0x100004400, symSize: 0x14 }
  - { offsetInCU: 0x17443, offset: 0x17443, size: 0x8, addend: 0x0, symName: __ZNSt3__112construct_atB7v160006IyJyEPyEEPT_S3_DpOT0_, symObjAddr: 0x198C, symBinAddr: 0x100004484, symSize: 0x2C }
  - { offsetInCU: 0x174B3, offset: 0x174B3, size: 0x8, addend: 0x0, symName: __ZNSt3__13maxB7v160006ImEERKT_S3_S3_, symObjAddr: 0x1D08, symBinAddr: 0x100004800, symSize: 0x2C }
  - { offsetInCU: 0x174F6, offset: 0x174F6, size: 0x8, addend: 0x0, symName: __ZNSt3__13minB7v160006ImEERKT_S3_S3_, symObjAddr: 0x1D34, symBinAddr: 0x10000482C, symSize: 0x2C }
  - { offsetInCU: 0x17723, offset: 0x17723, size: 0x8, addend: 0x0, symName: __ZNSt3__13minB7v160006ImNS_6__lessImmEEEERKT_S5_S5_T0_, symObjAddr: 0x1DC4, symBinAddr: 0x1000048BC, symSize: 0x54 }
  - { offsetInCU: 0x179A4, offset: 0x179A4, size: 0x8, addend: 0x0, symName: __ZNSt3__120__throw_length_errorB7v160006EPKc, symObjAddr: 0x1EA8, symBinAddr: 0x1000049A0, symSize: 0x64 }
  - { offsetInCU: 0x179CC, offset: 0x179CC, size: 0x8, addend: 0x0, symName: __ZNSt3__13maxB7v160006ImNS_6__lessImmEEEERKT_S5_S5_T0_, symObjAddr: 0x1FEC, symBinAddr: 0x100004AE4, symSize: 0x54 }
  - { offsetInCU: 0x17A26, offset: 0x17A26, size: 0x8, addend: 0x0, symName: __ZNSt3__119__allocate_at_leastB7v160006INS_9allocatorIyEEEENS_19__allocation_resultINS_16allocator_traitsIT_E7pointerEEERS5_m, symObjAddr: 0x2150, symBinAddr: 0x100004C48, symSize: 0x40 }
  - { offsetInCU: 0x17A69, offset: 0x17A69, size: 0x8, addend: 0x0, symName: __ZNSt3__117__libcpp_allocateB7v160006Emm, symObjAddr: 0x22D4, symBinAddr: 0x100004DCC, symSize: 0x60 }
  - { offsetInCU: 0x17AC3, offset: 0x17AC3, size: 0x8, addend: 0x0, symName: __ZNSt3__124__is_overaligned_for_newB7v160006Em, symObjAddr: 0x2334, symBinAddr: 0x100004E2C, symSize: 0x20 }
  - { offsetInCU: 0x17AF1, offset: 0x17AF1, size: 0x8, addend: 0x0, symName: __ZNSt3__121__libcpp_operator_newB7v160006IJmSt11align_val_tEEEPvDpT_, symObjAddr: 0x2354, symBinAddr: 0x100004E4C, symSize: 0x2C }
  - { offsetInCU: 0x17B3E, offset: 0x17B3E, size: 0x8, addend: 0x0, symName: __ZNSt3__121__libcpp_operator_newB7v160006IJmEEEPvDpT_, symObjAddr: 0x2380, symBinAddr: 0x100004E78, symSize: 0x24 }
  - { offsetInCU: 0x17B77, offset: 0x17B77, size: 0x8, addend: 0x0, symName: __ZNSt3__142__uninitialized_allocator_move_if_noexceptB7v160006INS_9allocatorIyEENS_16reverse_iteratorIPyEES5_yvEET1_RT_T0_S9_S6_, symObjAddr: 0x24C0, symBinAddr: 0x100004FB8, symSize: 0x78 }
  - { offsetInCU: 0x17BF4, offset: 0x17BF4, size: 0x8, addend: 0x0, symName: __ZNSt3__14swapB7v160006IPyEENS_9enable_ifIXaasr21is_move_constructibleIT_EE5valuesr18is_move_assignableIS3_EE5valueEvE4typeERS3_S6_, symObjAddr: 0x2584, symBinAddr: 0x10000507C, symSize: 0x3C }
  - { offsetInCU: 0x17C45, offset: 0x17C45, size: 0x8, addend: 0x0, symName: __ZNSt3__125__debug_db_invalidate_allB7v160006INS_6vectorIyNS_9allocatorIyEEEEEEvPT_, symObjAddr: 0x266C, symBinAddr: 0x100005164, symSize: 0x10 }
  - { offsetInCU: 0x17C76, offset: 0x17C76, size: 0x8, addend: 0x0, symName: __ZNSt3__14moveB7v160006INS_16reverse_iteratorIPyEES3_EET0_T_S5_S4_, symObjAddr: 0x26C4, symBinAddr: 0x1000051BC, symSize: 0x78 }
  - { offsetInCU: 0x17CD0, offset: 0x17CD0, size: 0x8, addend: 0x0, symName: __ZNSt3__16__moveB7v160006INS_17_ClassicAlgPolicyENS_16reverse_iteratorIPyEES4_S4_EENS_4pairIT0_T2_EES6_T1_S7_, symObjAddr: 0x273C, symBinAddr: 0x100005234, symSize: 0x64 }
  - { offsetInCU: 0x17D3C, offset: 0x17D3C, size: 0x8, addend: 0x0, symName: __ZNSt3__123__dispatch_copy_or_moveB7v160006INS_17_ClassicAlgPolicyENS_11__move_loopIS1_EENS_14__move_trivialENS_16reverse_iteratorIPyEES7_S7_EENS_4pairIT2_T4_EES9_T3_SA_, symObjAddr: 0x27A0, symBinAddr: 0x100005298, symSize: 0x64 }
  - { offsetInCU: 0x17DBA, offset: 0x17DBA, size: 0x8, addend: 0x0, symName: __ZNSt3__121__unwrap_and_dispatchB7v160006INS_10__overloadINS_11__move_loopINS_17_ClassicAlgPolicyEEENS_14__move_trivialEEENS_16reverse_iteratorIPyEES9_S9_Li0EEENS_4pairIT0_T2_EESB_T1_SC_, symObjAddr: 0x2804, symBinAddr: 0x1000052FC, symSize: 0x12C }
  - { offsetInCU: 0x17E4A, offset: 0x17E4A, size: 0x8, addend: 0x0, symName: __ZNSt3__114__unwrap_rangeB7v160006INS_16reverse_iteratorIPyEES3_EEDaT_T0_, symObjAddr: 0x2930, symBinAddr: 0x100005428, symSize: 0x4C }
  - { offsetInCU: 0x18004, offset: 0x18004, size: 0x8, addend: 0x0, symName: __ZNSt3__113__unwrap_iterB7v160006INS_16reverse_iteratorIPyEENS_18__unwrap_iter_implIS3_Lb0EEELi0EEEDTclsrT0_8__unwrapclsr3stdE7declvalIT_EEEES7_, symObjAddr: 0x2A1C, symBinAddr: 0x100005514, symSize: 0x44 }
  - { offsetInCU: 0x18048, offset: 0x18048, size: 0x8, addend: 0x0, symName: __ZNSt3__19make_pairB7v160006INS_16reverse_iteratorIPyEES3_EENS_4pairINS_18__unwrap_ref_decayIT_E4typeENS5_IT0_E4typeEEEOS6_OS9_, symObjAddr: 0x2A60, symBinAddr: 0x100005558, symSize: 0x38 }
  - { offsetInCU: 0x18097, offset: 0x18097, size: 0x8, addend: 0x0, symName: __ZNSt3__114__rewrap_rangeB7v160006INS_16reverse_iteratorIPyEES3_S3_EET0_S4_T1_, symObjAddr: 0x2A98, symBinAddr: 0x100005590, symSize: 0x5C }
  - { offsetInCU: 0x180EC, offset: 0x180EC, size: 0x8, addend: 0x0, symName: __ZNSt3__113__rewrap_iterB7v160006INS_16reverse_iteratorIPyEES3_NS_18__unwrap_iter_implIS3_Lb0EEEEET_S6_T0_, symObjAddr: 0x2AF4, symBinAddr: 0x1000055EC, symSize: 0x74 }
  - { offsetInCU: 0x18191, offset: 0x18191, size: 0x8, addend: 0x0, symName: __ZNSt3__1neB7v160006IPyS1_EEbRKNS_16reverse_iteratorIT_EERKNS2_IT0_EE, symObjAddr: 0x2C5C, symBinAddr: 0x100005754, symSize: 0x48 }
  - { offsetInCU: 0x182C2, offset: 0x182C2, size: 0x8, addend: 0x0, symName: __ZNSt3__110destroy_atB7v160006IyLi0EEEvPT_, symObjAddr: 0x2FE8, symBinAddr: 0x100005AE0, symSize: 0x24 }
  - { offsetInCU: 0x182F9, offset: 0x182F9, size: 0x8, addend: 0x0, symName: __ZNSt3__112__destroy_atB7v160006IyLi0EEEvPT_, symObjAddr: 0x300C, symBinAddr: 0x100005B04, symSize: 0x10 }
  - { offsetInCU: 0x18330, offset: 0x18330, size: 0x8, addend: 0x0, symName: __ZNSt3__119__libcpp_deallocateB7v160006EPvmm, symObjAddr: 0x305C, symBinAddr: 0x100005B54, symSize: 0x60 }
  - { offsetInCU: 0x18395, offset: 0x18395, size: 0x8, addend: 0x0, symName: __ZNSt3__127__do_deallocate_handle_sizeB7v160006IJSt11align_val_tEEEvPvmDpT_, symObjAddr: 0x30BC, symBinAddr: 0x100005BB4, symSize: 0x30 }
  - { offsetInCU: 0x183E8, offset: 0x183E8, size: 0x8, addend: 0x0, symName: __ZNSt3__127__do_deallocate_handle_sizeB7v160006IJEEEvPvmDpT_, symObjAddr: 0x30EC, symBinAddr: 0x100005BE4, symSize: 0x28 }
  - { offsetInCU: 0x18426, offset: 0x18426, size: 0x8, addend: 0x0, symName: __ZNSt3__124__libcpp_operator_deleteB7v160006IJPvSt11align_val_tEEEvDpT_, symObjAddr: 0x3114, symBinAddr: 0x100005C0C, symSize: 0x2C }
  - { offsetInCU: 0x1846F, offset: 0x1846F, size: 0x8, addend: 0x0, symName: __ZNSt3__124__libcpp_operator_deleteB7v160006IJPvEEEvDpT_, symObjAddr: 0x3140, symBinAddr: 0x100005C38, symSize: 0x24 }
  - { offsetInCU: 0x184A4, offset: 0x184A4, size: 0x8, addend: 0x0, symName: __ZNSt3__120__throw_out_of_rangeB7v160006EPKc, symObjAddr: 0x31CC, symBinAddr: 0x100005CC4, symSize: 0x64 }
  - { offsetInCU: 0x184CE, offset: 0x184CE, size: 0x8, addend: 0x0, symName: __ZNSt3__112__to_addressB7v160006IsEEPT_S2_, symObjAddr: 0x356C, symBinAddr: 0x100006064, symSize: 0x14 }
  - { offsetInCU: 0x18528, offset: 0x18528, size: 0x8, addend: 0x0, symName: __ZNSt3__112construct_atB7v160006IsJsEPsEEPT_S3_DpOT0_, symObjAddr: 0x35F0, symBinAddr: 0x1000060E8, symSize: 0x2C }
  - { offsetInCU: 0x18598, offset: 0x18598, size: 0x8, addend: 0x0, symName: __ZNSt3__119__allocate_at_leastB7v160006INS_9allocatorIsEEEENS_19__allocation_resultINS_16allocator_traitsIT_E7pointerEEERS5_m, symObjAddr: 0x3B64, symBinAddr: 0x10000665C, symSize: 0x40 }
  - { offsetInCU: 0x185DB, offset: 0x185DB, size: 0x8, addend: 0x0, symName: __ZNSt3__142__uninitialized_allocator_move_if_noexceptB7v160006INS_9allocatorIsEENS_16reverse_iteratorIPsEES5_svEET1_RT_T0_S9_S6_, symObjAddr: 0x3DEC, symBinAddr: 0x1000068E4, symSize: 0x78 }
  - { offsetInCU: 0x18658, offset: 0x18658, size: 0x8, addend: 0x0, symName: __ZNSt3__14swapB7v160006IPsEENS_9enable_ifIXaasr21is_move_constructibleIT_EE5valuesr18is_move_assignableIS3_EE5valueEvE4typeERS3_S6_, symObjAddr: 0x3EB0, symBinAddr: 0x1000069A8, symSize: 0x3C }
  - { offsetInCU: 0x186A9, offset: 0x186A9, size: 0x8, addend: 0x0, symName: __ZNSt3__125__debug_db_invalidate_allB7v160006INS_6vectorIsNS_9allocatorIsEEEEEEvPT_, symObjAddr: 0x3F98, symBinAddr: 0x100006A90, symSize: 0x10 }
  - { offsetInCU: 0x186DA, offset: 0x186DA, size: 0x8, addend: 0x0, symName: __ZNSt3__14moveB7v160006INS_16reverse_iteratorIPsEES3_EET0_T_S5_S4_, symObjAddr: 0x3FF0, symBinAddr: 0x100006AE8, symSize: 0x78 }
  - { offsetInCU: 0x18734, offset: 0x18734, size: 0x8, addend: 0x0, symName: __ZNSt3__16__moveB7v160006INS_17_ClassicAlgPolicyENS_16reverse_iteratorIPsEES4_S4_EENS_4pairIT0_T2_EES6_T1_S7_, symObjAddr: 0x4068, symBinAddr: 0x100006B60, symSize: 0x64 }
  - { offsetInCU: 0x187A0, offset: 0x187A0, size: 0x8, addend: 0x0, symName: __ZNSt3__123__dispatch_copy_or_moveB7v160006INS_17_ClassicAlgPolicyENS_11__move_loopIS1_EENS_14__move_trivialENS_16reverse_iteratorIPsEES7_S7_EENS_4pairIT2_T4_EES9_T3_SA_, symObjAddr: 0x40CC, symBinAddr: 0x100006BC4, symSize: 0x64 }
  - { offsetInCU: 0x1881E, offset: 0x1881E, size: 0x8, addend: 0x0, symName: __ZNSt3__121__unwrap_and_dispatchB7v160006INS_10__overloadINS_11__move_loopINS_17_ClassicAlgPolicyEEENS_14__move_trivialEEENS_16reverse_iteratorIPsEES9_S9_Li0EEENS_4pairIT0_T2_EESB_T1_SC_, symObjAddr: 0x4130, symBinAddr: 0x100006C28, symSize: 0x12C }
  - { offsetInCU: 0x188AE, offset: 0x188AE, size: 0x8, addend: 0x0, symName: __ZNSt3__114__unwrap_rangeB7v160006INS_16reverse_iteratorIPsEES3_EEDaT_T0_, symObjAddr: 0x425C, symBinAddr: 0x100006D54, symSize: 0x4C }
  - { offsetInCU: 0x189CE, offset: 0x189CE, size: 0x8, addend: 0x0, symName: __ZNSt3__113__unwrap_iterB7v160006INS_16reverse_iteratorIPsEENS_18__unwrap_iter_implIS3_Lb0EEELi0EEEDTclsrT0_8__unwrapclsr3stdE7declvalIT_EEEES7_, symObjAddr: 0x4348, symBinAddr: 0x100006E40, symSize: 0x44 }
  - { offsetInCU: 0x18A12, offset: 0x18A12, size: 0x8, addend: 0x0, symName: __ZNSt3__19make_pairB7v160006INS_16reverse_iteratorIPsEES3_EENS_4pairINS_18__unwrap_ref_decayIT_E4typeENS5_IT0_E4typeEEEOS6_OS9_, symObjAddr: 0x438C, symBinAddr: 0x100006E84, symSize: 0x38 }
  - { offsetInCU: 0x18A61, offset: 0x18A61, size: 0x8, addend: 0x0, symName: __ZNSt3__114__rewrap_rangeB7v160006INS_16reverse_iteratorIPsEES3_S3_EET0_S4_T1_, symObjAddr: 0x43C4, symBinAddr: 0x100006EBC, symSize: 0x5C }
  - { offsetInCU: 0x18AB6, offset: 0x18AB6, size: 0x8, addend: 0x0, symName: __ZNSt3__113__rewrap_iterB7v160006INS_16reverse_iteratorIPsEES3_NS_18__unwrap_iter_implIS3_Lb0EEEEET_S6_T0_, symObjAddr: 0x4420, symBinAddr: 0x100006F18, symSize: 0x74 }
  - { offsetInCU: 0x18B5B, offset: 0x18B5B, size: 0x8, addend: 0x0, symName: __ZNSt3__1neB7v160006IPsS1_EEbRKNS_16reverse_iteratorIT_EERKNS2_IT0_EE, symObjAddr: 0x4588, symBinAddr: 0x100007080, symSize: 0x48 }
  - { offsetInCU: 0x18C13, offset: 0x18C13, size: 0x8, addend: 0x0, symName: __ZNSt3__110destroy_atB7v160006IsLi0EEEvPT_, symObjAddr: 0x4914, symBinAddr: 0x10000740C, symSize: 0x24 }
  - { offsetInCU: 0x18C4A, offset: 0x18C4A, size: 0x8, addend: 0x0, symName: __ZNSt3__112__destroy_atB7v160006IsLi0EEEvPT_, symObjAddr: 0x4938, symBinAddr: 0x100007430, symSize: 0x10 }
  - { offsetInCU: 0x18CBF, offset: 0x18CBF, size: 0x8, addend: 0x0, symName: __ZNSt3__118__debug_db_erase_cB7v160006INS_6vectorINS1_IsNS_9allocatorIsEEEENS2_IS4_EEEEEEvPT_, symObjAddr: 0x4EC8, symBinAddr: 0x1000079C0, symSize: 0x10 }
  - { offsetInCU: 0x18CF0, offset: 0x18CF0, size: 0x8, addend: 0x0, symName: __ZNSt3__112__to_addressB7v160006INS_6vectorIsNS_9allocatorIsEEEEEEPT_S6_, symObjAddr: 0x4FE4, symBinAddr: 0x100007ADC, symSize: 0x14 }
  - { offsetInCU: 0x18D25, offset: 0x18D25, size: 0x8, addend: 0x0, symName: __ZNSt3__110destroy_atB7v160006INS_6vectorIsNS_9allocatorIsEEEELi0EEEvPT_, symObjAddr: 0x50AC, symBinAddr: 0x100007BA4, symSize: 0x24 }
  - { offsetInCU: 0x18D5C, offset: 0x18D5C, size: 0x8, addend: 0x0, symName: __ZNSt3__112__destroy_atB7v160006INS_6vectorIsNS_9allocatorIsEEEELi0EEEvPT_, symObjAddr: 0x50D0, symBinAddr: 0x100007BC8, symSize: 0x24 }
  - { offsetInCU: 0x18D93, offset: 0x18D93, size: 0x8, addend: 0x0, symName: __ZNSt3__118__debug_db_erase_cB7v160006INS_6vectorIsNS_9allocatorIsEEEEEEvPT_, symObjAddr: 0x5254, symBinAddr: 0x100007D4C, symSize: 0x10 }
  - { offsetInCU: 0x18DC4, offset: 0x18DC4, size: 0x8, addend: 0x0, symName: __ZNSt3__118__debug_db_erase_cB7v160006INS_6vectorINS1_IyNS_9allocatorIyEEEENS2_IS4_EEEEEEvPT_, symObjAddr: 0x55FC, symBinAddr: 0x1000080F4, symSize: 0x10 }
  - { offsetInCU: 0x18DF5, offset: 0x18DF5, size: 0x8, addend: 0x0, symName: __ZNSt3__112__to_addressB7v160006INS_6vectorIyNS_9allocatorIyEEEEEEPT_S6_, symObjAddr: 0x5718, symBinAddr: 0x100008210, symSize: 0x14 }
  - { offsetInCU: 0x18E2A, offset: 0x18E2A, size: 0x8, addend: 0x0, symName: __ZNSt3__110destroy_atB7v160006INS_6vectorIyNS_9allocatorIyEEEELi0EEEvPT_, symObjAddr: 0x57E0, symBinAddr: 0x1000082D8, symSize: 0x24 }
  - { offsetInCU: 0x18E61, offset: 0x18E61, size: 0x8, addend: 0x0, symName: __ZNSt3__112__destroy_atB7v160006INS_6vectorIyNS_9allocatorIyEEEELi0EEEvPT_, symObjAddr: 0x5804, symBinAddr: 0x1000082FC, symSize: 0x24 }
  - { offsetInCU: 0x18E98, offset: 0x18E98, size: 0x8, addend: 0x0, symName: __ZNSt3__118__debug_db_erase_cB7v160006INS_6vectorIyNS_9allocatorIyEEEEEEvPT_, symObjAddr: 0x5A38, symBinAddr: 0x100008530, symSize: 0x10 }
  - { offsetInCU: 0x18EC9, offset: 0x18EC9, size: 0x8, addend: 0x0, symName: __ZNSt3__17getlineB7v160006IcNS_11char_traitsIcEENS_9allocatorIcEEEERNS_13basic_istreamIT_T0_EES9_RNS_12basic_stringIS6_S7_T1_EES6_, symObjAddr: 0x5C74, symBinAddr: 0x10000876C, symSize: 0x238 }
  - { offsetInCU: 0x18F87, offset: 0x18F87, size: 0x8, addend: 0x0, symName: __ZNSt3__125__debug_db_invalidate_allB7v160006INS_12basic_stringIcNS_11char_traitsIcEENS_9allocatorIcEEEEEEvPT_, symObjAddr: 0x6260, symBinAddr: 0x100008D58, symSize: 0x10 }
  - { offsetInCU: 0x18FB8, offset: 0x18FB8, size: 0x8, addend: 0x0, symName: __ZNSt3__19use_facetB7v160006INS_5ctypeIcEEEERKT_RKNS_6localeE, symObjAddr: 0x653C, symBinAddr: 0x100009034, symSize: 0x2C }
  - { offsetInCU: 0x194BA, offset: 0x194BA, size: 0x8, addend: 0x0, symName: __ZNSt3__110destroy_atB7v160006INS_4pairIKNS_5tupleIJssssEEEyEELi0EEEvPT_, symObjAddr: 0x6BE8, symBinAddr: 0x1000096E0, symSize: 0x24 }
  - { offsetInCU: 0x194F1, offset: 0x194F1, size: 0x8, addend: 0x0, symName: __ZNSt3__112__destroy_atB7v160006INS_4pairIKNS_5tupleIJssssEEEyEELi0EEEvPT_, symObjAddr: 0x6C0C, symBinAddr: 0x100009704, symSize: 0x10 }
  - { offsetInCU: 0x19528, offset: 0x19528, size: 0x8, addend: 0x0, symName: __ZNSt3__17launderB7v160006INS_4pairIKNS_5tupleIJssssEEEyEEEEPT_S7_, symObjAddr: 0x6C40, symBinAddr: 0x100009738, symSize: 0x24 }
  - { offsetInCU: 0x1955F, offset: 0x1955F, size: 0x8, addend: 0x0, symName: __ZNSt3__19__launderB7v160006INS_4pairIKNS_5tupleIJssssEEEyEEEEPT_S7_, symObjAddr: 0x6C64, symBinAddr: 0x10000975C, symSize: 0x14 }
  - { offsetInCU: 0x195CD, offset: 0x195CD, size: 0x8, addend: 0x0, symName: __ZNSt3__116forward_as_tupleB7v160006IJNS_5tupleIJssssEEEEEENS1_IJDpOT_EEES5_, symObjAddr: 0x6E20, symBinAddr: 0x100009918, symSize: 0x2C }
  - { offsetInCU: 0x19606, offset: 0x19606, size: 0x8, addend: 0x0, symName: __ZNSt3__116forward_as_tupleB7v160006IJEEENS_5tupleIJDpOT_EEES4_, symObjAddr: 0x6E4C, symBinAddr: 0x100009944, symSize: 0x4 }
  - { offsetInCU: 0x1962A, offset: 0x1962A, size: 0x8, addend: 0x0, symName: __ZNSt3__1ltB7v160006ENS_15strong_orderingENS_20_CmpUnspecifiedParamE, symObjAddr: 0x7484, symBinAddr: 0x100009F7C, symSize: 0x24 }
  - { offsetInCU: 0x19663, offset: 0x19663, size: 0x8, addend: 0x0, symName: __ZNSt3__1ssB7v160006IJssssEJssssEEENS_26common_comparison_categoryIJDpDTclL_ZNS_17__synth_three_wayB7v160006EEclsr3stdE7declvalIRT_EEclsr3stdE7declvalIRT0_EEEEEE4typeERKNS_5tupleIJDpS2_EEERKNSA_IJDpS4_EEE, symObjAddr: 0x74A8, symBinAddr: 0x100009FA0, symSize: 0x34 }
  - { offsetInCU: 0x196F0, offset: 0x196F0, size: 0x8, addend: 0x0, symName: __ZNSt3__125__tuple_compare_three_wayB7v160006IJssssEJssssEJLm0ELm1ELm2ELm3EEEEDaRKNS_5tupleIJDpT_EEERKNS2_IJDpT0_EEENS_16integer_sequenceImJXspT1_EEEE, symObjAddr: 0x7510, symBinAddr: 0x10000A008, symSize: 0x1B0 }
  - { offsetInCU: 0x19799, offset: 0x19799, size: 0x8, addend: 0x0, symName: __ZNSt3__13getB7v160006ILm0EJssssEEERKNS_13tuple_elementIXT_ENS_5tupleIJDpT0_EEEE4typeERKS5_, symObjAddr: 0x7720, symBinAddr: 0x10000A218, symSize: 0x24 }
  - { offsetInCU: 0x197EB, offset: 0x197EB, size: 0x8, addend: 0x0, symName: __ZNSt3__1eqB7v160006ENS_15strong_orderingENS_20_CmpUnspecifiedParamE, symObjAddr: 0x7744, symBinAddr: 0x10000A23C, symSize: 0x24 }
  - { offsetInCU: 0x19821, offset: 0x19821, size: 0x8, addend: 0x0, symName: __ZNSt3__13getB7v160006ILm1EJssssEEERKNS_13tuple_elementIXT_ENS_5tupleIJDpT0_EEEE4typeERKS5_, symObjAddr: 0x7768, symBinAddr: 0x10000A260, symSize: 0x28 }
  - { offsetInCU: 0x19873, offset: 0x19873, size: 0x8, addend: 0x0, symName: __ZNSt3__13getB7v160006ILm2EJssssEEERKNS_13tuple_elementIXT_ENS_5tupleIJDpT0_EEEE4typeERKS5_, symObjAddr: 0x7790, symBinAddr: 0x10000A288, symSize: 0x28 }
  - { offsetInCU: 0x198C5, offset: 0x198C5, size: 0x8, addend: 0x0, symName: __ZNSt3__13getB7v160006ILm3EJssssEEERKNS_13tuple_elementIXT_ENS_5tupleIJDpT0_EEEE4typeERKS5_, symObjAddr: 0x77B8, symBinAddr: 0x10000A2B0, symSize: 0x28 }
  - { offsetInCU: 0x19917, offset: 0x19917, size: 0x8, addend: 0x0, symName: __ZNSt3__17launderB7v160006IKNS_4pairIKNS_5tupleIJssssEEEyEEEEPT_S8_, symObjAddr: 0x7848, symBinAddr: 0x10000A340, symSize: 0x24 }
  - { offsetInCU: 0x1994E, offset: 0x1994E, size: 0x8, addend: 0x0, symName: __ZNSt3__19__launderB7v160006IKNS_4pairIKNS_5tupleIJssssEEEyEEEEPT_S8_, symObjAddr: 0x786C, symBinAddr: 0x10000A364, symSize: 0x14 }
  - { offsetInCU: 0x199C8, offset: 0x199C8, size: 0x8, addend: 0x0, symName: __ZNSt3__112construct_atB7v160006INS_4pairIKNS_5tupleIJssssEEEyEEJRKNS_21piecewise_construct_tENS2_IJOS3_EEENS2_IJEEEEPS5_EEPT_SE_DpOT0_, symObjAddr: 0x7B8C, symBinAddr: 0x10000A684, symSize: 0x50 }
  - { offsetInCU: 0x19A5E, offset: 0x19A5E, size: 0x8, addend: 0x0, symName: __ZNSt3__13getB7v160006ILm0EJONS_5tupleIJssssEEEEEERNS_13tuple_elementIXT_ENS1_IJDpT0_EEEE4typeERS7_, symObjAddr: 0x7CA4, symBinAddr: 0x10000A79C, symSize: 0x24 }
  - { offsetInCU: 0x19AA1, offset: 0x19AA1, size: 0x8, addend: 0x0, symName: __ZNSt3__127__tree_balance_after_insertB7v160006IPNS_16__tree_node_baseIPvEEEEvT_S5_, symObjAddr: 0x7D54, symBinAddr: 0x10000A84C, symSize: 0x32C }
  - { offsetInCU: 0x19B1D, offset: 0x19B1D, size: 0x8, addend: 0x0, symName: __ZNSt3__120__tree_is_left_childB7v160006IPNS_16__tree_node_baseIPvEEEEbT_, symObjAddr: 0x80C0, symBinAddr: 0x10000ABB8, symSize: 0x2C }
  - { offsetInCU: 0x19B52, offset: 0x19B52, size: 0x8, addend: 0x0, symName: __ZNSt3__118__tree_left_rotateB7v160006IPNS_16__tree_node_baseIPvEEEEvT_, symObjAddr: 0x80EC, symBinAddr: 0x10000ABE4, symSize: 0xD8 }
  - { offsetInCU: 0x19B94, offset: 0x19B94, size: 0x8, addend: 0x0, symName: __ZNSt3__119__tree_right_rotateB7v160006IPNS_16__tree_node_baseIPvEEEEvT_, symObjAddr: 0x81C4, symBinAddr: 0x10000ACBC, symSize: 0xCC }
  - { offsetInCU: 0x19C1E, offset: 0x19C1E, size: 0x8, addend: 0x0, symName: __ZNSt3__1neB7v160006ERKNS_15__tree_iteratorINS_12__value_typeINS_5tupleIJssssEEEyEEPNS_11__tree_nodeIS4_PvEElEESB_, symObjAddr: 0x86E4, symBinAddr: 0x10000B1DC, symSize: 0x34 }
  - { offsetInCU: 0x19C5B, offset: 0x19C5B, size: 0x8, addend: 0x0, symName: __ZNSt3__1eqB7v160006ERKNS_15__tree_iteratorINS_12__value_typeINS_5tupleIJssssEEEyEEPNS_11__tree_nodeIS4_PvEElEESB_, symObjAddr: 0x8718, symBinAddr: 0x10000B210, symSize: 0x30 }
  - { offsetInCU: 0x19C98, offset: 0x19C98, size: 0x8, addend: 0x0, symName: __ZNSt3__116__tree_next_iterB7v160006IPNS_15__tree_end_nodeIPNS_16__tree_node_baseIPvEEEES5_EET_T0_, symObjAddr: 0x8780, symBinAddr: 0x10000B278, symSize: 0x80 }
  - { offsetInCU: 0x19CD6, offset: 0x19CD6, size: 0x8, addend: 0x0, symName: __ZNSt3__110__tree_minB7v160006IPNS_16__tree_node_baseIPvEEEET_S5_, symObjAddr: 0x8800, symBinAddr: 0x10000B2F8, symSize: 0x40 }
  - { offsetInCU: 0x1A2F5, offset: 0x1A2F5, size: 0x8, addend: 0x0, symName: __ZSt28__throw_bad_array_new_lengthB7v160006v, symObjAddr: 0x22A0, symBinAddr: 0x100004D98, symSize: 0x34 }
  - { offsetInCU: 0x1AF22, offset: 0x1AF22, size: 0x8, addend: 0x0, symName: __ZNSt3__16vectorIyNS_9allocatorIyEEE26__swap_out_circular_bufferERNS_14__split_bufferIyRS2_EE, symObjAddr: 0x1B08, symBinAddr: 0x100004600, symSize: 0x118 }
  - { offsetInCU: 0x1B22A, offset: 0x1B22A, size: 0x8, addend: 0x0, symName: __ZNSt3__16vectorIsNS_9allocatorIsEEE26__swap_out_circular_bufferERNS_14__split_bufferIsRS2_EE, symObjAddr: 0x376C, symBinAddr: 0x100006264, symSize: 0x118 }
  - { offsetInCU: 0x1DB28, offset: 0x1DB28, size: 0x8, addend: 0x0, symName: _main, symObjAddr: 0x0, symBinAddr: 0x100002AF8, symSize: 0x730 }
  - { offsetInCU: 0x1DD00, offset: 0x1DD00, size: 0x8, addend: 0x0, symName: __ZNSt3__16vectorIyNS_9allocatorIyEEEC1B7v160006Ev, symObjAddr: 0x730, symBinAddr: 0x100003228, symSize: 0x2C }
  - { offsetInCU: 0x1DD2A, offset: 0x1DD2A, size: 0x8, addend: 0x0, symName: __ZNSt3__16vectorINS0_IyNS_9allocatorIyEEEENS1_IS3_EEEC1B7v160006Ev, symObjAddr: 0x75C, symBinAddr: 0x100003254, symSize: 0x2C }
  - { offsetInCU: 0x1DD54, offset: 0x1DD54, size: 0x8, addend: 0x0, symName: __ZNSt3__16vectorINS0_IsNS_9allocatorIsEEEENS1_IS3_EEEC1B7v160006Ev, symObjAddr: 0x788, symBinAddr: 0x100003280, symSize: 0x2C }
  - { offsetInCU: 0x1DD7E, offset: 0x1DD7E, size: 0x8, addend: 0x0, symName: __ZNSt3__112basic_stringIcNS_11char_traitsIcEENS_9allocatorIcEEEC1B7v160006Ev, symObjAddr: 0x7B4, symBinAddr: 0x1000032AC, symSize: 0x2C }
  - { offsetInCU: 0x1DF6F, offset: 0x1DF6F, size: 0x8, addend: 0x0, symName: __ZNSt3__114basic_ifstreamIcNS_11char_traitsIcEEEC1EPKcj, symObjAddr: 0x7E0, symBinAddr: 0x1000032D8, symSize: 0x16C }
  - { offsetInCU: 0x1DFB9, offset: 0x1DFB9, size: 0x8, addend: 0x0, symName: __ZNKSt3__19basic_iosIcNS_11char_traitsIcEEEcvbB7v160006Ev, symObjAddr: 0x9A8, symBinAddr: 0x1000034A0, symSize: 0x2C }
  - { offsetInCU: 0x1DFDF, offset: 0x1DFDF, size: 0x8, addend: 0x0, symName: __ZNSt3__16vectorIyNS_9allocatorIyEEE9push_backB7v160006EOy, symObjAddr: 0x9D4, symBinAddr: 0x1000034CC, symSize: 0x6C }
  - { offsetInCU: 0x1E016, offset: 0x1E016, size: 0x8, addend: 0x0, symName: __ZNKSt3__16vectorIyNS_9allocatorIyEEE4sizeB7v160006Ev, symObjAddr: 0xA40, symBinAddr: 0x100003538, symSize: 0x28 }
  - { offsetInCU: 0x1E03C, offset: 0x1E03C, size: 0x8, addend: 0x0, symName: __ZNSt3__16vectorIyNS_9allocatorIyEEE2atEm, symObjAddr: 0xA68, symBinAddr: 0x100003560, symSize: 0x60 }
  - { offsetInCU: 0x1E073, offset: 0x1E073, size: 0x8, addend: 0x0, symName: __ZNSt3__16vectorINS0_IyNS_9allocatorIyEEEENS1_IS3_EEE2atEm, symObjAddr: 0xAC8, symBinAddr: 0x1000035C0, symSize: 0x68 }
  - { offsetInCU: 0x1E0AA, offset: 0x1E0AA, size: 0x8, addend: 0x0, symName: __ZNSt3__16vectorINS0_IsNS_9allocatorIsEEEENS1_IS3_EEE2atEm, symObjAddr: 0xB30, symBinAddr: 0x100003628, symSize: 0x68 }
  - { offsetInCU: 0x1E0E1, offset: 0x1E0E1, size: 0x8, addend: 0x0, symName: __ZNSt3__16vectorIsNS_9allocatorIsEEE9push_backB7v160006EOs, symObjAddr: 0xB98, symBinAddr: 0x100003690, symSize: 0x6C }
  - { offsetInCU: 0x1E118, offset: 0x1E118, size: 0x8, addend: 0x0, symName: __ZNSt3__13mapINS_5tupleIJssssEEEyNS_4lessIS2_EENS_9allocatorINS_4pairIKS2_yEEEEEC1B7v160006Ev, symObjAddr: 0xC04, symBinAddr: 0x1000036FC, symSize: 0x2C }
  - { offsetInCU: 0x1E142, offset: 0x1E142, size: 0x8, addend: 0x0, symName: __ZNKSt3__16vectorINS0_IsNS_9allocatorIsEEEENS1_IS3_EEE4sizeB7v160006Ev, symObjAddr: 0xC30, symBinAddr: 0x100003728, symSize: 0x28 }
  - { offsetInCU: 0x1E168, offset: 0x1E168, size: 0x8, addend: 0x0, symName: __ZNSt3__16vectorINS0_IsNS_9allocatorIsEEEENS1_IS3_EEE5frontB7v160006Ev, symObjAddr: 0xC58, symBinAddr: 0x100003750, symSize: 0x18 }
  - { offsetInCU: 0x1E18E, offset: 0x1E18E, size: 0x8, addend: 0x0, symName: __ZNKSt3__16vectorIsNS_9allocatorIsEEE4sizeB7v160006Ev, symObjAddr: 0xC70, symBinAddr: 0x100003768, symSize: 0x28 }
  - { offsetInCU: 0x1E1B4, offset: 0x1E1B4, size: 0x8, addend: 0x0, symName: __ZNSt3__13mapINS_5tupleIJssssEEEyNS_4lessIS2_EENS_9allocatorINS_4pairIKS2_yEEEEEixEOS2_, symObjAddr: 0xC98, symBinAddr: 0x100003790, symSize: 0x80 }
  - { offsetInCU: 0x1E1EB, offset: 0x1E1EB, size: 0x8, addend: 0x0, symName: __ZNSt3__16vectorIsNS_9allocatorIsEEE2atEm, symObjAddr: 0xD18, symBinAddr: 0x100003810, symSize: 0x60 }
  - { offsetInCU: 0x1E222, offset: 0x1E222, size: 0x8, addend: 0x0, symName: __ZNSt3__15tupleIJssssEEC1B7v160006IJRsS3_S3_S3_ELi0EEEDpOT_, symObjAddr: 0xD78, symBinAddr: 0x100003870, symSize: 0x4C }
  - { offsetInCU: 0x1E2A8, offset: 0x1E2A8, size: 0x8, addend: 0x0, symName: __ZNSt3__13mapINS_5tupleIJssssEEEyNS_4lessIS2_EENS_9allocatorINS_4pairIKS2_yEEEEE5beginB7v160006Ev, symObjAddr: 0xDC4, symBinAddr: 0x1000038BC, symSize: 0x38 }
  - { offsetInCU: 0x1E2CE, offset: 0x1E2CE, size: 0x8, addend: 0x0, symName: __ZNSt3__13mapINS_5tupleIJssssEEEyNS_4lessIS2_EENS_9allocatorINS_4pairIKS2_yEEEEE3endB7v160006Ev, symObjAddr: 0xDFC, symBinAddr: 0x1000038F4, symSize: 0x38 }
  - { offsetInCU: 0x1E2F4, offset: 0x1E2F4, size: 0x8, addend: 0x0, symName: __ZNKSt3__114__map_iteratorINS_15__tree_iteratorINS_12__value_typeINS_5tupleIJssssEEEyEEPNS_11__tree_nodeIS5_PvEElEEEdeB7v160006Ev, symObjAddr: 0xE64, symBinAddr: 0x10000395C, symSize: 0x28 }
  - { offsetInCU: 0x1E31A, offset: 0x1E31A, size: 0x8, addend: 0x0, symName: __ZNSt3__114__map_iteratorINS_15__tree_iteratorINS_12__value_typeINS_5tupleIJssssEEEyEEPNS_11__tree_nodeIS5_PvEElEEEppB7v160006Ev, symObjAddr: 0xE8C, symBinAddr: 0x100003984, symSize: 0x2C }
  - { offsetInCU: 0x1E340, offset: 0x1E340, size: 0x8, addend: 0x0, symName: __ZNSt3__16vectorIyNS_9allocatorIyEEE5beginB7v160006Ev, symObjAddr: 0xEB8, symBinAddr: 0x1000039B0, symSize: 0x30 }
  - { offsetInCU: 0x1E368, offset: 0x1E368, size: 0x8, addend: 0x0, symName: __ZNSt3__16vectorIyNS_9allocatorIyEEE3endB7v160006Ev, symObjAddr: 0xF30, symBinAddr: 0x100003A28, symSize: 0x30 }
  - { offsetInCU: 0x1E390, offset: 0x1E390, size: 0x8, addend: 0x0, symName: __ZNKSt3__111__wrap_iterIPyEdeB7v160006Ev, symObjAddr: 0xF60, symBinAddr: 0x100003A58, symSize: 0x18 }
  - { offsetInCU: 0x1E3B6, offset: 0x1E3B6, size: 0x8, addend: 0x0, symName: __ZNSt3__111__wrap_iterIPyEppB7v160006Ev, symObjAddr: 0xF78, symBinAddr: 0x100003A70, symSize: 0x20 }
  - { offsetInCU: 0x1E3DC, offset: 0x1E3DC, size: 0x8, addend: 0x0, symName: __ZNSt3__13mapINS_5tupleIJssssEEEyNS_4lessIS2_EENS_9allocatorINS_4pairIKS2_yEEEEED1B7v160006Ev, symObjAddr: 0xF98, symBinAddr: 0x100003A90, symSize: 0x2C }
  - { offsetInCU: 0x1E40C, offset: 0x1E40C, size: 0x8, addend: 0x0, symName: __ZNSt3__114basic_ifstreamIcNS_11char_traitsIcEEED1Ev, symObjAddr: 0xFC4, symBinAddr: 0x100003ABC, symSize: 0x40 }
  - { offsetInCU: 0x1E439, offset: 0x1E439, size: 0x8, addend: 0x0, symName: __ZNSt3__16vectorINS0_IsNS_9allocatorIsEEEENS1_IS3_EEED1B7v160006Ev, symObjAddr: 0x1004, symBinAddr: 0x100003AFC, symSize: 0x2C }
  - { offsetInCU: 0x1E463, offset: 0x1E463, size: 0x8, addend: 0x0, symName: __ZNSt3__16vectorINS0_IyNS_9allocatorIyEEEENS1_IS3_EEED1B7v160006Ev, symObjAddr: 0x1030, symBinAddr: 0x100003B28, symSize: 0x2C }
  - { offsetInCU: 0x1E48D, offset: 0x1E48D, size: 0x8, addend: 0x0, symName: __ZNSt3__16vectorIyNS_9allocatorIyEEED1B7v160006Ev, symObjAddr: 0x105C, symBinAddr: 0x100003B54, symSize: 0x2C }
  - { offsetInCU: 0x1E4B7, offset: 0x1E4B7, size: 0x8, addend: 0x0, symName: __ZNSt3__16vectorIyNS_9allocatorIyEEEC2B7v160006Ev, symObjAddr: 0x1088, symBinAddr: 0x100003B80, symSize: 0x58 }
  - { offsetInCU: 0x1E4ED, offset: 0x1E4ED, size: 0x8, addend: 0x0, symName: __ZNSt3__117__compressed_pairIPyNS_9allocatorIyEEEC1B7v160006IDnNS_18__default_init_tagEEEOT_OT0_, symObjAddr: 0x10E0, symBinAddr: 0x100003BD8, symSize: 0x3C }
  - { offsetInCU: 0x1E545, offset: 0x1E545, size: 0x8, addend: 0x0, symName: __ZNSt3__117__compressed_pairIPyNS_9allocatorIyEEEC2B7v160006IDnNS_18__default_init_tagEEEOT_OT0_, symObjAddr: 0x1138, symBinAddr: 0x100003C30, symSize: 0x40 }
  - { offsetInCU: 0x1E59D, offset: 0x1E59D, size: 0x8, addend: 0x0, symName: __ZNSt3__122__compressed_pair_elemIPyLi0ELb0EEC2B7v160006IDnvEEOT_, symObjAddr: 0x1178, symBinAddr: 0x100003C70, symSize: 0x1C }
  - { offsetInCU: 0x1E5DF, offset: 0x1E5DF, size: 0x8, addend: 0x0, symName: __ZNSt3__122__compressed_pair_elemINS_9allocatorIyEELi1ELb1EEC2B7v160006ENS_18__default_init_tagE, symObjAddr: 0x1194, symBinAddr: 0x100003C8C, symSize: 0x2C }
  - { offsetInCU: 0x1E613, offset: 0x1E613, size: 0x8, addend: 0x0, symName: __ZNSt3__19allocatorIyEC2B7v160006Ev, symObjAddr: 0x11C0, symBinAddr: 0x100003CB8, symSize: 0x2C }
  - { offsetInCU: 0x1E63D, offset: 0x1E63D, size: 0x8, addend: 0x0, symName: __ZNSt3__116__non_trivial_ifILb1ENS_9allocatorIyEEEC2B7v160006Ev, symObjAddr: 0x11EC, symBinAddr: 0x100003CE4, symSize: 0x14 }
  - { offsetInCU: 0x1E667, offset: 0x1E667, size: 0x8, addend: 0x0, symName: __ZNSt3__16vectorINS0_IyNS_9allocatorIyEEEENS1_IS3_EEEC2B7v160006Ev, symObjAddr: 0x1200, symBinAddr: 0x100003CF8, symSize: 0x58 }
  - { offsetInCU: 0x1E691, offset: 0x1E691, size: 0x8, addend: 0x0, symName: __ZNSt3__117__compressed_pairIPNS_6vectorIyNS_9allocatorIyEEEENS2_IS4_EEEC1B7v160006IDnNS_18__default_init_tagEEEOT_OT0_, symObjAddr: 0x1258, symBinAddr: 0x100003D50, symSize: 0x3C }
  - { offsetInCU: 0x1E6E9, offset: 0x1E6E9, size: 0x8, addend: 0x0, symName: __ZNSt3__117__compressed_pairIPNS_6vectorIyNS_9allocatorIyEEEENS2_IS4_EEEC2B7v160006IDnNS_18__default_init_tagEEEOT_OT0_, symObjAddr: 0x12A4, symBinAddr: 0x100003D9C, symSize: 0x40 }
  - { offsetInCU: 0x1E741, offset: 0x1E741, size: 0x8, addend: 0x0, symName: __ZNSt3__122__compressed_pair_elemIPNS_6vectorIyNS_9allocatorIyEEEELi0ELb0EEC2B7v160006IDnvEEOT_, symObjAddr: 0x12E4, symBinAddr: 0x100003DDC, symSize: 0x1C }
  - { offsetInCU: 0x1E783, offset: 0x1E783, size: 0x8, addend: 0x0, symName: __ZNSt3__122__compressed_pair_elemINS_9allocatorINS_6vectorIyNS1_IyEEEEEELi1ELb1EEC2B7v160006ENS_18__default_init_tagE, symObjAddr: 0x1300, symBinAddr: 0x100003DF8, symSize: 0x2C }
  - { offsetInCU: 0x1E7B7, offset: 0x1E7B7, size: 0x8, addend: 0x0, symName: __ZNSt3__19allocatorINS_6vectorIyNS0_IyEEEEEC2B7v160006Ev, symObjAddr: 0x132C, symBinAddr: 0x100003E24, symSize: 0x2C }
  - { offsetInCU: 0x1E7E1, offset: 0x1E7E1, size: 0x8, addend: 0x0, symName: __ZNSt3__116__non_trivial_ifILb1ENS_9allocatorINS_6vectorIyNS1_IyEEEEEEEC2B7v160006Ev, symObjAddr: 0x1358, symBinAddr: 0x100003E50, symSize: 0x14 }
  - { offsetInCU: 0x1E80B, offset: 0x1E80B, size: 0x8, addend: 0x0, symName: __ZNSt3__16vectorINS0_IsNS_9allocatorIsEEEENS1_IS3_EEEC2B7v160006Ev, symObjAddr: 0x136C, symBinAddr: 0x100003E64, symSize: 0x58 }
  - { offsetInCU: 0x1E835, offset: 0x1E835, size: 0x8, addend: 0x0, symName: __ZNSt3__117__compressed_pairIPNS_6vectorIsNS_9allocatorIsEEEENS2_IS4_EEEC1B7v160006IDnNS_18__default_init_tagEEEOT_OT0_, symObjAddr: 0x13C4, symBinAddr: 0x100003EBC, symSize: 0x3C }
  - { offsetInCU: 0x1E88D, offset: 0x1E88D, size: 0x8, addend: 0x0, symName: __ZNSt3__117__compressed_pairIPNS_6vectorIsNS_9allocatorIsEEEENS2_IS4_EEEC2B7v160006IDnNS_18__default_init_tagEEEOT_OT0_, symObjAddr: 0x1410, symBinAddr: 0x100003F08, symSize: 0x40 }
  - { offsetInCU: 0x1E8E5, offset: 0x1E8E5, size: 0x8, addend: 0x0, symName: __ZNSt3__122__compressed_pair_elemIPNS_6vectorIsNS_9allocatorIsEEEELi0ELb0EEC2B7v160006IDnvEEOT_, symObjAddr: 0x1450, symBinAddr: 0x100003F48, symSize: 0x1C }
  - { offsetInCU: 0x1E927, offset: 0x1E927, size: 0x8, addend: 0x0, symName: __ZNSt3__122__compressed_pair_elemINS_9allocatorINS_6vectorIsNS1_IsEEEEEELi1ELb1EEC2B7v160006ENS_18__default_init_tagE, symObjAddr: 0x146C, symBinAddr: 0x100003F64, symSize: 0x2C }
  - { offsetInCU: 0x1E95B, offset: 0x1E95B, size: 0x8, addend: 0x0, symName: __ZNSt3__19allocatorINS_6vectorIsNS0_IsEEEEEC2B7v160006Ev, symObjAddr: 0x1498, symBinAddr: 0x100003F90, symSize: 0x2C }
  - { offsetInCU: 0x1E985, offset: 0x1E985, size: 0x8, addend: 0x0, symName: __ZNSt3__116__non_trivial_ifILb1ENS_9allocatorINS_6vectorIsNS1_IsEEEEEEEC2B7v160006Ev, symObjAddr: 0x14C4, symBinAddr: 0x100003FBC, symSize: 0x14 }
  - { offsetInCU: 0x1E9AF, offset: 0x1E9AF, size: 0x8, addend: 0x0, symName: __ZNSt3__112basic_stringIcNS_11char_traitsIcEENS_9allocatorIcEEEC2B7v160006Ev, symObjAddr: 0x14D8, symBinAddr: 0x100003FD0, symSize: 0x54 }
  - { offsetInCU: 0x1E9D9, offset: 0x1E9D9, size: 0x8, addend: 0x0, symName: __ZNSt3__117__compressed_pairINS_12basic_stringIcNS_11char_traitsIcEENS_9allocatorIcEEE5__repES5_EC1B7v160006INS_18__default_init_tagESA_EEOT_OT0_, symObjAddr: 0x152C, symBinAddr: 0x100004024, symSize: 0x3C }
  - { offsetInCU: 0x1EA31, offset: 0x1EA31, size: 0x8, addend: 0x0, symName: __ZNSt3__112basic_stringIcNS_11char_traitsIcEENS_9allocatorIcEEE14__default_initB7v160006Ev, symObjAddr: 0x1578, symBinAddr: 0x100004070, symSize: 0x40 }
  - { offsetInCU: 0x1EA57, offset: 0x1EA57, size: 0x8, addend: 0x0, symName: __ZNSt3__117__compressed_pairINS_12basic_stringIcNS_11char_traitsIcEENS_9allocatorIcEEE5__repES5_EC2B7v160006INS_18__default_init_tagESA_EEOT_OT0_, symObjAddr: 0x15B8, symBinAddr: 0x1000040B0, symSize: 0x3C }
  - { offsetInCU: 0x1EAAF, offset: 0x1EAAF, size: 0x8, addend: 0x0, symName: __ZNSt3__122__compressed_pair_elemINS_12basic_stringIcNS_11char_traitsIcEENS_9allocatorIcEEE5__repELi0ELb0EEC2B7v160006ENS_18__default_init_tagE, symObjAddr: 0x15F4, symBinAddr: 0x1000040EC, symSize: 0x14 }
  - { offsetInCU: 0x1EAE3, offset: 0x1EAE3, size: 0x8, addend: 0x0, symName: __ZNSt3__122__compressed_pair_elemINS_9allocatorIcEELi1ELb1EEC2B7v160006ENS_18__default_init_tagE, symObjAddr: 0x1608, symBinAddr: 0x100004100, symSize: 0x2C }
  - { offsetInCU: 0x1EB17, offset: 0x1EB17, size: 0x8, addend: 0x0, symName: __ZNSt3__19allocatorIcEC2B7v160006Ev, symObjAddr: 0x1634, symBinAddr: 0x10000412C, symSize: 0x2C }
  - { offsetInCU: 0x1EB41, offset: 0x1EB41, size: 0x8, addend: 0x0, symName: __ZNSt3__116__non_trivial_ifILb1ENS_9allocatorIcEEEC2B7v160006Ev, symObjAddr: 0x1660, symBinAddr: 0x100004158, symSize: 0x14 }
  - { offsetInCU: 0x1EB6B, offset: 0x1EB6B, size: 0x8, addend: 0x0, symName: __ZNSt3__117__compressed_pairINS_12basic_stringIcNS_11char_traitsIcEENS_9allocatorIcEEE5__repES5_E5firstB7v160006Ev, symObjAddr: 0x1674, symBinAddr: 0x10000416C, symSize: 0x24 }
  - { offsetInCU: 0x1EB91, offset: 0x1EB91, size: 0x8, addend: 0x0, symName: __ZNSt3__122__compressed_pair_elemINS_12basic_stringIcNS_11char_traitsIcEENS_9allocatorIcEEE5__repELi0ELb0EE5__getB7v160006Ev, symObjAddr: 0x1698, symBinAddr: 0x100004190, symSize: 0x14 }
  - { offsetInCU: 0x1EBB7, offset: 0x1EBB7, size: 0x8, addend: 0x0, symName: __ZNSt3__16vectorIyNS_9allocatorIyEEE9__end_capB7v160006Ev, symObjAddr: 0x16AC, symBinAddr: 0x1000041A4, symSize: 0x28 }
  - { offsetInCU: 0x1EBE3, offset: 0x1EBE3, size: 0x8, addend: 0x0, symName: __ZNSt3__16vectorIyNS_9allocatorIyEEE22__construct_one_at_endB7v160006IJyEEEvDpOT_, symObjAddr: 0x16D4, symBinAddr: 0x1000041CC, symSize: 0x90 }
  - { offsetInCU: 0x1EC32, offset: 0x1EC32, size: 0x8, addend: 0x0, symName: __ZNSt3__16vectorIyNS_9allocatorIyEEE21__push_back_slow_pathIyEEvOT_, symObjAddr: 0x1764, symBinAddr: 0x10000425C, symSize: 0xD8 }
  - { offsetInCU: 0x1EC90, offset: 0x1EC90, size: 0x8, addend: 0x0, symName: __ZNSt3__117__compressed_pairIPyNS_9allocatorIyEEE5firstB7v160006Ev, symObjAddr: 0x183C, symBinAddr: 0x100004334, symSize: 0x24 }
  - { offsetInCU: 0x1ECB6, offset: 0x1ECB6, size: 0x8, addend: 0x0, symName: __ZNSt3__122__compressed_pair_elemIPyLi0ELb0EE5__getB7v160006Ev, symObjAddr: 0x1860, symBinAddr: 0x100004358, symSize: 0x14 }
  - { offsetInCU: 0x1ECF8, offset: 0x1ECF8, size: 0x8, addend: 0x0, symName: __ZNSt3__16vectorIyNS_9allocatorIyEEE21_ConstructTransactionC1B7v160006ERS3_m, symObjAddr: 0x1874, symBinAddr: 0x10000436C, symSize: 0x3C }
  - { offsetInCU: 0x1ED40, offset: 0x1ED40, size: 0x8, addend: 0x0, symName: __ZNSt3__116allocator_traitsINS_9allocatorIyEEE9constructB7v160006IyJyEvvEEvRS2_PT_DpOT0_, symObjAddr: 0x18B0, symBinAddr: 0x1000043A8, symSize: 0x30 }
  - { offsetInCU: 0x1ED94, offset: 0x1ED94, size: 0x8, addend: 0x0, symName: __ZNSt3__16vectorIyNS_9allocatorIyEEE7__allocB7v160006Ev, symObjAddr: 0x18E0, symBinAddr: 0x1000043D8, symSize: 0x28 }
  - { offsetInCU: 0x1EDBA, offset: 0x1EDBA, size: 0x8, addend: 0x0, symName: __ZNSt3__16vectorIyNS_9allocatorIyEEE21_ConstructTransactionD1B7v160006Ev, symObjAddr: 0x191C, symBinAddr: 0x100004414, symSize: 0x2C }
  - { offsetInCU: 0x1EDE4, offset: 0x1EDE4, size: 0x8, addend: 0x0, symName: __ZNSt3__16vectorIyNS_9allocatorIyEEE21_ConstructTransactionC2B7v160006ERS3_m, symObjAddr: 0x1948, symBinAddr: 0x100004440, symSize: 0x44 }
  - { offsetInCU: 0x1EE2C, offset: 0x1EE2C, size: 0x8, addend: 0x0, symName: __ZNSt3__117__compressed_pairIPyNS_9allocatorIyEEE6secondB7v160006Ev, symObjAddr: 0x19B8, symBinAddr: 0x1000044B0, symSize: 0x24 }
  - { offsetInCU: 0x1EE52, offset: 0x1EE52, size: 0x8, addend: 0x0, symName: __ZNSt3__122__compressed_pair_elemINS_9allocatorIyEELi1ELb1EE5__getB7v160006Ev, symObjAddr: 0x19DC, symBinAddr: 0x1000044D4, symSize: 0x14 }
  - { offsetInCU: 0x1EE78, offset: 0x1EE78, size: 0x8, addend: 0x0, symName: __ZNSt3__16vectorIyNS_9allocatorIyEEE21_ConstructTransactionD2B7v160006Ev, symObjAddr: 0x19F0, symBinAddr: 0x1000044E8, symSize: 0x20 }
  - { offsetInCU: 0x1EEA2, offset: 0x1EEA2, size: 0x8, addend: 0x0, symName: __ZNKSt3__16vectorIyNS_9allocatorIyEEE11__recommendB7v160006Em, symObjAddr: 0x1A10, symBinAddr: 0x100004508, symSize: 0xB4 }
  - { offsetInCU: 0x1EEF7, offset: 0x1EEF7, size: 0x8, addend: 0x0, symName: __ZNSt3__114__split_bufferIyRNS_9allocatorIyEEEC1EmmS3_, symObjAddr: 0x1AC4, symBinAddr: 0x1000045BC, symSize: 0x44 }
  - { offsetInCU: 0x1EF4D, offset: 0x1EF4D, size: 0x8, addend: 0x0, symName: __ZNSt3__114__split_bufferIyRNS_9allocatorIyEEED1Ev, symObjAddr: 0x1C20, symBinAddr: 0x100004718, symSize: 0x2C }
  - { offsetInCU: 0x1EF79, offset: 0x1EF79, size: 0x8, addend: 0x0, symName: __ZNKSt3__16vectorIyNS_9allocatorIyEEE8max_sizeEv, symObjAddr: 0x1C4C, symBinAddr: 0x100004744, symSize: 0x60 }
  - { offsetInCU: 0x1EFA1, offset: 0x1EFA1, size: 0x8, addend: 0x0, symName: __ZNKSt3__16vectorIyNS_9allocatorIyEEE20__throw_length_errorB7v160006Ev, symObjAddr: 0x1CAC, symBinAddr: 0x1000047A4, symSize: 0x1C }
  - { offsetInCU: 0x1EFC7, offset: 0x1EFC7, size: 0x8, addend: 0x0, symName: __ZNKSt3__16vectorIyNS_9allocatorIyEEE8capacityB7v160006Ev, symObjAddr: 0x1CC8, symBinAddr: 0x1000047C0, symSize: 0x40 }
  - { offsetInCU: 0x1EFF8, offset: 0x1EFF8, size: 0x8, addend: 0x0, symName: __ZNSt3__116allocator_traitsINS_9allocatorIyEEE8max_sizeB7v160006IS2_vvEEmRKS2_, symObjAddr: 0x1D60, symBinAddr: 0x100004858, symSize: 0x28 }
  - { offsetInCU: 0x1F023, offset: 0x1F023, size: 0x8, addend: 0x0, symName: __ZNKSt3__16vectorIyNS_9allocatorIyEEE7__allocB7v160006Ev, symObjAddr: 0x1D88, symBinAddr: 0x100004880, symSize: 0x28 }
  - { offsetInCU: 0x1F049, offset: 0x1F049, size: 0x8, addend: 0x0, symName: __ZNSt3__114numeric_limitsIlE3maxB7v160006Ev, symObjAddr: 0x1DB0, symBinAddr: 0x1000048A8, symSize: 0x14 }
  - { offsetInCU: 0x1F068, offset: 0x1F068, size: 0x8, addend: 0x0, symName: __ZNKSt3__16__lessImmEclB7v160006ERKmS3_, symObjAddr: 0x1E18, symBinAddr: 0x100004910, symSize: 0x34 }
  - { offsetInCU: 0x1F0AA, offset: 0x1F0AA, size: 0x8, addend: 0x0, symName: __ZNSt3__114numeric_limitsImE3maxB7v160006Ev, symObjAddr: 0x1E4C, symBinAddr: 0x100004944, symSize: 0x14 }
  - { offsetInCU: 0x1F0BE, offset: 0x1F0BE, size: 0x8, addend: 0x0, symName: __ZNSt3__123__libcpp_numeric_limitsImLb1EE3maxB7v160006Ev, symObjAddr: 0x1E60, symBinAddr: 0x100004958, symSize: 0x8 }
  - { offsetInCU: 0x1F0D2, offset: 0x1F0D2, size: 0x8, addend: 0x0, symName: __ZNKSt3__117__compressed_pairIPyNS_9allocatorIyEEE6secondB7v160006Ev, symObjAddr: 0x1E68, symBinAddr: 0x100004960, symSize: 0x24 }
  - { offsetInCU: 0x1F0F8, offset: 0x1F0F8, size: 0x8, addend: 0x0, symName: __ZNKSt3__122__compressed_pair_elemINS_9allocatorIyEELi1ELb1EE5__getB7v160006Ev, symObjAddr: 0x1E8C, symBinAddr: 0x100004984, symSize: 0x14 }
  - { offsetInCU: 0x1F11E, offset: 0x1F11E, size: 0x8, addend: 0x0, symName: __ZNSt3__123__libcpp_numeric_limitsIlLb1EE3maxB7v160006Ev, symObjAddr: 0x1EA0, symBinAddr: 0x100004998, symSize: 0x8 }
  - { offsetInCU: 0x1F132, offset: 0x1F132, size: 0x8, addend: 0x0, symName: __ZNSt12length_errorC1B7v160006EPKc, symObjAddr: 0x1F0C, symBinAddr: 0x100004A04, symSize: 0x34 }
  - { offsetInCU: 0x1F16A, offset: 0x1F16A, size: 0x8, addend: 0x0, symName: __ZNSt12length_errorC2B7v160006EPKc, symObjAddr: 0x1F40, symBinAddr: 0x100004A38, symSize: 0x4C }
  - { offsetInCU: 0x1F1A2, offset: 0x1F1A2, size: 0x8, addend: 0x0, symName: __ZNKSt3__16vectorIyNS_9allocatorIyEEE9__end_capB7v160006Ev, symObjAddr: 0x1F8C, symBinAddr: 0x100004A84, symSize: 0x28 }
  - { offsetInCU: 0x1F1C8, offset: 0x1F1C8, size: 0x8, addend: 0x0, symName: __ZNKSt3__117__compressed_pairIPyNS_9allocatorIyEEE5firstB7v160006Ev, symObjAddr: 0x1FB4, symBinAddr: 0x100004AAC, symSize: 0x24 }
  - { offsetInCU: 0x1F1EE, offset: 0x1F1EE, size: 0x8, addend: 0x0, symName: __ZNKSt3__122__compressed_pair_elemIPyLi0ELb0EE5__getB7v160006Ev, symObjAddr: 0x1FD8, symBinAddr: 0x100004AD0, symSize: 0x14 }
  - { offsetInCU: 0x1F214, offset: 0x1F214, size: 0x8, addend: 0x0, symName: __ZNSt3__114__split_bufferIyRNS_9allocatorIyEEEC2EmmS3_, symObjAddr: 0x2040, symBinAddr: 0x100004B38, symSize: 0xD4 }
  - { offsetInCU: 0x1F287, offset: 0x1F287, size: 0x8, addend: 0x0, symName: __ZNSt3__117__compressed_pairIPyRNS_9allocatorIyEEEC1B7v160006IDnS4_EEOT_OT0_, symObjAddr: 0x2114, symBinAddr: 0x100004C0C, symSize: 0x3C }
  - { offsetInCU: 0x1F2DF, offset: 0x1F2DF, size: 0x8, addend: 0x0, symName: __ZNSt3__114__split_bufferIyRNS_9allocatorIyEEE7__allocB7v160006Ev, symObjAddr: 0x2190, symBinAddr: 0x100004C88, symSize: 0x28 }
  - { offsetInCU: 0x1F305, offset: 0x1F305, size: 0x8, addend: 0x0, symName: __ZNSt3__114__split_bufferIyRNS_9allocatorIyEEE9__end_capB7v160006Ev, symObjAddr: 0x21B8, symBinAddr: 0x100004CB0, symSize: 0x28 }
  - { offsetInCU: 0x1F32B, offset: 0x1F32B, size: 0x8, addend: 0x0, symName: __ZNSt3__117__compressed_pairIPyRNS_9allocatorIyEEEC2B7v160006IDnS4_EEOT_OT0_, symObjAddr: 0x21E0, symBinAddr: 0x100004CD8, symSize: 0x48 }
  - { offsetInCU: 0x1F383, offset: 0x1F383, size: 0x8, addend: 0x0, symName: __ZNSt3__122__compressed_pair_elemIRNS_9allocatorIyEELi1ELb0EEC2B7v160006IS3_vEEOT_, symObjAddr: 0x2228, symBinAddr: 0x100004D20, symSize: 0x20 }
  - { offsetInCU: 0x1F3C5, offset: 0x1F3C5, size: 0x8, addend: 0x0, symName: __ZNSt3__19allocatorIyE8allocateB7v160006Em, symObjAddr: 0x2248, symBinAddr: 0x100004D40, symSize: 0x58 }
  - { offsetInCU: 0x1F3F9, offset: 0x1F3F9, size: 0x8, addend: 0x0, symName: __ZNSt3__117__compressed_pairIPyRNS_9allocatorIyEEE6secondB7v160006Ev, symObjAddr: 0x23A4, symBinAddr: 0x100004E9C, symSize: 0x28 }
  - { offsetInCU: 0x1F41F, offset: 0x1F41F, size: 0x8, addend: 0x0, symName: __ZNSt3__122__compressed_pair_elemIRNS_9allocatorIyEELi1ELb0EE5__getB7v160006Ev, symObjAddr: 0x23CC, symBinAddr: 0x100004EC4, symSize: 0x18 }
  - { offsetInCU: 0x1F445, offset: 0x1F445, size: 0x8, addend: 0x0, symName: __ZNSt3__117__compressed_pairIPyRNS_9allocatorIyEEE5firstB7v160006Ev, symObjAddr: 0x23E4, symBinAddr: 0x100004EDC, symSize: 0x24 }
  - { offsetInCU: 0x1F46B, offset: 0x1F46B, size: 0x8, addend: 0x0, symName: __ZNKSt3__16vectorIyNS_9allocatorIyEEE17__annotate_deleteB7v160006Ev, symObjAddr: 0x2408, symBinAddr: 0x100004F00, symSize: 0xB8 }
  - { offsetInCU: 0x1F491, offset: 0x1F491, size: 0x8, addend: 0x0, symName: __ZNSt3__116reverse_iteratorIPyEC1B7v160006ES1_, symObjAddr: 0x2538, symBinAddr: 0x100005030, symSize: 0x34 }
  - { offsetInCU: 0x1F4C9, offset: 0x1F4C9, size: 0x8, addend: 0x0, symName: __ZNKSt3__116reverse_iteratorIPyE4baseB7v160006Ev, symObjAddr: 0x256C, symBinAddr: 0x100005064, symSize: 0x18 }
  - { offsetInCU: 0x1F4EF, offset: 0x1F4EF, size: 0x8, addend: 0x0, symName: __ZNKSt3__16vectorIyNS_9allocatorIyEEE14__annotate_newB7v160006Em, symObjAddr: 0x25C0, symBinAddr: 0x1000050B8, symSize: 0xAC }
  - { offsetInCU: 0x1F524, offset: 0x1F524, size: 0x8, addend: 0x0, symName: __ZNKSt3__16vectorIyNS_9allocatorIyEEE31__annotate_contiguous_containerB7v160006EPKvS5_S5_S5_, symObjAddr: 0x267C, symBinAddr: 0x100005174, symSize: 0x20 }
  - { offsetInCU: 0x1F576, offset: 0x1F576, size: 0x8, addend: 0x0, symName: __ZNKSt3__16vectorIyNS_9allocatorIyEEE4dataB7v160006Ev, symObjAddr: 0x269C, symBinAddr: 0x100005194, symSize: 0x28 }
  - { offsetInCU: 0x1F5C4, offset: 0x1F5C4, size: 0x8, addend: 0x0, symName: __ZNKSt3__111__move_loopINS_17_ClassicAlgPolicyEEclB7v160006INS_16reverse_iteratorIPyEES6_S6_EENS_4pairIT_T1_EES8_T0_S9_, symObjAddr: 0x297C, symBinAddr: 0x100005474, symSize: 0xA0 }
  - { offsetInCU: 0x1F62F, offset: 0x1F62F, size: 0x8, addend: 0x0, symName: __ZNSt3__119__unwrap_range_implINS_16reverse_iteratorIPyEES3_E8__unwrapB7v160006ES3_S3_, symObjAddr: 0x2B68, symBinAddr: 0x100005660, symSize: 0x84 }
  - { offsetInCU: 0x1F666, offset: 0x1F666, size: 0x8, addend: 0x0, symName: __ZNSt3__14pairINS_16reverse_iteratorIPyEES3_EC1B7v160006IS3_S3_LPv0EEEOT_OT0_, symObjAddr: 0x2BEC, symBinAddr: 0x1000056E4, symSize: 0x3C }
  - { offsetInCU: 0x1F6C4, offset: 0x1F6C4, size: 0x8, addend: 0x0, symName: __ZNSt3__14pairINS_16reverse_iteratorIPyEES3_EC2B7v160006IS3_S3_LPv0EEEOT_OT0_, symObjAddr: 0x2C28, symBinAddr: 0x100005720, symSize: 0x34 }
  - { offsetInCU: 0x1F722, offset: 0x1F722, size: 0x8, addend: 0x0, symName: __ZNSt3__18_IterOpsINS_17_ClassicAlgPolicyEE11__iter_moveB7v160006IRNS_16reverse_iteratorIPyEEEENS_9enable_ifIXsr12is_referenceIDTdeclsr3stdE7declvalIRT_EEEEE5valueEDTclsr3stdE4movedeclsr3stdE7declvalISA_EEEEE4typeEOS9_, symObjAddr: 0x2CA4, symBinAddr: 0x10000579C, symSize: 0x28 }
  - { offsetInCU: 0x1F74E, offset: 0x1F74E, size: 0x8, addend: 0x0, symName: __ZNKSt3__116reverse_iteratorIPyEdeB7v160006Ev, symObjAddr: 0x2CCC, symBinAddr: 0x1000057C4, symSize: 0x28 }
  - { offsetInCU: 0x1F782, offset: 0x1F782, size: 0x8, addend: 0x0, symName: __ZNSt3__116reverse_iteratorIPyEppB7v160006Ev, symObjAddr: 0x2CF4, symBinAddr: 0x1000057EC, symSize: 0x20 }
  - { offsetInCU: 0x1F7A8, offset: 0x1F7A8, size: 0x8, addend: 0x0, symName: __ZNSt3__18_IterOpsINS_17_ClassicAlgPolicyEE25__validate_iter_referenceB7v160006IRNS_16reverse_iteratorIPyEEEEvv, symObjAddr: 0x2D14, symBinAddr: 0x10000580C, symSize: 0x4 }
  - { offsetInCU: 0x1F7C6, offset: 0x1F7C6, size: 0x8, addend: 0x0, symName: __ZNSt3__118__unwrap_iter_implINS_16reverse_iteratorIPyEELb0EE8__unwrapB7v160006ES3_, symObjAddr: 0x2D18, symBinAddr: 0x100005810, symSize: 0x24 }
  - { offsetInCU: 0x1F7E9, offset: 0x1F7E9, size: 0x8, addend: 0x0, symName: __ZNSt3__119__unwrap_range_implINS_16reverse_iteratorIPyEES3_E8__rewrapB7v160006ES3_S3_, symObjAddr: 0x2D3C, symBinAddr: 0x100005834, symSize: 0x5C }
  - { offsetInCU: 0x1F81A, offset: 0x1F81A, size: 0x8, addend: 0x0, symName: __ZNSt3__118__unwrap_iter_implINS_16reverse_iteratorIPyEELb0EE8__rewrapB7v160006ES3_S3_, symObjAddr: 0x2D98, symBinAddr: 0x100005890, symSize: 0x2C }
  - { offsetInCU: 0x1F847, offset: 0x1F847, size: 0x8, addend: 0x0, symName: __ZNSt3__116reverse_iteratorIPyEC2B7v160006ES1_, symObjAddr: 0x2DC4, symBinAddr: 0x1000058BC, symSize: 0x28 }
  - { offsetInCU: 0x1F87F, offset: 0x1F87F, size: 0x8, addend: 0x0, symName: __ZNSt3__114__split_bufferIyRNS_9allocatorIyEEED2Ev, symObjAddr: 0x2DEC, symBinAddr: 0x1000058E4, symSize: 0x8C }
  - { offsetInCU: 0x1F8AB, offset: 0x1F8AB, size: 0x8, addend: 0x0, symName: __ZNSt3__114__split_bufferIyRNS_9allocatorIyEEE5clearB7v160006Ev, symObjAddr: 0x2E78, symBinAddr: 0x100005970, symSize: 0x28 }
  - { offsetInCU: 0x1F8D1, offset: 0x1F8D1, size: 0x8, addend: 0x0, symName: __ZNSt3__116allocator_traitsINS_9allocatorIyEEE10deallocateB7v160006ERS2_Pym, symObjAddr: 0x2EA0, symBinAddr: 0x100005998, symSize: 0x34 }
  - { offsetInCU: 0x1F913, offset: 0x1F913, size: 0x8, addend: 0x0, symName: __ZNKSt3__114__split_bufferIyRNS_9allocatorIyEEE8capacityB7v160006Ev, symObjAddr: 0x2ED4, symBinAddr: 0x1000059CC, symSize: 0x40 }
  - { offsetInCU: 0x1F939, offset: 0x1F939, size: 0x8, addend: 0x0, symName: __ZNSt3__114__split_bufferIyRNS_9allocatorIyEEE17__destruct_at_endB7v160006EPy, symObjAddr: 0x2F14, symBinAddr: 0x100005A0C, symSize: 0x2C }
  - { offsetInCU: 0x1F96D, offset: 0x1F96D, size: 0x8, addend: 0x0, symName: __ZNSt3__114__split_bufferIyRNS_9allocatorIyEEE17__destruct_at_endB7v160006EPyNS_17integral_constantIbLb0EEE, symObjAddr: 0x2F40, symBinAddr: 0x100005A38, symSize: 0x80 }
  - { offsetInCU: 0x1F9AD, offset: 0x1F9AD, size: 0x8, addend: 0x0, symName: __ZNSt3__116allocator_traitsINS_9allocatorIyEEE7destroyB7v160006IyvvEEvRS2_PT_, symObjAddr: 0x2FC0, symBinAddr: 0x100005AB8, symSize: 0x28 }
  - { offsetInCU: 0x1F9E7, offset: 0x1F9E7, size: 0x8, addend: 0x0, symName: __ZNSt3__19allocatorIyE10deallocateB7v160006EPym, symObjAddr: 0x301C, symBinAddr: 0x100005B14, symSize: 0x40 }
  - { offsetInCU: 0x1FA29, offset: 0x1FA29, size: 0x8, addend: 0x0, symName: __ZNKSt3__114__split_bufferIyRNS_9allocatorIyEEE9__end_capB7v160006Ev, symObjAddr: 0x3164, symBinAddr: 0x100005C5C, symSize: 0x28 }
  - { offsetInCU: 0x1FA4F, offset: 0x1FA4F, size: 0x8, addend: 0x0, symName: __ZNKSt3__117__compressed_pairIPyRNS_9allocatorIyEEE5firstB7v160006Ev, symObjAddr: 0x318C, symBinAddr: 0x100005C84, symSize: 0x24 }
  - { offsetInCU: 0x1FA75, offset: 0x1FA75, size: 0x8, addend: 0x0, symName: __ZNKSt3__16vectorIyNS_9allocatorIyEEE20__throw_out_of_rangeB7v160006Ev, symObjAddr: 0x31B0, symBinAddr: 0x100005CA8, symSize: 0x1C }
  - { offsetInCU: 0x1FA9B, offset: 0x1FA9B, size: 0x8, addend: 0x0, symName: __ZNSt12out_of_rangeC1B7v160006EPKc, symObjAddr: 0x3230, symBinAddr: 0x100005D28, symSize: 0x34 }
  - { offsetInCU: 0x1FAD3, offset: 0x1FAD3, size: 0x8, addend: 0x0, symName: __ZNSt12out_of_rangeC2B7v160006EPKc, symObjAddr: 0x3264, symBinAddr: 0x100005D5C, symSize: 0x4C }
  - { offsetInCU: 0x1FB0B, offset: 0x1FB0B, size: 0x8, addend: 0x0, symName: __ZNKSt3__16vectorINS0_IyNS_9allocatorIyEEEENS1_IS3_EEE4sizeB7v160006Ev, symObjAddr: 0x32B0, symBinAddr: 0x100005DA8, symSize: 0x28 }
  - { offsetInCU: 0x1FB31, offset: 0x1FB31, size: 0x8, addend: 0x0, symName: __ZNKSt3__16vectorINS0_IyNS_9allocatorIyEEEENS1_IS3_EEE20__throw_out_of_rangeB7v160006Ev, symObjAddr: 0x32D8, symBinAddr: 0x100005DD0, symSize: 0x1C }
  - { offsetInCU: 0x1FB57, offset: 0x1FB57, size: 0x8, addend: 0x0, symName: __ZNKSt3__16vectorINS0_IsNS_9allocatorIsEEEENS1_IS3_EEE20__throw_out_of_rangeB7v160006Ev, symObjAddr: 0x32F4, symBinAddr: 0x100005DEC, symSize: 0x1C }
  - { offsetInCU: 0x1FB7D, offset: 0x1FB7D, size: 0x8, addend: 0x0, symName: __ZNSt3__16vectorIsNS_9allocatorIsEEE9__end_capB7v160006Ev, symObjAddr: 0x3310, symBinAddr: 0x100005E08, symSize: 0x28 }
  - { offsetInCU: 0x1FBA9, offset: 0x1FBA9, size: 0x8, addend: 0x0, symName: __ZNSt3__16vectorIsNS_9allocatorIsEEE22__construct_one_at_endB7v160006IJsEEEvDpOT_, symObjAddr: 0x3338, symBinAddr: 0x100005E30, symSize: 0x90 }
  - { offsetInCU: 0x1FBF8, offset: 0x1FBF8, size: 0x8, addend: 0x0, symName: __ZNSt3__16vectorIsNS_9allocatorIsEEE21__push_back_slow_pathIsEEvOT_, symObjAddr: 0x33C8, symBinAddr: 0x100005EC0, symSize: 0xD8 }
  - { offsetInCU: 0x1FC56, offset: 0x1FC56, size: 0x8, addend: 0x0, symName: __ZNSt3__117__compressed_pairIPsNS_9allocatorIsEEE5firstB7v160006Ev, symObjAddr: 0x34A0, symBinAddr: 0x100005F98, symSize: 0x24 }
  - { offsetInCU: 0x1FC7C, offset: 0x1FC7C, size: 0x8, addend: 0x0, symName: __ZNSt3__122__compressed_pair_elemIPsLi0ELb0EE5__getB7v160006Ev, symObjAddr: 0x34C4, symBinAddr: 0x100005FBC, symSize: 0x14 }
  - { offsetInCU: 0x1FCBE, offset: 0x1FCBE, size: 0x8, addend: 0x0, symName: __ZNSt3__16vectorIsNS_9allocatorIsEEE21_ConstructTransactionC1B7v160006ERS3_m, symObjAddr: 0x34D8, symBinAddr: 0x100005FD0, symSize: 0x3C }
  - { offsetInCU: 0x1FD06, offset: 0x1FD06, size: 0x8, addend: 0x0, symName: __ZNSt3__116allocator_traitsINS_9allocatorIsEEE9constructB7v160006IsJsEvvEEvRS2_PT_DpOT0_, symObjAddr: 0x3514, symBinAddr: 0x10000600C, symSize: 0x30 }
  - { offsetInCU: 0x1FD5A, offset: 0x1FD5A, size: 0x8, addend: 0x0, symName: __ZNSt3__16vectorIsNS_9allocatorIsEEE7__allocB7v160006Ev, symObjAddr: 0x3544, symBinAddr: 0x10000603C, symSize: 0x28 }
  - { offsetInCU: 0x1FD80, offset: 0x1FD80, size: 0x8, addend: 0x0, symName: __ZNSt3__16vectorIsNS_9allocatorIsEEE21_ConstructTransactionD1B7v160006Ev, symObjAddr: 0x3580, symBinAddr: 0x100006078, symSize: 0x2C }
  - { offsetInCU: 0x1FDAA, offset: 0x1FDAA, size: 0x8, addend: 0x0, symName: __ZNSt3__16vectorIsNS_9allocatorIsEEE21_ConstructTransactionC2B7v160006ERS3_m, symObjAddr: 0x35AC, symBinAddr: 0x1000060A4, symSize: 0x44 }
  - { offsetInCU: 0x1FDF2, offset: 0x1FDF2, size: 0x8, addend: 0x0, symName: __ZNSt3__117__compressed_pairIPsNS_9allocatorIsEEE6secondB7v160006Ev, symObjAddr: 0x361C, symBinAddr: 0x100006114, symSize: 0x24 }
  - { offsetInCU: 0x1FE18, offset: 0x1FE18, size: 0x8, addend: 0x0, symName: __ZNSt3__122__compressed_pair_elemINS_9allocatorIsEELi1ELb1EE5__getB7v160006Ev, symObjAddr: 0x3640, symBinAddr: 0x100006138, symSize: 0x14 }
  - { offsetInCU: 0x1FE3E, offset: 0x1FE3E, size: 0x8, addend: 0x0, symName: __ZNSt3__16vectorIsNS_9allocatorIsEEE21_ConstructTransactionD2B7v160006Ev, symObjAddr: 0x3654, symBinAddr: 0x10000614C, symSize: 0x20 }
  - { offsetInCU: 0x1FE68, offset: 0x1FE68, size: 0x8, addend: 0x0, symName: __ZNKSt3__16vectorIsNS_9allocatorIsEEE11__recommendB7v160006Em, symObjAddr: 0x3674, symBinAddr: 0x10000616C, symSize: 0xB4 }
  - { offsetInCU: 0x1FEBD, offset: 0x1FEBD, size: 0x8, addend: 0x0, symName: __ZNSt3__114__split_bufferIsRNS_9allocatorIsEEEC1EmmS3_, symObjAddr: 0x3728, symBinAddr: 0x100006220, symSize: 0x44 }
  - { offsetInCU: 0x1FF13, offset: 0x1FF13, size: 0x8, addend: 0x0, symName: __ZNSt3__114__split_bufferIsRNS_9allocatorIsEEED1Ev, symObjAddr: 0x3884, symBinAddr: 0x10000637C, symSize: 0x2C }
  - { offsetInCU: 0x1FF3F, offset: 0x1FF3F, size: 0x8, addend: 0x0, symName: __ZNKSt3__16vectorIsNS_9allocatorIsEEE8max_sizeEv, symObjAddr: 0x38B0, symBinAddr: 0x1000063A8, symSize: 0x60 }
  - { offsetInCU: 0x1FF67, offset: 0x1FF67, size: 0x8, addend: 0x0, symName: __ZNKSt3__16vectorIsNS_9allocatorIsEEE20__throw_length_errorB7v160006Ev, symObjAddr: 0x3910, symBinAddr: 0x100006408, symSize: 0x1C }
  - { offsetInCU: 0x1FF8D, offset: 0x1FF8D, size: 0x8, addend: 0x0, symName: __ZNKSt3__16vectorIsNS_9allocatorIsEEE8capacityB7v160006Ev, symObjAddr: 0x392C, symBinAddr: 0x100006424, symSize: 0x40 }
  - { offsetInCU: 0x1FFBE, offset: 0x1FFBE, size: 0x8, addend: 0x0, symName: __ZNSt3__116allocator_traitsINS_9allocatorIsEEE8max_sizeB7v160006IS2_vvEEmRKS2_, symObjAddr: 0x396C, symBinAddr: 0x100006464, symSize: 0x28 }
  - { offsetInCU: 0x1FFE9, offset: 0x1FFE9, size: 0x8, addend: 0x0, symName: __ZNKSt3__16vectorIsNS_9allocatorIsEEE7__allocB7v160006Ev, symObjAddr: 0x3994, symBinAddr: 0x10000648C, symSize: 0x28 }
  - { offsetInCU: 0x2000F, offset: 0x2000F, size: 0x8, addend: 0x0, symName: __ZNKSt3__117__compressed_pairIPsNS_9allocatorIsEEE6secondB7v160006Ev, symObjAddr: 0x39BC, symBinAddr: 0x1000064B4, symSize: 0x24 }
  - { offsetInCU: 0x20035, offset: 0x20035, size: 0x8, addend: 0x0, symName: __ZNKSt3__122__compressed_pair_elemINS_9allocatorIsEELi1ELb1EE5__getB7v160006Ev, symObjAddr: 0x39E0, symBinAddr: 0x1000064D8, symSize: 0x14 }
  - { offsetInCU: 0x2005B, offset: 0x2005B, size: 0x8, addend: 0x0, symName: __ZNKSt3__16vectorIsNS_9allocatorIsEEE9__end_capB7v160006Ev, symObjAddr: 0x39F4, symBinAddr: 0x1000064EC, symSize: 0x28 }
  - { offsetInCU: 0x20081, offset: 0x20081, size: 0x8, addend: 0x0, symName: __ZNKSt3__117__compressed_pairIPsNS_9allocatorIsEEE5firstB7v160006Ev, symObjAddr: 0x3A1C, symBinAddr: 0x100006514, symSize: 0x24 }
  - { offsetInCU: 0x200A7, offset: 0x200A7, size: 0x8, addend: 0x0, symName: __ZNKSt3__122__compressed_pair_elemIPsLi0ELb0EE5__getB7v160006Ev, symObjAddr: 0x3A40, symBinAddr: 0x100006538, symSize: 0x14 }
  - { offsetInCU: 0x200CD, offset: 0x200CD, size: 0x8, addend: 0x0, symName: __ZNSt3__114__split_bufferIsRNS_9allocatorIsEEEC2EmmS3_, symObjAddr: 0x3A54, symBinAddr: 0x10000654C, symSize: 0xD4 }
  - { offsetInCU: 0x20140, offset: 0x20140, size: 0x8, addend: 0x0, symName: __ZNSt3__117__compressed_pairIPsRNS_9allocatorIsEEEC1B7v160006IDnS4_EEOT_OT0_, symObjAddr: 0x3B28, symBinAddr: 0x100006620, symSize: 0x3C }
  - { offsetInCU: 0x20198, offset: 0x20198, size: 0x8, addend: 0x0, symName: __ZNSt3__114__split_bufferIsRNS_9allocatorIsEEE7__allocB7v160006Ev, symObjAddr: 0x3BA4, symBinAddr: 0x10000669C, symSize: 0x28 }
  - { offsetInCU: 0x201BE, offset: 0x201BE, size: 0x8, addend: 0x0, symName: __ZNSt3__114__split_bufferIsRNS_9allocatorIsEEE9__end_capB7v160006Ev, symObjAddr: 0x3BCC, symBinAddr: 0x1000066C4, symSize: 0x28 }
  - { offsetInCU: 0x201E4, offset: 0x201E4, size: 0x8, addend: 0x0, symName: __ZNSt3__117__compressed_pairIPsRNS_9allocatorIsEEEC2B7v160006IDnS4_EEOT_OT0_, symObjAddr: 0x3BF4, symBinAddr: 0x1000066EC, symSize: 0x48 }
  - { offsetInCU: 0x2023C, offset: 0x2023C, size: 0x8, addend: 0x0, symName: __ZNSt3__122__compressed_pair_elemIPsLi0ELb0EEC2B7v160006IDnvEEOT_, symObjAddr: 0x3C3C, symBinAddr: 0x100006734, symSize: 0x1C }
  - { offsetInCU: 0x2027E, offset: 0x2027E, size: 0x8, addend: 0x0, symName: __ZNSt3__122__compressed_pair_elemIRNS_9allocatorIsEELi1ELb0EEC2B7v160006IS3_vEEOT_, symObjAddr: 0x3C58, symBinAddr: 0x100006750, symSize: 0x20 }
  - { offsetInCU: 0x202C0, offset: 0x202C0, size: 0x8, addend: 0x0, symName: __ZNSt3__19allocatorIsE8allocateB7v160006Em, symObjAddr: 0x3C78, symBinAddr: 0x100006770, symSize: 0x58 }
  - { offsetInCU: 0x202F4, offset: 0x202F4, size: 0x8, addend: 0x0, symName: __ZNSt3__117__compressed_pairIPsRNS_9allocatorIsEEE6secondB7v160006Ev, symObjAddr: 0x3CD0, symBinAddr: 0x1000067C8, symSize: 0x28 }
  - { offsetInCU: 0x2031A, offset: 0x2031A, size: 0x8, addend: 0x0, symName: __ZNSt3__122__compressed_pair_elemIRNS_9allocatorIsEELi1ELb0EE5__getB7v160006Ev, symObjAddr: 0x3CF8, symBinAddr: 0x1000067F0, symSize: 0x18 }
  - { offsetInCU: 0x20340, offset: 0x20340, size: 0x8, addend: 0x0, symName: __ZNSt3__117__compressed_pairIPsRNS_9allocatorIsEEE5firstB7v160006Ev, symObjAddr: 0x3D10, symBinAddr: 0x100006808, symSize: 0x24 }
  - { offsetInCU: 0x20366, offset: 0x20366, size: 0x8, addend: 0x0, symName: __ZNKSt3__16vectorIsNS_9allocatorIsEEE17__annotate_deleteB7v160006Ev, symObjAddr: 0x3D34, symBinAddr: 0x10000682C, symSize: 0xB8 }
  - { offsetInCU: 0x2038C, offset: 0x2038C, size: 0x8, addend: 0x0, symName: __ZNSt3__116reverse_iteratorIPsEC1B7v160006ES1_, symObjAddr: 0x3E64, symBinAddr: 0x10000695C, symSize: 0x34 }
  - { offsetInCU: 0x203C4, offset: 0x203C4, size: 0x8, addend: 0x0, symName: __ZNKSt3__116reverse_iteratorIPsE4baseB7v160006Ev, symObjAddr: 0x3E98, symBinAddr: 0x100006990, symSize: 0x18 }
  - { offsetInCU: 0x203EA, offset: 0x203EA, size: 0x8, addend: 0x0, symName: __ZNKSt3__16vectorIsNS_9allocatorIsEEE14__annotate_newB7v160006Em, symObjAddr: 0x3EEC, symBinAddr: 0x1000069E4, symSize: 0xAC }
  - { offsetInCU: 0x2041F, offset: 0x2041F, size: 0x8, addend: 0x0, symName: __ZNKSt3__16vectorIsNS_9allocatorIsEEE31__annotate_contiguous_containerB7v160006EPKvS5_S5_S5_, symObjAddr: 0x3FA8, symBinAddr: 0x100006AA0, symSize: 0x20 }
  - { offsetInCU: 0x20471, offset: 0x20471, size: 0x8, addend: 0x0, symName: __ZNKSt3__16vectorIsNS_9allocatorIsEEE4dataB7v160006Ev, symObjAddr: 0x3FC8, symBinAddr: 0x100006AC0, symSize: 0x28 }
  - { offsetInCU: 0x204B4, offset: 0x204B4, size: 0x8, addend: 0x0, symName: __ZNKSt3__111__move_loopINS_17_ClassicAlgPolicyEEclB7v160006INS_16reverse_iteratorIPsEES6_S6_EENS_4pairIT_T1_EES8_T0_S9_, symObjAddr: 0x42A8, symBinAddr: 0x100006DA0, symSize: 0xA0 }
  - { offsetInCU: 0x2051F, offset: 0x2051F, size: 0x8, addend: 0x0, symName: __ZNSt3__119__unwrap_range_implINS_16reverse_iteratorIPsEES3_E8__unwrapB7v160006ES3_S3_, symObjAddr: 0x4494, symBinAddr: 0x100006F8C, symSize: 0x84 }
  - { offsetInCU: 0x20556, offset: 0x20556, size: 0x8, addend: 0x0, symName: __ZNSt3__14pairINS_16reverse_iteratorIPsEES3_EC1B7v160006IS3_S3_LPv0EEEOT_OT0_, symObjAddr: 0x4518, symBinAddr: 0x100007010, symSize: 0x3C }
  - { offsetInCU: 0x205B4, offset: 0x205B4, size: 0x8, addend: 0x0, symName: __ZNSt3__14pairINS_16reverse_iteratorIPsEES3_EC2B7v160006IS3_S3_LPv0EEEOT_OT0_, symObjAddr: 0x4554, symBinAddr: 0x10000704C, symSize: 0x34 }
  - { offsetInCU: 0x20612, offset: 0x20612, size: 0x8, addend: 0x0, symName: __ZNSt3__18_IterOpsINS_17_ClassicAlgPolicyEE11__iter_moveB7v160006IRNS_16reverse_iteratorIPsEEEENS_9enable_ifIXsr12is_referenceIDTdeclsr3stdE7declvalIRT_EEEEE5valueEDTclsr3stdE4movedeclsr3stdE7declvalISA_EEEEE4typeEOS9_, symObjAddr: 0x45D0, symBinAddr: 0x1000070C8, symSize: 0x28 }
  - { offsetInCU: 0x2063E, offset: 0x2063E, size: 0x8, addend: 0x0, symName: __ZNKSt3__116reverse_iteratorIPsEdeB7v160006Ev, symObjAddr: 0x45F8, symBinAddr: 0x1000070F0, symSize: 0x28 }
  - { offsetInCU: 0x20672, offset: 0x20672, size: 0x8, addend: 0x0, symName: __ZNSt3__116reverse_iteratorIPsEppB7v160006Ev, symObjAddr: 0x4620, symBinAddr: 0x100007118, symSize: 0x20 }
  - { offsetInCU: 0x20698, offset: 0x20698, size: 0x8, addend: 0x0, symName: __ZNSt3__18_IterOpsINS_17_ClassicAlgPolicyEE25__validate_iter_referenceB7v160006IRNS_16reverse_iteratorIPsEEEEvv, symObjAddr: 0x4640, symBinAddr: 0x100007138, symSize: 0x4 }
  - { offsetInCU: 0x206B6, offset: 0x206B6, size: 0x8, addend: 0x0, symName: __ZNSt3__118__unwrap_iter_implINS_16reverse_iteratorIPsEELb0EE8__unwrapB7v160006ES3_, symObjAddr: 0x4644, symBinAddr: 0x10000713C, symSize: 0x24 }
  - { offsetInCU: 0x206D9, offset: 0x206D9, size: 0x8, addend: 0x0, symName: __ZNSt3__119__unwrap_range_implINS_16reverse_iteratorIPsEES3_E8__rewrapB7v160006ES3_S3_, symObjAddr: 0x4668, symBinAddr: 0x100007160, symSize: 0x5C }
  - { offsetInCU: 0x2070A, offset: 0x2070A, size: 0x8, addend: 0x0, symName: __ZNSt3__118__unwrap_iter_implINS_16reverse_iteratorIPsEELb0EE8__rewrapB7v160006ES3_S3_, symObjAddr: 0x46C4, symBinAddr: 0x1000071BC, symSize: 0x2C }
  - { offsetInCU: 0x20737, offset: 0x20737, size: 0x8, addend: 0x0, symName: __ZNSt3__116reverse_iteratorIPsEC2B7v160006ES1_, symObjAddr: 0x46F0, symBinAddr: 0x1000071E8, symSize: 0x28 }
  - { offsetInCU: 0x2076F, offset: 0x2076F, size: 0x8, addend: 0x0, symName: __ZNSt3__114__split_bufferIsRNS_9allocatorIsEEED2Ev, symObjAddr: 0x4718, symBinAddr: 0x100007210, symSize: 0x8C }
  - { offsetInCU: 0x2079B, offset: 0x2079B, size: 0x8, addend: 0x0, symName: __ZNSt3__114__split_bufferIsRNS_9allocatorIsEEE5clearB7v160006Ev, symObjAddr: 0x47A4, symBinAddr: 0x10000729C, symSize: 0x28 }
  - { offsetInCU: 0x207C1, offset: 0x207C1, size: 0x8, addend: 0x0, symName: __ZNSt3__116allocator_traitsINS_9allocatorIsEEE10deallocateB7v160006ERS2_Psm, symObjAddr: 0x47CC, symBinAddr: 0x1000072C4, symSize: 0x34 }
  - { offsetInCU: 0x20803, offset: 0x20803, size: 0x8, addend: 0x0, symName: __ZNKSt3__114__split_bufferIsRNS_9allocatorIsEEE8capacityB7v160006Ev, symObjAddr: 0x4800, symBinAddr: 0x1000072F8, symSize: 0x40 }
  - { offsetInCU: 0x20829, offset: 0x20829, size: 0x8, addend: 0x0, symName: __ZNSt3__114__split_bufferIsRNS_9allocatorIsEEE17__destruct_at_endB7v160006EPs, symObjAddr: 0x4840, symBinAddr: 0x100007338, symSize: 0x2C }
  - { offsetInCU: 0x2085D, offset: 0x2085D, size: 0x8, addend: 0x0, symName: __ZNSt3__114__split_bufferIsRNS_9allocatorIsEEE17__destruct_at_endB7v160006EPsNS_17integral_constantIbLb0EEE, symObjAddr: 0x486C, symBinAddr: 0x100007364, symSize: 0x80 }
  - { offsetInCU: 0x2089D, offset: 0x2089D, size: 0x8, addend: 0x0, symName: __ZNSt3__116allocator_traitsINS_9allocatorIsEEE7destroyB7v160006IsvvEEvRS2_PT_, symObjAddr: 0x48EC, symBinAddr: 0x1000073E4, symSize: 0x28 }
  - { offsetInCU: 0x208D7, offset: 0x208D7, size: 0x8, addend: 0x0, symName: __ZNSt3__19allocatorIsE10deallocateB7v160006EPsm, symObjAddr: 0x4948, symBinAddr: 0x100007440, symSize: 0x40 }
  - { offsetInCU: 0x20919, offset: 0x20919, size: 0x8, addend: 0x0, symName: __ZNKSt3__114__split_bufferIsRNS_9allocatorIsEEE9__end_capB7v160006Ev, symObjAddr: 0x4988, symBinAddr: 0x100007480, symSize: 0x28 }
  - { offsetInCU: 0x2093F, offset: 0x2093F, size: 0x8, addend: 0x0, symName: __ZNKSt3__117__compressed_pairIPsRNS_9allocatorIsEEE5firstB7v160006Ev, symObjAddr: 0x49B0, symBinAddr: 0x1000074A8, symSize: 0x24 }
  - { offsetInCU: 0x20965, offset: 0x20965, size: 0x8, addend: 0x0, symName: __ZNKSt3__16vectorIsNS_9allocatorIsEEE20__throw_out_of_rangeB7v160006Ev, symObjAddr: 0x49D4, symBinAddr: 0x1000074CC, symSize: 0x1C }
  - { offsetInCU: 0x2098B, offset: 0x2098B, size: 0x8, addend: 0x0, symName: __ZNSt3__15tupleIJssssEEC2B7v160006IJRsS3_S3_S3_ELi0EEEDpOT_, symObjAddr: 0x49F0, symBinAddr: 0x1000074E8, symSize: 0x4C }
  - { offsetInCU: 0x20A11, offset: 0x20A11, size: 0x8, addend: 0x0, symName: __ZNSt3__112__tuple_implINS_15__tuple_indicesIJLm0ELm1ELm2ELm3EEEEJssssEEC1B7v160006IJLm0ELm1ELm2ELm3EEJssssEJEJEJRsS5_S5_S5_EEENS1_IJXspT_EEEENS_13__tuple_typesIJDpT0_EEENS1_IJXspT1_EEEENS7_IJDpT2_EEEDpOT3_, symObjAddr: 0x4A3C, symBinAddr: 0x100007534, symSize: 0x4C }
  - { offsetInCU: 0x20AFF, offset: 0x20AFF, size: 0x8, addend: 0x0, symName: __ZNSt3__112__tuple_implINS_15__tuple_indicesIJLm0ELm1ELm2ELm3EEEEJssssEEC2B7v160006IJLm0ELm1ELm2ELm3EEJssssEJEJEJRsS5_S5_S5_EEENS1_IJXspT_EEEENS_13__tuple_typesIJDpT0_EEENS1_IJXspT1_EEEENS7_IJDpT2_EEEDpOT3_, symObjAddr: 0x4A88, symBinAddr: 0x100007580, symSize: 0x70 }
  - { offsetInCU: 0x20BED, offset: 0x20BED, size: 0x8, addend: 0x0, symName: __ZNSt3__112__tuple_leafILm0EsLb0EEC2B7v160006IRsvEEOT_, symObjAddr: 0x4AF8, symBinAddr: 0x1000075F0, symSize: 0x24 }
  - { offsetInCU: 0x20C30, offset: 0x20C30, size: 0x8, addend: 0x0, symName: __ZNSt3__112__tuple_leafILm1EsLb0EEC2B7v160006IRsvEEOT_, symObjAddr: 0x4B1C, symBinAddr: 0x100007614, symSize: 0x24 }
  - { offsetInCU: 0x20C73, offset: 0x20C73, size: 0x8, addend: 0x0, symName: __ZNSt3__112__tuple_leafILm2EsLb0EEC2B7v160006IRsvEEOT_, symObjAddr: 0x4B40, symBinAddr: 0x100007638, symSize: 0x24 }
  - { offsetInCU: 0x20CB6, offset: 0x20CB6, size: 0x8, addend: 0x0, symName: __ZNSt3__112__tuple_leafILm3EsLb0EEC2B7v160006IRsvEEOT_, symObjAddr: 0x4B64, symBinAddr: 0x10000765C, symSize: 0x24 }
  - { offsetInCU: 0x20CF9, offset: 0x20CF9, size: 0x8, addend: 0x0, symName: __ZNSt3__16vectorIyNS_9allocatorIyEEE11__make_iterB7v160006EPy, symObjAddr: 0x4B88, symBinAddr: 0x100007680, symSize: 0x34 }
  - { offsetInCU: 0x20D2E, offset: 0x20D2E, size: 0x8, addend: 0x0, symName: __ZNSt3__111__wrap_iterIPyEC1B7v160006EPKvS1_, symObjAddr: 0x4BBC, symBinAddr: 0x1000076B4, symSize: 0x3C }
  - { offsetInCU: 0x20D74, offset: 0x20D74, size: 0x8, addend: 0x0, symName: __ZNSt3__111__wrap_iterIPyEC2B7v160006EPKvS1_, symObjAddr: 0x4BF8, symBinAddr: 0x1000076F0, symSize: 0x24 }
  - { offsetInCU: 0x20DBA, offset: 0x20DBA, size: 0x8, addend: 0x0, symName: __ZNKSt3__111__wrap_iterIPyE4baseB7v160006Ev, symObjAddr: 0x4C1C, symBinAddr: 0x100007714, symSize: 0x18 }
  - { offsetInCU: 0x20DE0, offset: 0x20DE0, size: 0x8, addend: 0x0, symName: __ZNSt3__114basic_ifstreamIcNS_11char_traitsIcEEED2Ev, symObjAddr: 0x4C34, symBinAddr: 0x10000772C, symSize: 0x64 }
  - { offsetInCU: 0x20E1A, offset: 0x20E1A, size: 0x8, addend: 0x0, symName: __ZTv0_n24_NSt3__114basic_ifstreamIcNS_11char_traitsIcEEED1Ev, symObjAddr: 0x4C98, symBinAddr: 0x100007790, symSize: 0x28 }
  - { offsetInCU: 0x20E31, offset: 0x20E31, size: 0x8, addend: 0x0, symName: __ZNSt3__16vectorINS0_IsNS_9allocatorIsEEEENS1_IS3_EEED2B7v160006Ev, symObjAddr: 0x4CC0, symBinAddr: 0x1000077B8, symSize: 0x44 }
  - { offsetInCU: 0x20E5B, offset: 0x20E5B, size: 0x8, addend: 0x0, symName: __ZNSt3__16vectorINS0_IsNS_9allocatorIsEEEENS1_IS3_EEE16__destroy_vectorC1ERS5_, symObjAddr: 0x4D04, symBinAddr: 0x1000077FC, symSize: 0x34 }
  - { offsetInCU: 0x20E94, offset: 0x20E94, size: 0x8, addend: 0x0, symName: __ZNSt3__16vectorINS0_IsNS_9allocatorIsEEEENS1_IS3_EEE16__destroy_vectorclB7v160006Ev, symObjAddr: 0x4D38, symBinAddr: 0x100007830, symSize: 0x9C }
  - { offsetInCU: 0x20EBA, offset: 0x20EBA, size: 0x8, addend: 0x0, symName: __ZNSt3__16vectorINS0_IsNS_9allocatorIsEEEENS1_IS3_EEE16__destroy_vectorC2ERS5_, symObjAddr: 0x4DD4, symBinAddr: 0x1000078CC, symSize: 0x20 }
  - { offsetInCU: 0x20EF3, offset: 0x20EF3, size: 0x8, addend: 0x0, symName: __ZNKSt3__16vectorINS0_IsNS_9allocatorIsEEEENS1_IS3_EEE17__annotate_deleteB7v160006Ev, symObjAddr: 0x4DF4, symBinAddr: 0x1000078EC, symSize: 0xD4 }
  - { offsetInCU: 0x20F19, offset: 0x20F19, size: 0x8, addend: 0x0, symName: __ZNSt3__16vectorINS0_IsNS_9allocatorIsEEEENS1_IS3_EEE7__clearB7v160006Ev, symObjAddr: 0x4ED8, symBinAddr: 0x1000079D0, symSize: 0x28 }
  - { offsetInCU: 0x20F3F, offset: 0x20F3F, size: 0x8, addend: 0x0, symName: __ZNSt3__116allocator_traitsINS_9allocatorINS_6vectorIsNS1_IsEEEEEEE10deallocateB7v160006ERS5_PS4_m, symObjAddr: 0x4F00, symBinAddr: 0x1000079F8, symSize: 0x34 }
  - { offsetInCU: 0x20F81, offset: 0x20F81, size: 0x8, addend: 0x0, symName: __ZNSt3__16vectorINS0_IsNS_9allocatorIsEEEENS1_IS3_EEE7__allocB7v160006Ev, symObjAddr: 0x4F34, symBinAddr: 0x100007A2C, symSize: 0x28 }
  - { offsetInCU: 0x20FA7, offset: 0x20FA7, size: 0x8, addend: 0x0, symName: __ZNKSt3__16vectorINS0_IsNS_9allocatorIsEEEENS1_IS3_EEE8capacityB7v160006Ev, symObjAddr: 0x4F5C, symBinAddr: 0x100007A54, symSize: 0x40 }
  - { offsetInCU: 0x20FCD, offset: 0x20FCD, size: 0x8, addend: 0x0, symName: __ZNKSt3__16vectorINS0_IsNS_9allocatorIsEEEENS1_IS3_EEE31__annotate_contiguous_containerB7v160006EPKvS7_S7_S7_, symObjAddr: 0x4F9C, symBinAddr: 0x100007A94, symSize: 0x20 }
  - { offsetInCU: 0x2101F, offset: 0x2101F, size: 0x8, addend: 0x0, symName: __ZNKSt3__16vectorINS0_IsNS_9allocatorIsEEEENS1_IS3_EEE4dataB7v160006Ev, symObjAddr: 0x4FBC, symBinAddr: 0x100007AB4, symSize: 0x28 }
  - { offsetInCU: 0x21045, offset: 0x21045, size: 0x8, addend: 0x0, symName: __ZNSt3__16vectorINS0_IsNS_9allocatorIsEEEENS1_IS3_EEE22__base_destruct_at_endB7v160006EPS3_, symObjAddr: 0x4FF8, symBinAddr: 0x100007AF0, symSize: 0x8C }
  - { offsetInCU: 0x21089, offset: 0x21089, size: 0x8, addend: 0x0, symName: __ZNSt3__116allocator_traitsINS_9allocatorINS_6vectorIsNS1_IsEEEEEEE7destroyB7v160006IS4_vvEEvRS5_PT_, symObjAddr: 0x5084, symBinAddr: 0x100007B7C, symSize: 0x28 }
  - { offsetInCU: 0x210C3, offset: 0x210C3, size: 0x8, addend: 0x0, symName: __ZNSt3__16vectorIsNS_9allocatorIsEEED1B7v160006Ev, symObjAddr: 0x50F4, symBinAddr: 0x100007BEC, symSize: 0x2C }
  - { offsetInCU: 0x210ED, offset: 0x210ED, size: 0x8, addend: 0x0, symName: __ZNSt3__16vectorIsNS_9allocatorIsEEED2B7v160006Ev, symObjAddr: 0x5120, symBinAddr: 0x100007C18, symSize: 0x44 }
  - { offsetInCU: 0x21117, offset: 0x21117, size: 0x8, addend: 0x0, symName: __ZNSt3__16vectorIsNS_9allocatorIsEEE16__destroy_vectorC1ERS3_, symObjAddr: 0x5164, symBinAddr: 0x100007C5C, symSize: 0x34 }
  - { offsetInCU: 0x21150, offset: 0x21150, size: 0x8, addend: 0x0, symName: __ZNSt3__16vectorIsNS_9allocatorIsEEE16__destroy_vectorclB7v160006Ev, symObjAddr: 0x5198, symBinAddr: 0x100007C90, symSize: 0x9C }
  - { offsetInCU: 0x21176, offset: 0x21176, size: 0x8, addend: 0x0, symName: __ZNSt3__16vectorIsNS_9allocatorIsEEE16__destroy_vectorC2ERS3_, symObjAddr: 0x5234, symBinAddr: 0x100007D2C, symSize: 0x20 }
  - { offsetInCU: 0x211AF, offset: 0x211AF, size: 0x8, addend: 0x0, symName: __ZNSt3__16vectorIsNS_9allocatorIsEEE7__clearB7v160006Ev, symObjAddr: 0x5264, symBinAddr: 0x100007D5C, symSize: 0x28 }
  - { offsetInCU: 0x211D5, offset: 0x211D5, size: 0x8, addend: 0x0, symName: __ZNSt3__16vectorIsNS_9allocatorIsEEE22__base_destruct_at_endB7v160006EPs, symObjAddr: 0x528C, symBinAddr: 0x100007D84, symSize: 0x8C }
  - { offsetInCU: 0x21219, offset: 0x21219, size: 0x8, addend: 0x0, symName: __ZNSt3__19allocatorINS_6vectorIsNS0_IsEEEEE10deallocateB7v160006EPS3_m, symObjAddr: 0x5318, symBinAddr: 0x100007E10, symSize: 0x44 }
  - { offsetInCU: 0x2125B, offset: 0x2125B, size: 0x8, addend: 0x0, symName: __ZNSt3__117__compressed_pairIPNS_6vectorIsNS_9allocatorIsEEEENS2_IS4_EEE6secondB7v160006Ev, symObjAddr: 0x535C, symBinAddr: 0x100007E54, symSize: 0x24 }
  - { offsetInCU: 0x21281, offset: 0x21281, size: 0x8, addend: 0x0, symName: __ZNSt3__122__compressed_pair_elemINS_9allocatorINS_6vectorIsNS1_IsEEEEEELi1ELb1EE5__getB7v160006Ev, symObjAddr: 0x5380, symBinAddr: 0x100007E78, symSize: 0x14 }
  - { offsetInCU: 0x212A7, offset: 0x212A7, size: 0x8, addend: 0x0, symName: __ZNKSt3__16vectorINS0_IsNS_9allocatorIsEEEENS1_IS3_EEE9__end_capB7v160006Ev, symObjAddr: 0x5394, symBinAddr: 0x100007E8C, symSize: 0x28 }
  - { offsetInCU: 0x212CD, offset: 0x212CD, size: 0x8, addend: 0x0, symName: __ZNKSt3__117__compressed_pairIPNS_6vectorIsNS_9allocatorIsEEEENS2_IS4_EEE5firstB7v160006Ev, symObjAddr: 0x53BC, symBinAddr: 0x100007EB4, symSize: 0x24 }
  - { offsetInCU: 0x212F3, offset: 0x212F3, size: 0x8, addend: 0x0, symName: __ZNKSt3__122__compressed_pair_elemIPNS_6vectorIsNS_9allocatorIsEEEELi0ELb0EE5__getB7v160006Ev, symObjAddr: 0x53E0, symBinAddr: 0x100007ED8, symSize: 0x14 }
  - { offsetInCU: 0x21319, offset: 0x21319, size: 0x8, addend: 0x0, symName: __ZNSt3__16vectorINS0_IyNS_9allocatorIyEEEENS1_IS3_EEED2B7v160006Ev, symObjAddr: 0x53F4, symBinAddr: 0x100007EEC, symSize: 0x44 }
  - { offsetInCU: 0x21343, offset: 0x21343, size: 0x8, addend: 0x0, symName: __ZNSt3__16vectorINS0_IyNS_9allocatorIyEEEENS1_IS3_EEE16__destroy_vectorC1ERS5_, symObjAddr: 0x5438, symBinAddr: 0x100007F30, symSize: 0x34 }
  - { offsetInCU: 0x2137C, offset: 0x2137C, size: 0x8, addend: 0x0, symName: __ZNSt3__16vectorINS0_IyNS_9allocatorIyEEEENS1_IS3_EEE16__destroy_vectorclB7v160006Ev, symObjAddr: 0x546C, symBinAddr: 0x100007F64, symSize: 0x9C }
  - { offsetInCU: 0x213A2, offset: 0x213A2, size: 0x8, addend: 0x0, symName: __ZNSt3__16vectorINS0_IyNS_9allocatorIyEEEENS1_IS3_EEE16__destroy_vectorC2ERS5_, symObjAddr: 0x5508, symBinAddr: 0x100008000, symSize: 0x20 }
  - { offsetInCU: 0x213DB, offset: 0x213DB, size: 0x8, addend: 0x0, symName: __ZNKSt3__16vectorINS0_IyNS_9allocatorIyEEEENS1_IS3_EEE17__annotate_deleteB7v160006Ev, symObjAddr: 0x5528, symBinAddr: 0x100008020, symSize: 0xD4 }
  - { offsetInCU: 0x21401, offset: 0x21401, size: 0x8, addend: 0x0, symName: __ZNSt3__16vectorINS0_IyNS_9allocatorIyEEEENS1_IS3_EEE7__clearB7v160006Ev, symObjAddr: 0x560C, symBinAddr: 0x100008104, symSize: 0x28 }
  - { offsetInCU: 0x21427, offset: 0x21427, size: 0x8, addend: 0x0, symName: __ZNSt3__116allocator_traitsINS_9allocatorINS_6vectorIyNS1_IyEEEEEEE10deallocateB7v160006ERS5_PS4_m, symObjAddr: 0x5634, symBinAddr: 0x10000812C, symSize: 0x34 }
  - { offsetInCU: 0x21469, offset: 0x21469, size: 0x8, addend: 0x0, symName: __ZNSt3__16vectorINS0_IyNS_9allocatorIyEEEENS1_IS3_EEE7__allocB7v160006Ev, symObjAddr: 0x5668, symBinAddr: 0x100008160, symSize: 0x28 }
  - { offsetInCU: 0x2148F, offset: 0x2148F, size: 0x8, addend: 0x0, symName: __ZNKSt3__16vectorINS0_IyNS_9allocatorIyEEEENS1_IS3_EEE8capacityB7v160006Ev, symObjAddr: 0x5690, symBinAddr: 0x100008188, symSize: 0x40 }
  - { offsetInCU: 0x214B5, offset: 0x214B5, size: 0x8, addend: 0x0, symName: __ZNKSt3__16vectorINS0_IyNS_9allocatorIyEEEENS1_IS3_EEE31__annotate_contiguous_containerB7v160006EPKvS7_S7_S7_, symObjAddr: 0x56D0, symBinAddr: 0x1000081C8, symSize: 0x20 }
  - { offsetInCU: 0x21507, offset: 0x21507, size: 0x8, addend: 0x0, symName: __ZNKSt3__16vectorINS0_IyNS_9allocatorIyEEEENS1_IS3_EEE4dataB7v160006Ev, symObjAddr: 0x56F0, symBinAddr: 0x1000081E8, symSize: 0x28 }
  - { offsetInCU: 0x2152D, offset: 0x2152D, size: 0x8, addend: 0x0, symName: __ZNSt3__16vectorINS0_IyNS_9allocatorIyEEEENS1_IS3_EEE22__base_destruct_at_endB7v160006EPS3_, symObjAddr: 0x572C, symBinAddr: 0x100008224, symSize: 0x8C }
  - { offsetInCU: 0x21571, offset: 0x21571, size: 0x8, addend: 0x0, symName: __ZNSt3__116allocator_traitsINS_9allocatorINS_6vectorIyNS1_IyEEEEEEE7destroyB7v160006IS4_vvEEvRS5_PT_, symObjAddr: 0x57B8, symBinAddr: 0x1000082B0, symSize: 0x28 }
  - { offsetInCU: 0x215AB, offset: 0x215AB, size: 0x8, addend: 0x0, symName: __ZNSt3__19allocatorINS_6vectorIyNS0_IyEEEEE10deallocateB7v160006EPS3_m, symObjAddr: 0x5828, symBinAddr: 0x100008320, symSize: 0x44 }
  - { offsetInCU: 0x215ED, offset: 0x215ED, size: 0x8, addend: 0x0, symName: __ZNSt3__117__compressed_pairIPNS_6vectorIyNS_9allocatorIyEEEENS2_IS4_EEE6secondB7v160006Ev, symObjAddr: 0x586C, symBinAddr: 0x100008364, symSize: 0x24 }
  - { offsetInCU: 0x21613, offset: 0x21613, size: 0x8, addend: 0x0, symName: __ZNSt3__122__compressed_pair_elemINS_9allocatorINS_6vectorIyNS1_IyEEEEEELi1ELb1EE5__getB7v160006Ev, symObjAddr: 0x5890, symBinAddr: 0x100008388, symSize: 0x14 }
  - { offsetInCU: 0x21639, offset: 0x21639, size: 0x8, addend: 0x0, symName: __ZNKSt3__16vectorINS0_IyNS_9allocatorIyEEEENS1_IS3_EEE9__end_capB7v160006Ev, symObjAddr: 0x58A4, symBinAddr: 0x10000839C, symSize: 0x28 }
  - { offsetInCU: 0x2165F, offset: 0x2165F, size: 0x8, addend: 0x0, symName: __ZNKSt3__117__compressed_pairIPNS_6vectorIyNS_9allocatorIyEEEENS2_IS4_EEE5firstB7v160006Ev, symObjAddr: 0x58CC, symBinAddr: 0x1000083C4, symSize: 0x24 }
  - { offsetInCU: 0x21685, offset: 0x21685, size: 0x8, addend: 0x0, symName: __ZNKSt3__122__compressed_pair_elemIPNS_6vectorIyNS_9allocatorIyEEEELi0ELb0EE5__getB7v160006Ev, symObjAddr: 0x58F0, symBinAddr: 0x1000083E8, symSize: 0x14 }
  - { offsetInCU: 0x216AB, offset: 0x216AB, size: 0x8, addend: 0x0, symName: __ZNSt3__16vectorIyNS_9allocatorIyEEED2B7v160006Ev, symObjAddr: 0x5904, symBinAddr: 0x1000083FC, symSize: 0x44 }
  - { offsetInCU: 0x216D5, offset: 0x216D5, size: 0x8, addend: 0x0, symName: __ZNSt3__16vectorIyNS_9allocatorIyEEE16__destroy_vectorC1ERS3_, symObjAddr: 0x5948, symBinAddr: 0x100008440, symSize: 0x34 }
  - { offsetInCU: 0x2170E, offset: 0x2170E, size: 0x8, addend: 0x0, symName: __ZNSt3__16vectorIyNS_9allocatorIyEEE16__destroy_vectorclB7v160006Ev, symObjAddr: 0x597C, symBinAddr: 0x100008474, symSize: 0x9C }
  - { offsetInCU: 0x21734, offset: 0x21734, size: 0x8, addend: 0x0, symName: __ZNSt3__16vectorIyNS_9allocatorIyEEE16__destroy_vectorC2ERS3_, symObjAddr: 0x5A18, symBinAddr: 0x100008510, symSize: 0x20 }
  - { offsetInCU: 0x2176D, offset: 0x2176D, size: 0x8, addend: 0x0, symName: __ZNSt3__16vectorIyNS_9allocatorIyEEE7__clearB7v160006Ev, symObjAddr: 0x5A48, symBinAddr: 0x100008540, symSize: 0x28 }
  - { offsetInCU: 0x21793, offset: 0x21793, size: 0x8, addend: 0x0, symName: __ZNSt3__16vectorIyNS_9allocatorIyEEE22__base_destruct_at_endB7v160006EPy, symObjAddr: 0x5A70, symBinAddr: 0x100008568, symSize: 0x8C }
  - { offsetInCU: 0x217D7, offset: 0x217D7, size: 0x8, addend: 0x0, symName: __ZNSt3__19basic_iosIcNS_11char_traitsIcEEEC2B7v160006Ev, symObjAddr: 0x5AFC, symBinAddr: 0x1000085F4, symSize: 0x44 }
  - { offsetInCU: 0x21801, offset: 0x21801, size: 0x8, addend: 0x0, symName: __ZNSt3__113basic_istreamIcNS_11char_traitsIcEEEC2B7v160006EPNS_15basic_streambufIcS2_EE, symObjAddr: 0x5B40, symBinAddr: 0x100008638, symSize: 0x64 }
  - { offsetInCU: 0x21846, offset: 0x21846, size: 0x8, addend: 0x0, symName: __ZNSt3__19basic_iosIcNS_11char_traitsIcEEE8setstateB7v160006Ej, symObjAddr: 0x5BA4, symBinAddr: 0x10000869C, symSize: 0x2C }
  - { offsetInCU: 0x2187B, offset: 0x2187B, size: 0x8, addend: 0x0, symName: __ZNSt3__18ios_baseC2B7v160006Ev, symObjAddr: 0x5BD0, symBinAddr: 0x1000086C8, symSize: 0x24 }
  - { offsetInCU: 0x218A5, offset: 0x218A5, size: 0x8, addend: 0x0, symName: __ZNSt3__19basic_iosIcNS_11char_traitsIcEEE4initB7v160006EPNS_15basic_streambufIcS2_EE, symObjAddr: 0x5BF4, symBinAddr: 0x1000086EC, symSize: 0x44 }
  - { offsetInCU: 0x218DC, offset: 0x218DC, size: 0x8, addend: 0x0, symName: __ZNSt3__111char_traitsIcE3eofEv, symObjAddr: 0x5C38, symBinAddr: 0x100008730, symSize: 0x8 }
  - { offsetInCU: 0x218F0, offset: 0x218F0, size: 0x8, addend: 0x0, symName: __ZNSt3__18ios_base8setstateB7v160006Ej, symObjAddr: 0x5C40, symBinAddr: 0x100008738, symSize: 0x34 }
  - { offsetInCU: 0x21927, offset: 0x21927, size: 0x8, addend: 0x0, symName: __ZNKSt3__19basic_iosIcNS_11char_traitsIcEEE5widenB7v160006Ec, symObjAddr: 0x5EAC, symBinAddr: 0x1000089A4, symSize: 0x84 }
  - { offsetInCU: 0x21981, offset: 0x21981, size: 0x8, addend: 0x0, symName: __ZNKSt3__113basic_istreamIcNS_11char_traitsIcEEE6sentrycvbB7v160006Ev, symObjAddr: 0x5F30, symBinAddr: 0x100008A28, symSize: 0x1C }
  - { offsetInCU: 0x219A7, offset: 0x219A7, size: 0x8, addend: 0x0, symName: __ZNSt3__112basic_stringIcNS_11char_traitsIcEENS_9allocatorIcEEE5clearB7v160006Ev, symObjAddr: 0x5F4C, symBinAddr: 0x100008A44, symSize: 0x88 }
  - { offsetInCU: 0x219CF, offset: 0x219CF, size: 0x8, addend: 0x0, symName: __ZNKSt3__19basic_iosIcNS_11char_traitsIcEEE5rdbufB7v160006Ev, symObjAddr: 0x5FD4, symBinAddr: 0x100008ACC, symSize: 0x24 }
  - { offsetInCU: 0x219F7, offset: 0x219F7, size: 0x8, addend: 0x0, symName: __ZNSt3__115basic_streambufIcNS_11char_traitsIcEEE6sbumpcB7v160006Ev, symObjAddr: 0x5FF8, symBinAddr: 0x100008AF0, symSize: 0x78 }
  - { offsetInCU: 0x21A1D, offset: 0x21A1D, size: 0x8, addend: 0x0, symName: __ZNSt3__111char_traitsIcE11eq_int_typeEii, symObjAddr: 0x6070, symBinAddr: 0x100008B68, symSize: 0x28 }
  - { offsetInCU: 0x21A4E, offset: 0x21A4E, size: 0x8, addend: 0x0, symName: __ZNSt3__111char_traitsIcE12to_char_typeEi, symObjAddr: 0x6098, symBinAddr: 0x100008B90, symSize: 0x18 }
  - { offsetInCU: 0x21A71, offset: 0x21A71, size: 0x8, addend: 0x0, symName: __ZNSt3__111char_traitsIcE2eqEcc, symObjAddr: 0x60B0, symBinAddr: 0x100008BA8, symSize: 0x28 }
  - { offsetInCU: 0x21AA2, offset: 0x21AA2, size: 0x8, addend: 0x0, symName: __ZNKSt3__112basic_stringIcNS_11char_traitsIcEENS_9allocatorIcEEE4sizeB7v160006Ev, symObjAddr: 0x60D8, symBinAddr: 0x100008BD0, symSize: 0x54 }
  - { offsetInCU: 0x21AC8, offset: 0x21AC8, size: 0x8, addend: 0x0, symName: __ZNKSt3__112basic_stringIcNS_11char_traitsIcEENS_9allocatorIcEEE8max_sizeB7v160006Ev, symObjAddr: 0x612C, symBinAddr: 0x100008C24, symSize: 0xAC }
  - { offsetInCU: 0x21B1A, offset: 0x21B1A, size: 0x8, addend: 0x0, symName: __ZNSt3__18ios_base18__setstate_nothrowB7v160006Ej, symObjAddr: 0x61D8, symBinAddr: 0x100008CD0, symSize: 0x64 }
  - { offsetInCU: 0x21B4F, offset: 0x21B4F, size: 0x8, addend: 0x0, symName: __ZNKSt3__19basic_iosIcNS_11char_traitsIcEEE10exceptionsB7v160006Ev, symObjAddr: 0x623C, symBinAddr: 0x100008D34, symSize: 0x24 }
  - { offsetInCU: 0x21B75, offset: 0x21B75, size: 0x8, addend: 0x0, symName: __ZNKSt3__112basic_stringIcNS_11char_traitsIcEENS_9allocatorIcEEE9__is_longB7v160006Ev, symObjAddr: 0x6270, symBinAddr: 0x100008D68, symSize: 0x38 }
  - { offsetInCU: 0x21B9B, offset: 0x21B9B, size: 0x8, addend: 0x0, symName: __ZNSt3__111char_traitsIcE6assignERcRKc, symObjAddr: 0x62A8, symBinAddr: 0x100008DA0, symSize: 0x24 }
  - { offsetInCU: 0x21BCC, offset: 0x21BCC, size: 0x8, addend: 0x0, symName: __ZNSt3__112basic_stringIcNS_11char_traitsIcEENS_9allocatorIcEEE18__get_long_pointerB7v160006Ev, symObjAddr: 0x62CC, symBinAddr: 0x100008DC4, symSize: 0x28 }
  - { offsetInCU: 0x21BF2, offset: 0x21BF2, size: 0x8, addend: 0x0, symName: __ZNSt3__112basic_stringIcNS_11char_traitsIcEENS_9allocatorIcEEE15__set_long_sizeB7v160006Em, symObjAddr: 0x62F4, symBinAddr: 0x100008DEC, symSize: 0x38 }
  - { offsetInCU: 0x21C27, offset: 0x21C27, size: 0x8, addend: 0x0, symName: __ZNSt3__112basic_stringIcNS_11char_traitsIcEENS_9allocatorIcEEE19__get_short_pointerB7v160006Ev, symObjAddr: 0x632C, symBinAddr: 0x100008E24, symSize: 0x28 }
  - { offsetInCU: 0x21C4D, offset: 0x21C4D, size: 0x8, addend: 0x0, symName: __ZNSt3__112basic_stringIcNS_11char_traitsIcEENS_9allocatorIcEEE16__set_short_sizeB7v160006Em, symObjAddr: 0x6354, symBinAddr: 0x100008E4C, symSize: 0x78 }
  - { offsetInCU: 0x21C82, offset: 0x21C82, size: 0x8, addend: 0x0, symName: __ZNKSt3__117__compressed_pairINS_12basic_stringIcNS_11char_traitsIcEENS_9allocatorIcEEE5__repES5_E5firstB7v160006Ev, symObjAddr: 0x63CC, symBinAddr: 0x100008EC4, symSize: 0x24 }
  - { offsetInCU: 0x21CA8, offset: 0x21CA8, size: 0x8, addend: 0x0, symName: __ZNKSt3__122__compressed_pair_elemINS_12basic_stringIcNS_11char_traitsIcEENS_9allocatorIcEEE5__repELi0ELb0EE5__getB7v160006Ev, symObjAddr: 0x63F0, symBinAddr: 0x100008EE8, symSize: 0x14 }
  - { offsetInCU: 0x21CCE, offset: 0x21CCE, size: 0x8, addend: 0x0, symName: __ZNSt3__114pointer_traitsIPcE10pointer_toB7v160006ERc, symObjAddr: 0x6404, symBinAddr: 0x100008EFC, symSize: 0x14 }
  - { offsetInCU: 0x21CF1, offset: 0x21CF1, size: 0x8, addend: 0x0, symName: __ZNKSt3__18ios_base5rdbufB7v160006Ev, symObjAddr: 0x6418, symBinAddr: 0x100008F10, symSize: 0x18 }
  - { offsetInCU: 0x21D17, offset: 0x21D17, size: 0x8, addend: 0x0, symName: __ZNSt3__111char_traitsIcE11to_int_typeEc, symObjAddr: 0x6430, symBinAddr: 0x100008F28, symSize: 0x14 }
  - { offsetInCU: 0x21D3A, offset: 0x21D3A, size: 0x8, addend: 0x0, symName: __ZNKSt3__112basic_stringIcNS_11char_traitsIcEENS_9allocatorIcEEE15__get_long_sizeB7v160006Ev, symObjAddr: 0x6444, symBinAddr: 0x100008F3C, symSize: 0x28 }
  - { offsetInCU: 0x21D60, offset: 0x21D60, size: 0x8, addend: 0x0, symName: __ZNKSt3__112basic_stringIcNS_11char_traitsIcEENS_9allocatorIcEEE16__get_short_sizeB7v160006Ev, symObjAddr: 0x646C, symBinAddr: 0x100008F64, symSize: 0x34 }
  - { offsetInCU: 0x21D91, offset: 0x21D91, size: 0x8, addend: 0x0, symName: __ZNSt3__116allocator_traitsINS_9allocatorIcEEE8max_sizeB7v160006IS2_vvEEmRKS2_, symObjAddr: 0x64A0, symBinAddr: 0x100008F98, symSize: 0x28 }
  - { offsetInCU: 0x21DBC, offset: 0x21DBC, size: 0x8, addend: 0x0, symName: __ZNKSt3__112basic_stringIcNS_11char_traitsIcEENS_9allocatorIcEEE7__allocB7v160006Ev, symObjAddr: 0x64C8, symBinAddr: 0x100008FC0, symSize: 0x24 }
  - { offsetInCU: 0x21DE2, offset: 0x21DE2, size: 0x8, addend: 0x0, symName: __ZNKSt3__117__compressed_pairINS_12basic_stringIcNS_11char_traitsIcEENS_9allocatorIcEEE5__repES5_E6secondB7v160006Ev, symObjAddr: 0x64EC, symBinAddr: 0x100008FE4, symSize: 0x24 }
  - { offsetInCU: 0x21E08, offset: 0x21E08, size: 0x8, addend: 0x0, symName: __ZNKSt3__122__compressed_pair_elemINS_9allocatorIcEELi1ELb1EE5__getB7v160006Ev, symObjAddr: 0x6510, symBinAddr: 0x100009008, symSize: 0x14 }
  - { offsetInCU: 0x21E2E, offset: 0x21E2E, size: 0x8, addend: 0x0, symName: __ZNKSt3__18ios_base10exceptionsB7v160006Ev, symObjAddr: 0x6524, symBinAddr: 0x10000901C, symSize: 0x18 }
  - { offsetInCU: 0x21E94, offset: 0x21E94, size: 0x8, addend: 0x0, symName: __ZNKSt3__15ctypeIcE5widenB7v160006Ec, symObjAddr: 0x6568, symBinAddr: 0x100009060, symSize: 0x38 }
  - { offsetInCU: 0x21EC9, offset: 0x21EC9, size: 0x8, addend: 0x0, symName: __ZNKSt3__19basic_iosIcNS_11char_traitsIcEEE4failB7v160006Ev, symObjAddr: 0x65A0, symBinAddr: 0x100009098, symSize: 0x28 }
  - { offsetInCU: 0x21EEF, offset: 0x21EEF, size: 0x8, addend: 0x0, symName: __ZNKSt3__18ios_base4failB7v160006Ev, symObjAddr: 0x65C8, symBinAddr: 0x1000090C0, symSize: 0x28 }
  - { offsetInCU: 0x21F17, offset: 0x21F17, size: 0x8, addend: 0x0, symName: __ZNSt3__13mapINS_5tupleIJssssEEEyNS_4lessIS2_EENS_9allocatorINS_4pairIKS2_yEEEEEC2B7v160006Ev, symObjAddr: 0x65F0, symBinAddr: 0x1000090E8, symSize: 0x40 }
  - { offsetInCU: 0x21F41, offset: 0x21F41, size: 0x8, addend: 0x0, symName: __ZNSt3__119__map_value_compareINS_5tupleIJssssEEENS_12__value_typeIS2_yEENS_4lessIS2_EELb1EEC1B7v160006ES6_, symObjAddr: 0x6630, symBinAddr: 0x100009128, symSize: 0x2C }
  - { offsetInCU: 0x21F7A, offset: 0x21F7A, size: 0x8, addend: 0x0, symName: __ZNSt3__16__treeINS_12__value_typeINS_5tupleIJssssEEEyEENS_19__map_value_compareIS3_S4_NS_4lessIS3_EELb1EEENS_9allocatorIS4_EEEC1ERKS8_, symObjAddr: 0x665C, symBinAddr: 0x100009154, symSize: 0x34 }
  - { offsetInCU: 0x21FB5, offset: 0x21FB5, size: 0x8, addend: 0x0, symName: __ZNSt3__119__map_value_compareINS_5tupleIJssssEEENS_12__value_typeIS2_yEENS_4lessIS2_EELb1EEC2B7v160006ES6_, symObjAddr: 0x6690, symBinAddr: 0x100009188, symSize: 0x14 }
  - { offsetInCU: 0x21FEE, offset: 0x21FEE, size: 0x8, addend: 0x0, symName: __ZNSt3__16__treeINS_12__value_typeINS_5tupleIJssssEEEyEENS_19__map_value_compareIS3_S4_NS_4lessIS3_EELb1EEENS_9allocatorIS4_EEEC2ERKS8_, symObjAddr: 0x66A4, symBinAddr: 0x10000919C, symSize: 0x7C }
  - { offsetInCU: 0x22029, offset: 0x22029, size: 0x8, addend: 0x0, symName: __ZNSt3__117__compressed_pairINS_15__tree_end_nodeIPNS_16__tree_node_baseIPvEEEENS_9allocatorINS_11__tree_nodeINS_12__value_typeINS_5tupleIJssssEEEyEES3_EEEEEC1B7v160006ILb1EvEEv, symObjAddr: 0x6720, symBinAddr: 0x100009218, symSize: 0x2C }
  - { offsetInCU: 0x22064, offset: 0x22064, size: 0x8, addend: 0x0, symName: __ZNSt3__117__compressed_pairImNS_19__map_value_compareINS_5tupleIJssssEEENS_12__value_typeIS3_yEENS_4lessIS3_EELb1EEEEC1B7v160006IiRKS8_EEOT_OT0_, symObjAddr: 0x674C, symBinAddr: 0x100009244, symSize: 0x3C }
  - { offsetInCU: 0x220BC, offset: 0x220BC, size: 0x8, addend: 0x0, symName: __ZNSt3__16__treeINS_12__value_typeINS_5tupleIJssssEEEyEENS_19__map_value_compareIS3_S4_NS_4lessIS3_EELb1EEENS_9allocatorIS4_EEE10__end_nodeB7v160006Ev, symObjAddr: 0x6788, symBinAddr: 0x100009280, symSize: 0x2C }
  - { offsetInCU: 0x220E2, offset: 0x220E2, size: 0x8, addend: 0x0, symName: __ZNSt3__16__treeINS_12__value_typeINS_5tupleIJssssEEEyEENS_19__map_value_compareIS3_S4_NS_4lessIS3_EELb1EEENS_9allocatorIS4_EEE12__begin_nodeB7v160006Ev, symObjAddr: 0x67B4, symBinAddr: 0x1000092AC, symSize: 0x14 }
  - { offsetInCU: 0x22108, offset: 0x22108, size: 0x8, addend: 0x0, symName: __ZNSt3__117__compressed_pairINS_15__tree_end_nodeIPNS_16__tree_node_baseIPvEEEENS_9allocatorINS_11__tree_nodeINS_12__value_typeINS_5tupleIJssssEEEyEES3_EEEEEC2B7v160006ILb1EvEEv, symObjAddr: 0x67C8, symBinAddr: 0x1000092C0, symSize: 0x34 }
  - { offsetInCU: 0x2213D, offset: 0x2213D, size: 0x8, addend: 0x0, symName: __ZNSt3__122__compressed_pair_elemINS_15__tree_end_nodeIPNS_16__tree_node_baseIPvEEEELi0ELb0EEC2B7v160006ENS_16__value_init_tagE, symObjAddr: 0x67FC, symBinAddr: 0x1000092F4, symSize: 0x2C }
  - { offsetInCU: 0x22171, offset: 0x22171, size: 0x8, addend: 0x0, symName: __ZNSt3__122__compressed_pair_elemINS_9allocatorINS_11__tree_nodeINS_12__value_typeINS_5tupleIJssssEEEyEEPvEEEELi1ELb1EEC2B7v160006ENS_16__value_init_tagE, symObjAddr: 0x6828, symBinAddr: 0x100009320, symSize: 0x2C }
  - { offsetInCU: 0x221A5, offset: 0x221A5, size: 0x8, addend: 0x0, symName: __ZNSt3__115__tree_end_nodeIPNS_16__tree_node_baseIPvEEEC1B7v160006Ev, symObjAddr: 0x6854, symBinAddr: 0x10000934C, symSize: 0x2C }
  - { offsetInCU: 0x221CF, offset: 0x221CF, size: 0x8, addend: 0x0, symName: __ZNSt3__115__tree_end_nodeIPNS_16__tree_node_baseIPvEEEC2B7v160006Ev, symObjAddr: 0x6880, symBinAddr: 0x100009378, symSize: 0x18 }
  - { offsetInCU: 0x221F9, offset: 0x221F9, size: 0x8, addend: 0x0, symName: __ZNSt3__19allocatorINS_11__tree_nodeINS_12__value_typeINS_5tupleIJssssEEEyEEPvEEEC2B7v160006Ev, symObjAddr: 0x6898, symBinAddr: 0x100009390, symSize: 0x2C }
  - { offsetInCU: 0x22223, offset: 0x22223, size: 0x8, addend: 0x0, symName: __ZNSt3__116__non_trivial_ifILb1ENS_9allocatorINS_11__tree_nodeINS_12__value_typeINS_5tupleIJssssEEEyEEPvEEEEEC2B7v160006Ev, symObjAddr: 0x68C4, symBinAddr: 0x1000093BC, symSize: 0x14 }
  - { offsetInCU: 0x2224D, offset: 0x2224D, size: 0x8, addend: 0x0, symName: __ZNSt3__117__compressed_pairImNS_19__map_value_compareINS_5tupleIJssssEEENS_12__value_typeIS3_yEENS_4lessIS3_EELb1EEEEC2B7v160006IiRKS8_EEOT_OT0_, symObjAddr: 0x68D8, symBinAddr: 0x1000093D0, symSize: 0x44 }
  - { offsetInCU: 0x222A5, offset: 0x222A5, size: 0x8, addend: 0x0, symName: __ZNSt3__122__compressed_pair_elemImLi0ELb0EEC2B7v160006IivEEOT_, symObjAddr: 0x691C, symBinAddr: 0x100009414, symSize: 0x24 }
  - { offsetInCU: 0x222E7, offset: 0x222E7, size: 0x8, addend: 0x0, symName: __ZNSt3__122__compressed_pair_elemINS_19__map_value_compareINS_5tupleIJssssEEENS_12__value_typeIS3_yEENS_4lessIS3_EELb1EEELi1ELb1EEC2B7v160006IRKS8_vEEOT_, symObjAddr: 0x6940, symBinAddr: 0x100009438, symSize: 0x18 }
  - { offsetInCU: 0x22329, offset: 0x22329, size: 0x8, addend: 0x0, symName: __ZNSt3__114pointer_traitsIPNS_15__tree_end_nodeIPNS_16__tree_node_baseIPvEEEEE10pointer_toB7v160006ERS6_, symObjAddr: 0x6958, symBinAddr: 0x100009450, symSize: 0x14 }
  - { offsetInCU: 0x2234C, offset: 0x2234C, size: 0x8, addend: 0x0, symName: __ZNSt3__117__compressed_pairINS_15__tree_end_nodeIPNS_16__tree_node_baseIPvEEEENS_9allocatorINS_11__tree_nodeINS_12__value_typeINS_5tupleIJssssEEEyEES3_EEEEE5firstB7v160006Ev, symObjAddr: 0x696C, symBinAddr: 0x100009464, symSize: 0x24 }
  - { offsetInCU: 0x22372, offset: 0x22372, size: 0x8, addend: 0x0, symName: __ZNSt3__122__compressed_pair_elemINS_15__tree_end_nodeIPNS_16__tree_node_baseIPvEEEELi0ELb0EE5__getB7v160006Ev, symObjAddr: 0x6990, symBinAddr: 0x100009488, symSize: 0x14 }
  - { offsetInCU: 0x22398, offset: 0x22398, size: 0x8, addend: 0x0, symName: __ZNSt3__13mapINS_5tupleIJssssEEEyNS_4lessIS2_EENS_9allocatorINS_4pairIKS2_yEEEEED2B7v160006Ev, symObjAddr: 0x69A4, symBinAddr: 0x10000949C, symSize: 0x2C }
  - { offsetInCU: 0x223C2, offset: 0x223C2, size: 0x8, addend: 0x0, symName: __ZNSt3__16__treeINS_12__value_typeINS_5tupleIJssssEEEyEENS_19__map_value_compareIS3_S4_NS_4lessIS3_EELb1EEENS_9allocatorIS4_EEED1Ev, symObjAddr: 0x69D0, symBinAddr: 0x1000094C8, symSize: 0x2C }
  - { offsetInCU: 0x223EE, offset: 0x223EE, size: 0x8, addend: 0x0, symName: __ZNSt3__16__treeINS_12__value_typeINS_5tupleIJssssEEEyEENS_19__map_value_compareIS3_S4_NS_4lessIS3_EELb1EEENS_9allocatorIS4_EEED2Ev, symObjAddr: 0x69FC, symBinAddr: 0x1000094F4, symSize: 0x38 }
  - { offsetInCU: 0x2241A, offset: 0x2241A, size: 0x8, addend: 0x0, symName: __ZNSt3__16__treeINS_12__value_typeINS_5tupleIJssssEEEyEENS_19__map_value_compareIS3_S4_NS_4lessIS3_EELb1EEENS_9allocatorIS4_EEE7destroyEPNS_11__tree_nodeIS4_PvEE, symObjAddr: 0x6A34, symBinAddr: 0x10000952C, symSize: 0xAC }
  - { offsetInCU: 0x22466, offset: 0x22466, size: 0x8, addend: 0x0, symName: __ZNKSt3__16__treeINS_12__value_typeINS_5tupleIJssssEEEyEENS_19__map_value_compareIS3_S4_NS_4lessIS3_EELb1EEENS_9allocatorIS4_EEE6__rootB7v160006Ev, symObjAddr: 0x6AE0, symBinAddr: 0x1000095D8, symSize: 0x28 }
  - { offsetInCU: 0x2248C, offset: 0x2248C, size: 0x8, addend: 0x0, symName: __ZNSt3__16__treeINS_12__value_typeINS_5tupleIJssssEEEyEENS_19__map_value_compareIS3_S4_NS_4lessIS3_EELb1EEENS_9allocatorIS4_EEE12__node_allocB7v160006Ev, symObjAddr: 0x6B08, symBinAddr: 0x100009600, symSize: 0x28 }
  - { offsetInCU: 0x224B2, offset: 0x224B2, size: 0x8, addend: 0x0, symName: __ZNSt3__116allocator_traitsINS_9allocatorINS_11__tree_nodeINS_12__value_typeINS_5tupleIJssssEEEyEEPvEEEEE7destroyB7v160006INS_4pairIKS5_yEEvvEEvRS9_PT_, symObjAddr: 0x6B30, symBinAddr: 0x100009628, symSize: 0x28 }
  - { offsetInCU: 0x224EC, offset: 0x224EC, size: 0x8, addend: 0x0, symName: __ZNSt3__122__tree_key_value_typesINS_12__value_typeINS_5tupleIJssssEEEyEEE9__get_ptrB7v160006ERS4_, symObjAddr: 0x6B58, symBinAddr: 0x100009650, symSize: 0x24 }
  - { offsetInCU: 0x22510, offset: 0x22510, size: 0x8, addend: 0x0, symName: __ZNSt3__116allocator_traitsINS_9allocatorINS_11__tree_nodeINS_12__value_typeINS_5tupleIJssssEEEyEEPvEEEEE10deallocateB7v160006ERS9_PS8_m, symObjAddr: 0x6B7C, symBinAddr: 0x100009674, symSize: 0x34 }
  - { offsetInCU: 0x22552, offset: 0x22552, size: 0x8, addend: 0x0, symName: __ZNSt3__117__compressed_pairINS_15__tree_end_nodeIPNS_16__tree_node_baseIPvEEEENS_9allocatorINS_11__tree_nodeINS_12__value_typeINS_5tupleIJssssEEEyEES3_EEEEE6secondB7v160006Ev, symObjAddr: 0x6BB0, symBinAddr: 0x1000096A8, symSize: 0x24 }
  - { offsetInCU: 0x22578, offset: 0x22578, size: 0x8, addend: 0x0, symName: __ZNSt3__122__compressed_pair_elemINS_9allocatorINS_11__tree_nodeINS_12__value_typeINS_5tupleIJssssEEEyEEPvEEEELi1ELb1EE5__getB7v160006Ev, symObjAddr: 0x6BD4, symBinAddr: 0x1000096CC, symSize: 0x14 }
  - { offsetInCU: 0x2259E, offset: 0x2259E, size: 0x8, addend: 0x0, symName: __ZNSt3__112__value_typeINS_5tupleIJssssEEEyE11__get_valueB7v160006Ev, symObjAddr: 0x6C1C, symBinAddr: 0x100009714, symSize: 0x24 }
  - { offsetInCU: 0x225C4, offset: 0x225C4, size: 0x8, addend: 0x0, symName: __ZNSt3__19allocatorINS_11__tree_nodeINS_12__value_typeINS_5tupleIJssssEEEyEEPvEEE10deallocateB7v160006EPS7_m, symObjAddr: 0x6C78, symBinAddr: 0x100009770, symSize: 0x44 }
  - { offsetInCU: 0x22606, offset: 0x22606, size: 0x8, addend: 0x0, symName: __ZNKSt3__16__treeINS_12__value_typeINS_5tupleIJssssEEEyEENS_19__map_value_compareIS3_S4_NS_4lessIS3_EELb1EEENS_9allocatorIS4_EEE10__end_nodeB7v160006Ev, symObjAddr: 0x6CBC, symBinAddr: 0x1000097B4, symSize: 0x2C }
  - { offsetInCU: 0x2262C, offset: 0x2262C, size: 0x8, addend: 0x0, symName: __ZNKSt3__117__compressed_pairINS_15__tree_end_nodeIPNS_16__tree_node_baseIPvEEEENS_9allocatorINS_11__tree_nodeINS_12__value_typeINS_5tupleIJssssEEEyEES3_EEEEE5firstB7v160006Ev, symObjAddr: 0x6CE8, symBinAddr: 0x1000097E0, symSize: 0x24 }
  - { offsetInCU: 0x22652, offset: 0x22652, size: 0x8, addend: 0x0, symName: __ZNKSt3__122__compressed_pair_elemINS_15__tree_end_nodeIPNS_16__tree_node_baseIPvEEEELi0ELb0EE5__getB7v160006Ev, symObjAddr: 0x6D0C, symBinAddr: 0x100009804, symSize: 0x14 }
  - { offsetInCU: 0x22690, offset: 0x22690, size: 0x8, addend: 0x0, symName: __ZNSt3__16__treeINS_12__value_typeINS_5tupleIJssssEEEyEENS_19__map_value_compareIS3_S4_NS_4lessIS3_EELb1EEENS_9allocatorIS4_EEE25__emplace_unique_key_argsIS3_JRKNS_21piecewise_construct_tENS2_IJOS3_EEENS2_IJEEEEEENS_4pairINS_15__tree_iteratorIS4_PNS_11__tree_nodeIS4_PvEElEEbEERKT_DpOT0_, symObjAddr: 0x6D20, symBinAddr: 0x100009818, symSize: 0x100 }
  - { offsetInCU: 0x22766, offset: 0x22766, size: 0x8, addend: 0x0, symName: __ZNKSt3__115__tree_iteratorINS_12__value_typeINS_5tupleIJssssEEEyEEPNS_11__tree_nodeIS4_PvEElEptB7v160006Ev, symObjAddr: 0x6E50, symBinAddr: 0x100009948, symSize: 0x2C }
  - { offsetInCU: 0x2278C, offset: 0x2278C, size: 0x8, addend: 0x0, symName: __ZNSt3__16__treeINS_12__value_typeINS_5tupleIJssssEEEyEENS_19__map_value_compareIS3_S4_NS_4lessIS3_EELb1EEENS_9allocatorIS4_EEE12__find_equalIS3_EERPNS_16__tree_node_baseIPvEERPNS_15__tree_end_nodeISG_EERKT_, symObjAddr: 0x6E7C, symBinAddr: 0x100009974, symSize: 0x184 }
  - { offsetInCU: 0x227F9, offset: 0x227F9, size: 0x8, addend: 0x0, symName: __ZNSt3__16__treeINS_12__value_typeINS_5tupleIJssssEEEyEENS_19__map_value_compareIS3_S4_NS_4lessIS3_EELb1EEENS_9allocatorIS4_EEE16__construct_nodeIJRKNS_21piecewise_construct_tENS2_IJOS3_EEENS2_IJEEEEEENS_10unique_ptrINS_11__tree_nodeIS4_PvEENS_22__tree_node_destructorINS9_ISM_EEEEEEDpOT_, symObjAddr: 0x7000, symBinAddr: 0x100009AF8, symSize: 0x120 }
  - { offsetInCU: 0x22882, offset: 0x22882, size: 0x8, addend: 0x0, symName: __ZNSt3__16__treeINS_12__value_typeINS_5tupleIJssssEEEyEENS_19__map_value_compareIS3_S4_NS_4lessIS3_EELb1EEENS_9allocatorIS4_EEE16__insert_node_atEPNS_15__tree_end_nodeIPNS_16__tree_node_baseIPvEEEERSG_SG_, symObjAddr: 0x7120, symBinAddr: 0x100009C18, symSize: 0xCC }
  - { offsetInCU: 0x228D7, offset: 0x228D7, size: 0x8, addend: 0x0, symName: __ZNKSt3__110unique_ptrINS_11__tree_nodeINS_12__value_typeINS_5tupleIJssssEEEyEEPvEENS_22__tree_node_destructorINS_9allocatorIS7_EEEEE3getB7v160006Ev, symObjAddr: 0x71EC, symBinAddr: 0x100009CE4, symSize: 0x28 }
  - { offsetInCU: 0x228FD, offset: 0x228FD, size: 0x8, addend: 0x0, symName: __ZNSt3__110unique_ptrINS_11__tree_nodeINS_12__value_typeINS_5tupleIJssssEEEyEEPvEENS_22__tree_node_destructorINS_9allocatorIS7_EEEEE7releaseB7v160006Ev, symObjAddr: 0x7214, symBinAddr: 0x100009D0C, symSize: 0x44 }
  - { offsetInCU: 0x22932, offset: 0x22932, size: 0x8, addend: 0x0, symName: __ZNSt3__110unique_ptrINS_11__tree_nodeINS_12__value_typeINS_5tupleIJssssEEEyEEPvEENS_22__tree_node_destructorINS_9allocatorIS7_EEEEED1B7v160006Ev, symObjAddr: 0x7258, symBinAddr: 0x100009D50, symSize: 0x2C }
  - { offsetInCU: 0x2295C, offset: 0x2295C, size: 0x8, addend: 0x0, symName: __ZNSt3__115__tree_iteratorINS_12__value_typeINS_5tupleIJssssEEEyEEPNS_11__tree_nodeIS4_PvEElEC1B7v160006ES8_, symObjAddr: 0x7284, symBinAddr: 0x100009D7C, symSize: 0x34 }
  - { offsetInCU: 0x2299B, offset: 0x2299B, size: 0x8, addend: 0x0, symName: __ZNSt3__14pairINS_15__tree_iteratorINS_12__value_typeINS_5tupleIJssssEEEyEEPNS_11__tree_nodeIS5_PvEElEEbEC1B7v160006ISA_RbLS7_0EEEOT_OT0_, symObjAddr: 0x72B8, symBinAddr: 0x100009DB0, symSize: 0x3C }
  - { offsetInCU: 0x229F9, offset: 0x229F9, size: 0x8, addend: 0x0, symName: __ZNKSt3__16__treeINS_12__value_typeINS_5tupleIJssssEEEyEENS_19__map_value_compareIS3_S4_NS_4lessIS3_EELb1EEENS_9allocatorIS4_EEE10__root_ptrEv, symObjAddr: 0x72F4, symBinAddr: 0x100009DEC, symSize: 0x24 }
  - { offsetInCU: 0x22A1F, offset: 0x22A1F, size: 0x8, addend: 0x0, symName: __ZNSt3__16__treeINS_12__value_typeINS_5tupleIJssssEEEyEENS_19__map_value_compareIS3_S4_NS_4lessIS3_EELb1EEENS_9allocatorIS4_EEE10value_compB7v160006Ev, symObjAddr: 0x7318, symBinAddr: 0x100009E10, symSize: 0x28 }
  - { offsetInCU: 0x22A45, offset: 0x22A45, size: 0x8, addend: 0x0, symName: __ZNKSt3__119__map_value_compareINS_5tupleIJssssEEENS_12__value_typeIS2_yEENS_4lessIS2_EELb1EEclB7v160006ERKS2_RKS4_, symObjAddr: 0x7340, symBinAddr: 0x100009E38, symSize: 0x50 }
  - { offsetInCU: 0x22A89, offset: 0x22A89, size: 0x8, addend: 0x0, symName: __ZNKSt3__119__map_value_compareINS_5tupleIJssssEEENS_12__value_typeIS2_yEENS_4lessIS2_EELb1EEclB7v160006ERKS4_RKS2_, symObjAddr: 0x7390, symBinAddr: 0x100009E88, symSize: 0x48 }
  - { offsetInCU: 0x22ACD, offset: 0x22ACD, size: 0x8, addend: 0x0, symName: __ZNSt3__117__compressed_pairImNS_19__map_value_compareINS_5tupleIJssssEEENS_12__value_typeIS3_yEENS_4lessIS3_EELb1EEEE6secondB7v160006Ev, symObjAddr: 0x73D8, symBinAddr: 0x100009ED0, symSize: 0x24 }
  - { offsetInCU: 0x22AF3, offset: 0x22AF3, size: 0x8, addend: 0x0, symName: __ZNSt3__122__compressed_pair_elemINS_19__map_value_compareINS_5tupleIJssssEEENS_12__value_typeIS3_yEENS_4lessIS3_EELb1EEELi1ELb1EE5__getB7v160006Ev, symObjAddr: 0x73FC, symBinAddr: 0x100009EF4, symSize: 0x14 }
  - { offsetInCU: 0x22B19, offset: 0x22B19, size: 0x8, addend: 0x0, symName: __ZNKSt3__14lessINS_5tupleIJssssEEEEclB7v160006ERKS2_S5_, symObjAddr: 0x7410, symBinAddr: 0x100009F08, symSize: 0x50 }
  - { offsetInCU: 0x22B5D, offset: 0x22B5D, size: 0x8, addend: 0x0, symName: __ZNKSt3__112__value_typeINS_5tupleIJssssEEEyE11__get_valueB7v160006Ev, symObjAddr: 0x7460, symBinAddr: 0x100009F58, symSize: 0x24 }
  - { offsetInCU: 0x22B93, offset: 0x22B93, size: 0x8, addend: 0x0, symName: __ZNSt3__120_CmpUnspecifiedParamC1B7v160006EMS0_i, symObjAddr: 0x74DC, symBinAddr: 0x100009FD4, symSize: 0x34 }
  - { offsetInCU: 0x22BCD, offset: 0x22BCD, size: 0x8, addend: 0x0, symName: __ZNKSt3__117__synth_three_wayMUlTyTyRKT_RKT0_E_clIssEEDaS2_S5_, symObjAddr: 0x76C0, symBinAddr: 0x10000A1B8, symSize: 0x60 }
  - { offsetInCU: 0x22C21, offset: 0x22C21, size: 0x8, addend: 0x0, symName: __ZNKSt3__112__tuple_leafILm0EsLb0EE3getB7v160006Ev, symObjAddr: 0x77E0, symBinAddr: 0x10000A2D8, symSize: 0x14 }
  - { offsetInCU: 0x22C47, offset: 0x22C47, size: 0x8, addend: 0x0, symName: __ZNKSt3__112__tuple_leafILm1EsLb0EE3getB7v160006Ev, symObjAddr: 0x77F4, symBinAddr: 0x10000A2EC, symSize: 0x14 }
  - { offsetInCU: 0x22C6D, offset: 0x22C6D, size: 0x8, addend: 0x0, symName: __ZNKSt3__112__tuple_leafILm2EsLb0EE3getB7v160006Ev, symObjAddr: 0x7808, symBinAddr: 0x10000A300, symSize: 0x14 }
  - { offsetInCU: 0x22C93, offset: 0x22C93, size: 0x8, addend: 0x0, symName: __ZNKSt3__112__tuple_leafILm3EsLb0EE3getB7v160006Ev, symObjAddr: 0x781C, symBinAddr: 0x10000A314, symSize: 0x14 }
  - { offsetInCU: 0x22CB9, offset: 0x22CB9, size: 0x8, addend: 0x0, symName: __ZNSt3__120_CmpUnspecifiedParamC2B7v160006EMS0_i, symObjAddr: 0x7830, symBinAddr: 0x10000A328, symSize: 0x18 }
  - { offsetInCU: 0x22CED, offset: 0x22CED, size: 0x8, addend: 0x0, symName: __ZNSt3__116allocator_traitsINS_9allocatorINS_11__tree_nodeINS_12__value_typeINS_5tupleIJssssEEEyEEPvEEEEE8allocateB7v160006ERS9_m, symObjAddr: 0x7880, symBinAddr: 0x10000A378, symSize: 0x2C }
  - { offsetInCU: 0x22D20, offset: 0x22D20, size: 0x8, addend: 0x0, symName: __ZNSt3__122__tree_node_destructorINS_9allocatorINS_11__tree_nodeINS_12__value_typeINS_5tupleIJssssEEEyEEPvEEEEEC1B7v160006ERS9_b, symObjAddr: 0x78AC, symBinAddr: 0x10000A3A4, symSize: 0x48 }
  - { offsetInCU: 0x22D6E, offset: 0x22D6E, size: 0x8, addend: 0x0, symName: __ZNSt3__110unique_ptrINS_11__tree_nodeINS_12__value_typeINS_5tupleIJssssEEEyEEPvEENS_22__tree_node_destructorINS_9allocatorIS7_EEEEEC1B7v160006ILb1EvEEPS7_NS_16__dependent_typeINS_27__unique_ptr_deleter_sfinaeISB_EEXT_EE20__good_rval_ref_typeE, symObjAddr: 0x78F4, symBinAddr: 0x10000A3EC, symSize: 0x3C }
  - { offsetInCU: 0x22DBF, offset: 0x22DBF, size: 0x8, addend: 0x0, symName: __ZNSt3__116allocator_traitsINS_9allocatorINS_11__tree_nodeINS_12__value_typeINS_5tupleIJssssEEEyEEPvEEEEE9constructB7v160006INS_4pairIKS5_yEEJRKNS_21piecewise_construct_tENS4_IJOS5_EEENS4_IJEEEEvvEEvRS9_PT_DpOT0_, symObjAddr: 0x7930, symBinAddr: 0x10000A428, symSize: 0x40 }
  - { offsetInCU: 0x22E3B, offset: 0x22E3B, size: 0x8, addend: 0x0, symName: __ZNKSt3__110unique_ptrINS_11__tree_nodeINS_12__value_typeINS_5tupleIJssssEEEyEEPvEENS_22__tree_node_destructorINS_9allocatorIS7_EEEEEptB7v160006Ev, symObjAddr: 0x7970, symBinAddr: 0x10000A468, symSize: 0x28 }
  - { offsetInCU: 0x22E61, offset: 0x22E61, size: 0x8, addend: 0x0, symName: __ZNSt3__110unique_ptrINS_11__tree_nodeINS_12__value_typeINS_5tupleIJssssEEEyEEPvEENS_22__tree_node_destructorINS_9allocatorIS7_EEEEE11get_deleterB7v160006Ev, symObjAddr: 0x7998, symBinAddr: 0x10000A490, symSize: 0x24 }
  - { offsetInCU: 0x22E87, offset: 0x22E87, size: 0x8, addend: 0x0, symName: __ZNSt3__19allocatorINS_11__tree_nodeINS_12__value_typeINS_5tupleIJssssEEEyEEPvEEE8allocateB7v160006Em, symObjAddr: 0x79BC, symBinAddr: 0x10000A4B4, symSize: 0x5C }
  - { offsetInCU: 0x22EC6, offset: 0x22EC6, size: 0x8, addend: 0x0, symName: __ZNSt3__116allocator_traitsINS_9allocatorINS_11__tree_nodeINS_12__value_typeINS_5tupleIJssssEEEyEEPvEEEEE8max_sizeB7v160006IS9_vvEEmRKS9_, symObjAddr: 0x7A18, symBinAddr: 0x10000A510, symSize: 0x28 }
  - { offsetInCU: 0x22EF1, offset: 0x22EF1, size: 0x8, addend: 0x0, symName: __ZNSt3__122__tree_node_destructorINS_9allocatorINS_11__tree_nodeINS_12__value_typeINS_5tupleIJssssEEEyEEPvEEEEEC2B7v160006ERS9_b, symObjAddr: 0x7A40, symBinAddr: 0x10000A538, symSize: 0x38 }
  - { offsetInCU: 0x22F39, offset: 0x22F39, size: 0x8, addend: 0x0, symName: __ZNSt3__110unique_ptrINS_11__tree_nodeINS_12__value_typeINS_5tupleIJssssEEEyEEPvEENS_22__tree_node_destructorINS_9allocatorIS7_EEEEEC2B7v160006ILb1EvEEPS7_NS_16__dependent_typeINS_27__unique_ptr_deleter_sfinaeISB_EEXT_EE20__good_rval_ref_typeE, symObjAddr: 0x7A78, symBinAddr: 0x10000A570, symSize: 0x48 }
  - { offsetInCU: 0x22F8A, offset: 0x22F8A, size: 0x8, addend: 0x0, symName: __ZNSt3__117__compressed_pairIPNS_11__tree_nodeINS_12__value_typeINS_5tupleIJssssEEEyEEPvEENS_22__tree_node_destructorINS_9allocatorIS7_EEEEEC1B7v160006IRS8_SC_EEOT_OT0_, symObjAddr: 0x7AC0, symBinAddr: 0x10000A5B8, symSize: 0x3C }
  - { offsetInCU: 0x22FE2, offset: 0x22FE2, size: 0x8, addend: 0x0, symName: __ZNSt3__117__compressed_pairIPNS_11__tree_nodeINS_12__value_typeINS_5tupleIJssssEEEyEEPvEENS_22__tree_node_destructorINS_9allocatorIS7_EEEEEC2B7v160006IRS8_SC_EEOT_OT0_, symObjAddr: 0x7AFC, symBinAddr: 0x10000A5F4, symSize: 0x48 }
  - { offsetInCU: 0x2303A, offset: 0x2303A, size: 0x8, addend: 0x0, symName: __ZNSt3__122__compressed_pair_elemIPNS_11__tree_nodeINS_12__value_typeINS_5tupleIJssssEEEyEEPvEELi0ELb0EEC2B7v160006IRS8_vEEOT_, symObjAddr: 0x7B44, symBinAddr: 0x10000A63C, symSize: 0x24 }
  - { offsetInCU: 0x2307C, offset: 0x2307C, size: 0x8, addend: 0x0, symName: __ZNSt3__122__compressed_pair_elemINS_22__tree_node_destructorINS_9allocatorINS_11__tree_nodeINS_12__value_typeINS_5tupleIJssssEEEyEEPvEEEEEELi1ELb0EEC2B7v160006ISB_vEEOT_, symObjAddr: 0x7B68, symBinAddr: 0x10000A660, symSize: 0x24 }
  - { offsetInCU: 0x230BE, offset: 0x230BE, size: 0x8, addend: 0x0, symName: __ZNSt3__14pairIKNS_5tupleIJssssEEEyEC1B7v160006IJOS2_EJEEENS_21piecewise_construct_tENS1_IJDpT_EEENS1_IJDpT0_EEE, symObjAddr: 0x7BDC, symBinAddr: 0x10000A6D4, symSize: 0x44 }
  - { offsetInCU: 0x23125, offset: 0x23125, size: 0x8, addend: 0x0, symName: __ZNSt3__14pairIKNS_5tupleIJssssEEEyEC1B7v160006IJOS2_EJEJLm0EEJEEENS_21piecewise_construct_tERNS1_IJDpT_EEERNS1_IJDpT0_EEENS_15__tuple_indicesIJXspT1_EEEENSG_IJXspT2_EEEE, symObjAddr: 0x7C20, symBinAddr: 0x10000A718, symSize: 0x3C }
  - { offsetInCU: 0x231B2, offset: 0x231B2, size: 0x8, addend: 0x0, symName: __ZNSt3__14pairIKNS_5tupleIJssssEEEyEC2B7v160006IJOS2_EJEJLm0EEJEEENS_21piecewise_construct_tERNS1_IJDpT_EEERNS1_IJDpT0_EEENS_15__tuple_indicesIJXspT1_EEEENSG_IJXspT2_EEEE, symObjAddr: 0x7C5C, symBinAddr: 0x10000A754, symSize: 0x48 }
  - { offsetInCU: 0x2323F, offset: 0x2323F, size: 0x8, addend: 0x0, symName: __ZNSt3__112__tuple_leafILm0EONS_5tupleIJssssEEELb0EE3getB7v160006Ev, symObjAddr: 0x7CC8, symBinAddr: 0x10000A7C0, symSize: 0x18 }
  - { offsetInCU: 0x23265, offset: 0x23265, size: 0x8, addend: 0x0, symName: __ZNKSt3__117__compressed_pairIPNS_11__tree_nodeINS_12__value_typeINS_5tupleIJssssEEEyEEPvEENS_22__tree_node_destructorINS_9allocatorIS7_EEEEE5firstB7v160006Ev, symObjAddr: 0x7CE0, symBinAddr: 0x10000A7D8, symSize: 0x24 }
  - { offsetInCU: 0x2328B, offset: 0x2328B, size: 0x8, addend: 0x0, symName: __ZNKSt3__122__compressed_pair_elemIPNS_11__tree_nodeINS_12__value_typeINS_5tupleIJssssEEEyEEPvEELi0ELb0EE5__getB7v160006Ev, symObjAddr: 0x7D04, symBinAddr: 0x10000A7FC, symSize: 0x14 }
  - { offsetInCU: 0x232B1, offset: 0x232B1, size: 0x8, addend: 0x0, symName: __ZNSt3__117__compressed_pairIPNS_11__tree_nodeINS_12__value_typeINS_5tupleIJssssEEEyEEPvEENS_22__tree_node_destructorINS_9allocatorIS7_EEEEE6secondB7v160006Ev, symObjAddr: 0x7D18, symBinAddr: 0x10000A810, symSize: 0x28 }
  - { offsetInCU: 0x232D7, offset: 0x232D7, size: 0x8, addend: 0x0, symName: __ZNSt3__122__compressed_pair_elemINS_22__tree_node_destructorINS_9allocatorINS_11__tree_nodeINS_12__value_typeINS_5tupleIJssssEEEyEEPvEEEEEELi1ELb0EE5__getB7v160006Ev, symObjAddr: 0x7D40, symBinAddr: 0x10000A838, symSize: 0x14 }
  - { offsetInCU: 0x232FD, offset: 0x232FD, size: 0x8, addend: 0x0, symName: __ZNSt3__16__treeINS_12__value_typeINS_5tupleIJssssEEEyEENS_19__map_value_compareIS3_S4_NS_4lessIS3_EELb1EEENS_9allocatorIS4_EEE4sizeB7v160006Ev, symObjAddr: 0x8080, symBinAddr: 0x10000AB78, symSize: 0x28 }
  - { offsetInCU: 0x23323, offset: 0x23323, size: 0x8, addend: 0x0, symName: __ZNKSt3__116__tree_node_baseIPvE15__parent_unsafeB7v160006Ev, symObjAddr: 0x80A8, symBinAddr: 0x10000ABA0, symSize: 0x18 }
  - { offsetInCU: 0x23349, offset: 0x23349, size: 0x8, addend: 0x0, symName: __ZNSt3__116__tree_node_baseIPvE12__set_parentB7v160006EPS2_, symObjAddr: 0x8290, symBinAddr: 0x10000AD88, symSize: 0x20 }
  - { offsetInCU: 0x2337E, offset: 0x2337E, size: 0x8, addend: 0x0, symName: __ZNSt3__117__compressed_pairImNS_19__map_value_compareINS_5tupleIJssssEEENS_12__value_typeIS3_yEENS_4lessIS3_EELb1EEEE5firstB7v160006Ev, symObjAddr: 0x82B0, symBinAddr: 0x10000ADA8, symSize: 0x24 }
  - { offsetInCU: 0x233A4, offset: 0x233A4, size: 0x8, addend: 0x0, symName: __ZNSt3__122__compressed_pair_elemImLi0ELb0EE5__getB7v160006Ev, symObjAddr: 0x82D4, symBinAddr: 0x10000ADCC, symSize: 0x14 }
  - { offsetInCU: 0x233CA, offset: 0x233CA, size: 0x8, addend: 0x0, symName: __ZNSt3__117__compressed_pairIPNS_11__tree_nodeINS_12__value_typeINS_5tupleIJssssEEEyEEPvEENS_22__tree_node_destructorINS_9allocatorIS7_EEEEE5firstB7v160006Ev, symObjAddr: 0x82E8, symBinAddr: 0x10000ADE0, symSize: 0x24 }
  - { offsetInCU: 0x233F0, offset: 0x233F0, size: 0x8, addend: 0x0, symName: __ZNSt3__122__compressed_pair_elemIPNS_11__tree_nodeINS_12__value_typeINS_5tupleIJssssEEEyEEPvEELi0ELb0EE5__getB7v160006Ev, symObjAddr: 0x830C, symBinAddr: 0x10000AE04, symSize: 0x14 }
  - { offsetInCU: 0x23416, offset: 0x23416, size: 0x8, addend: 0x0, symName: __ZNSt3__110unique_ptrINS_11__tree_nodeINS_12__value_typeINS_5tupleIJssssEEEyEEPvEENS_22__tree_node_destructorINS_9allocatorIS7_EEEEED2B7v160006Ev, symObjAddr: 0x8320, symBinAddr: 0x10000AE18, symSize: 0x30 }
  - { offsetInCU: 0x23440, offset: 0x23440, size: 0x8, addend: 0x0, symName: __ZNSt3__110unique_ptrINS_11__tree_nodeINS_12__value_typeINS_5tupleIJssssEEEyEEPvEENS_22__tree_node_destructorINS_9allocatorIS7_EEEEE5resetB7v160006EPS7_, symObjAddr: 0x8350, symBinAddr: 0x10000AE48, symSize: 0x78 }
  - { offsetInCU: 0x23484, offset: 0x23484, size: 0x8, addend: 0x0, symName: __ZNSt3__122__tree_node_destructorINS_9allocatorINS_11__tree_nodeINS_12__value_typeINS_5tupleIJssssEEEyEEPvEEEEEclB7v160006EPS8_, symObjAddr: 0x83C8, symBinAddr: 0x10000AEC0, symSize: 0x98 }
  - { offsetInCU: 0x234B9, offset: 0x234B9, size: 0x8, addend: 0x0, symName: __ZNSt3__115__tree_iteratorINS_12__value_typeINS_5tupleIJssssEEEyEEPNS_11__tree_nodeIS4_PvEElEC2B7v160006ES8_, symObjAddr: 0x8460, symBinAddr: 0x10000AF58, symSize: 0x20 }
  - { offsetInCU: 0x234F2, offset: 0x234F2, size: 0x8, addend: 0x0, symName: __ZNSt3__14pairINS_15__tree_iteratorINS_12__value_typeINS_5tupleIJssssEEEyEEPNS_11__tree_nodeIS5_PvEElEEbEC2B7v160006ISA_RbLS7_0EEEOT_OT0_, symObjAddr: 0x8480, symBinAddr: 0x10000AF78, symSize: 0x38 }
  - { offsetInCU: 0x23550, offset: 0x23550, size: 0x8, addend: 0x0, symName: __ZNSt3__15tupleIJONS0_IJssssEEEEEC1B7v160006IJS1_ELi0EEEDpOT_, symObjAddr: 0x84B8, symBinAddr: 0x10000AFB0, symSize: 0x34 }
  - { offsetInCU: 0x2359A, offset: 0x2359A, size: 0x8, addend: 0x0, symName: __ZNSt3__15tupleIJONS0_IJssssEEEEEC2B7v160006IJS1_ELi0EEEDpOT_, symObjAddr: 0x84EC, symBinAddr: 0x10000AFE4, symSize: 0x34 }
  - { offsetInCU: 0x235E4, offset: 0x235E4, size: 0x8, addend: 0x0, symName: __ZNSt3__112__tuple_implINS_15__tuple_indicesIJLm0EEEEJONS_5tupleIJssssEEEEEC1B7v160006IJLm0EEJS5_EJEJEJS4_EEENS1_IJXspT_EEEENS_13__tuple_typesIJDpT0_EEENS1_IJXspT1_EEEENS9_IJDpT2_EEEDpOT3_, symObjAddr: 0x8520, symBinAddr: 0x10000B018, symSize: 0x34 }
  - { offsetInCU: 0x23675, offset: 0x23675, size: 0x8, addend: 0x0, symName: __ZNSt3__112__tuple_implINS_15__tuple_indicesIJLm0EEEEJONS_5tupleIJssssEEEEEC2B7v160006IJLm0EEJS5_EJEJEJS4_EEENS1_IJXspT_EEEENS_13__tuple_typesIJDpT0_EEENS1_IJXspT1_EEEENS9_IJDpT2_EEEDpOT3_, symObjAddr: 0x8554, symBinAddr: 0x10000B04C, symSize: 0x34 }
  - { offsetInCU: 0x23706, offset: 0x23706, size: 0x8, addend: 0x0, symName: __ZNSt3__112__tuple_leafILm0EONS_5tupleIJssssEEELb0EEC2B7v160006IS2_vEEOT_, symObjAddr: 0x8588, symBinAddr: 0x10000B080, symSize: 0x20 }
  - { offsetInCU: 0x23749, offset: 0x23749, size: 0x8, addend: 0x0, symName: __ZNSt3__114pointer_traitsIPNS_12__value_typeINS_5tupleIJssssEEEyEEE10pointer_toB7v160006ERS4_, symObjAddr: 0x85A8, symBinAddr: 0x10000B0A0, symSize: 0x14 }
  - { offsetInCU: 0x2376C, offset: 0x2376C, size: 0x8, addend: 0x0, symName: __ZNKSt3__115__tree_iteratorINS_12__value_typeINS_5tupleIJssssEEEyEEPNS_11__tree_nodeIS4_PvEElE8__get_npB7v160006Ev, symObjAddr: 0x85BC, symBinAddr: 0x10000B0B4, symSize: 0x18 }
  - { offsetInCU: 0x23792, offset: 0x23792, size: 0x8, addend: 0x0, symName: __ZNSt3__16__treeINS_12__value_typeINS_5tupleIJssssEEEyEENS_19__map_value_compareIS3_S4_NS_4lessIS3_EELb1EEENS_9allocatorIS4_EEE5beginB7v160006Ev, symObjAddr: 0x85D4, symBinAddr: 0x10000B0CC, symSize: 0x34 }
  - { offsetInCU: 0x237B8, offset: 0x237B8, size: 0x8, addend: 0x0, symName: __ZNSt3__114__map_iteratorINS_15__tree_iteratorINS_12__value_typeINS_5tupleIJssssEEEyEEPNS_11__tree_nodeIS5_PvEElEEEC1B7v160006ESA_, symObjAddr: 0x8608, symBinAddr: 0x10000B100, symSize: 0x34 }
  - { offsetInCU: 0x237F1, offset: 0x237F1, size: 0x8, addend: 0x0, symName: __ZNSt3__115__tree_iteratorINS_12__value_typeINS_5tupleIJssssEEEyEEPNS_11__tree_nodeIS4_PvEElEC1B7v160006EPNS_15__tree_end_nodeIPNS_16__tree_node_baseIS6_EEEE, symObjAddr: 0x863C, symBinAddr: 0x10000B134, symSize: 0x34 }
  - { offsetInCU: 0x2382A, offset: 0x2382A, size: 0x8, addend: 0x0, symName: __ZNSt3__115__tree_iteratorINS_12__value_typeINS_5tupleIJssssEEEyEEPNS_11__tree_nodeIS4_PvEElEC2B7v160006EPNS_15__tree_end_nodeIPNS_16__tree_node_baseIS6_EEEE, symObjAddr: 0x8670, symBinAddr: 0x10000B168, symSize: 0x20 }
  - { offsetInCU: 0x23863, offset: 0x23863, size: 0x8, addend: 0x0, symName: __ZNSt3__114__map_iteratorINS_15__tree_iteratorINS_12__value_typeINS_5tupleIJssssEEEyEEPNS_11__tree_nodeIS5_PvEElEEEC2B7v160006ESA_, symObjAddr: 0x8690, symBinAddr: 0x10000B188, symSize: 0x20 }
  - { offsetInCU: 0x2389C, offset: 0x2389C, size: 0x8, addend: 0x0, symName: __ZNSt3__16__treeINS_12__value_typeINS_5tupleIJssssEEEyEENS_19__map_value_compareIS3_S4_NS_4lessIS3_EELb1EEENS_9allocatorIS4_EEE3endB7v160006Ev, symObjAddr: 0x86B0, symBinAddr: 0x10000B1A8, symSize: 0x34 }
  - { offsetInCU: 0x238C2, offset: 0x238C2, size: 0x8, addend: 0x0, symName: __ZNSt3__115__tree_iteratorINS_12__value_typeINS_5tupleIJssssEEEyEEPNS_11__tree_nodeIS4_PvEElEppB7v160006Ev, symObjAddr: 0x8748, symBinAddr: 0x10000B240, symSize: 0x38 }
...
